   1               		.file	"suspend.c"
   2               	__SP_H__ = 0x3e
   3               	__SP_L__ = 0x3d
   4               	__SREG__ = 0x3f
   5               	__tmp_reg__ = 0
   6               	__zero_reg__ = 1
   7               		.text
   8               	.Ltext0:
   9               		.cfi_sections	.debug_frame
  10               		.section	.text.suspend_idle,"ax",@progbits
  11               	.global	suspend_idle
  13               	suspend_idle:
  14               	.LVL0:
  15               	.LFB110:
  16               		.file 1 "tmk_core/common/avr/suspend.c"
   1:tmk_core/common/avr/suspend.c **** #include <stdbool.h>
   2:tmk_core/common/avr/suspend.c **** #include <avr/sleep.h>
   3:tmk_core/common/avr/suspend.c **** #include <avr/wdt.h>
   4:tmk_core/common/avr/suspend.c **** #include <avr/interrupt.h>
   5:tmk_core/common/avr/suspend.c **** #include "matrix.h"
   6:tmk_core/common/avr/suspend.c **** #include "action.h"
   7:tmk_core/common/avr/suspend.c **** #include "suspend_avr.h"
   8:tmk_core/common/avr/suspend.c **** #include "suspend.h"
   9:tmk_core/common/avr/suspend.c **** #include "timer.h"
  10:tmk_core/common/avr/suspend.c **** #include "led.h"
  11:tmk_core/common/avr/suspend.c **** #include "host.h"
  12:tmk_core/common/avr/suspend.c **** 
  13:tmk_core/common/avr/suspend.c **** #ifdef PROTOCOL_LUFA
  14:tmk_core/common/avr/suspend.c **** #    include "lufa.h"
  15:tmk_core/common/avr/suspend.c **** #endif
  16:tmk_core/common/avr/suspend.c **** 
  17:tmk_core/common/avr/suspend.c **** #ifdef BACKLIGHT_ENABLE
  18:tmk_core/common/avr/suspend.c **** #    include "backlight.h"
  19:tmk_core/common/avr/suspend.c **** #endif
  20:tmk_core/common/avr/suspend.c **** 
  21:tmk_core/common/avr/suspend.c **** #ifdef AUDIO_ENABLE
  22:tmk_core/common/avr/suspend.c **** #    include "audio.h"
  23:tmk_core/common/avr/suspend.c **** #endif /* AUDIO_ENABLE */
  24:tmk_core/common/avr/suspend.c **** 
  25:tmk_core/common/avr/suspend.c **** #if defined(RGBLIGHT_SLEEP) && defined(RGBLIGHT_ENABLE)
  26:tmk_core/common/avr/suspend.c **** #    include "rgblight.h"
  27:tmk_core/common/avr/suspend.c **** extern rgblight_config_t rgblight_config;
  28:tmk_core/common/avr/suspend.c **** static bool              rgblight_enabled;
  29:tmk_core/common/avr/suspend.c **** static bool              is_suspended;
  30:tmk_core/common/avr/suspend.c **** #endif
  31:tmk_core/common/avr/suspend.c **** 
  32:tmk_core/common/avr/suspend.c **** /** \brief Suspend idle
  33:tmk_core/common/avr/suspend.c ****  *
  34:tmk_core/common/avr/suspend.c ****  * FIXME: needs doc
  35:tmk_core/common/avr/suspend.c ****  */
  36:tmk_core/common/avr/suspend.c **** void suspend_idle(uint8_t time) {
  17               		.loc 1 36 33 view -0
  18               		.cfi_startproc
  19               	/* prologue: function */
  20               	/* frame size = 0 */
  21               	/* stack size = 0 */
  22               	.L__stack_usage = 0
  37:tmk_core/common/avr/suspend.c ****     cli();
  23               		.loc 1 37 5 view .LVU1
  24               	/* #APP */
  25               	 ;  37 "tmk_core/common/avr/suspend.c" 1
  26 0000 F894      		cli
  27               	 ;  0 "" 2
  38:tmk_core/common/avr/suspend.c ****     set_sleep_mode(SLEEP_MODE_IDLE);
  28               		.loc 1 38 5 view .LVU2
  29               		.loc 1 38 5 view .LVU3
  30               	/* #NOAPP */
  31 0002 83B7      		in r24,0x33
  32               	.LVL1:
  33               		.loc 1 38 5 is_stmt 0 view .LVU4
  34 0004 817F      		andi r24,lo8(-15)
  35 0006 83BF      		out 0x33,r24
  36               		.loc 1 38 5 is_stmt 1 view .LVU5
  39:tmk_core/common/avr/suspend.c ****     sleep_enable();
  37               		.loc 1 39 5 view .LVU6
  38               		.loc 1 39 5 view .LVU7
  39 0008 83B7      		in r24,0x33
  40 000a 8160      		ori r24,lo8(1)
  41 000c 83BF      		out 0x33,r24
  42               		.loc 1 39 5 view .LVU8
  40:tmk_core/common/avr/suspend.c ****     sei();
  43               		.loc 1 40 5 view .LVU9
  44               	/* #APP */
  45               	 ;  40 "tmk_core/common/avr/suspend.c" 1
  46 000e 7894      		sei
  47               	 ;  0 "" 2
  41:tmk_core/common/avr/suspend.c ****     sleep_cpu();
  48               		.loc 1 41 5 view .LVU10
  49               		.loc 1 41 5 view .LVU11
  50               	 ;  41 "tmk_core/common/avr/suspend.c" 1
  51 0010 8895      		sleep
  52               		
  53               	 ;  0 "" 2
  54               		.loc 1 41 5 view .LVU12
  42:tmk_core/common/avr/suspend.c ****     sleep_disable();
  55               		.loc 1 42 5 view .LVU13
  56               		.loc 1 42 5 view .LVU14
  57               	/* #NOAPP */
  58 0012 83B7      		in r24,0x33
  59 0014 8E7F      		andi r24,lo8(-2)
  60 0016 83BF      		out 0x33,r24
  61               		.loc 1 42 5 view .LVU15
  62               	/* epilogue start */
  43:tmk_core/common/avr/suspend.c **** }
  63               		.loc 1 43 1 is_stmt 0 view .LVU16
  64 0018 0895      		ret
  65               		.cfi_endproc
  66               	.LFE110:
  68               		.section	.text.matrix_power_up,"ax",@progbits
  69               		.weak	matrix_power_up
  71               	matrix_power_up:
  72               	.LFB115:
  44:tmk_core/common/avr/suspend.c **** 
  45:tmk_core/common/avr/suspend.c **** // TODO: This needs some cleanup
  46:tmk_core/common/avr/suspend.c **** 
  47:tmk_core/common/avr/suspend.c **** /** \brief Run keyboard level Power down
  48:tmk_core/common/avr/suspend.c ****  *
  49:tmk_core/common/avr/suspend.c ****  * FIXME: needs doc
  50:tmk_core/common/avr/suspend.c ****  */
  51:tmk_core/common/avr/suspend.c **** __attribute__((weak)) void suspend_power_down_user(void) {}
  52:tmk_core/common/avr/suspend.c **** /** \brief Run keyboard level Power down
  53:tmk_core/common/avr/suspend.c ****  *
  54:tmk_core/common/avr/suspend.c ****  * FIXME: needs doc
  55:tmk_core/common/avr/suspend.c ****  */
  56:tmk_core/common/avr/suspend.c **** __attribute__((weak)) void suspend_power_down_kb(void) { suspend_power_down_user(); }
  57:tmk_core/common/avr/suspend.c **** 
  58:tmk_core/common/avr/suspend.c **** #ifndef NO_SUSPEND_POWER_DOWN
  59:tmk_core/common/avr/suspend.c **** /** \brief Power down MCU with watchdog timer
  60:tmk_core/common/avr/suspend.c ****  *
  61:tmk_core/common/avr/suspend.c ****  * wdto: watchdog timer timeout defined in <avr/wdt.h>
  62:tmk_core/common/avr/suspend.c ****  *          WDTO_15MS
  63:tmk_core/common/avr/suspend.c ****  *          WDTO_30MS
  64:tmk_core/common/avr/suspend.c ****  *          WDTO_60MS
  65:tmk_core/common/avr/suspend.c ****  *          WDTO_120MS
  66:tmk_core/common/avr/suspend.c ****  *          WDTO_250MS
  67:tmk_core/common/avr/suspend.c ****  *          WDTO_500MS
  68:tmk_core/common/avr/suspend.c ****  *          WDTO_1S
  69:tmk_core/common/avr/suspend.c ****  *          WDTO_2S
  70:tmk_core/common/avr/suspend.c ****  *          WDTO_4S
  71:tmk_core/common/avr/suspend.c ****  *          WDTO_8S
  72:tmk_core/common/avr/suspend.c ****  */
  73:tmk_core/common/avr/suspend.c **** static uint8_t wdt_timeout = 0;
  74:tmk_core/common/avr/suspend.c **** 
  75:tmk_core/common/avr/suspend.c **** /** \brief Power down
  76:tmk_core/common/avr/suspend.c ****  *
  77:tmk_core/common/avr/suspend.c ****  * FIXME: needs doc
  78:tmk_core/common/avr/suspend.c ****  */
  79:tmk_core/common/avr/suspend.c **** static void power_down(uint8_t wdto) {
  80:tmk_core/common/avr/suspend.c **** #    ifdef PROTOCOL_LUFA
  81:tmk_core/common/avr/suspend.c ****     if (USB_DeviceState == DEVICE_STATE_Configured) return;
  82:tmk_core/common/avr/suspend.c **** #    endif
  83:tmk_core/common/avr/suspend.c ****     wdt_timeout = wdto;
  84:tmk_core/common/avr/suspend.c **** 
  85:tmk_core/common/avr/suspend.c ****     // Watchdog Interrupt Mode
  86:tmk_core/common/avr/suspend.c ****     wdt_intr_enable(wdto);
  87:tmk_core/common/avr/suspend.c **** 
  88:tmk_core/common/avr/suspend.c **** #    ifdef BACKLIGHT_ENABLE
  89:tmk_core/common/avr/suspend.c ****     backlight_set(0);
  90:tmk_core/common/avr/suspend.c **** #    endif
  91:tmk_core/common/avr/suspend.c **** 
  92:tmk_core/common/avr/suspend.c ****     // Turn off LED indicators
  93:tmk_core/common/avr/suspend.c ****     uint8_t leds_off = 0;
  94:tmk_core/common/avr/suspend.c **** #    if defined(BACKLIGHT_CAPS_LOCK) && defined(BACKLIGHT_ENABLE)
  95:tmk_core/common/avr/suspend.c ****     if (is_backlight_enabled()) {
  96:tmk_core/common/avr/suspend.c ****         // Don't try to turn off Caps Lock indicator as it is backlight and backlight is already of
  97:tmk_core/common/avr/suspend.c ****         leds_off |= (1 << USB_LED_CAPS_LOCK);
  98:tmk_core/common/avr/suspend.c ****     }
  99:tmk_core/common/avr/suspend.c **** #    endif
 100:tmk_core/common/avr/suspend.c ****     led_set(leds_off);
 101:tmk_core/common/avr/suspend.c **** 
 102:tmk_core/common/avr/suspend.c **** #    ifdef AUDIO_ENABLE
 103:tmk_core/common/avr/suspend.c ****     // This sometimes disables the start-up noise, so it's been disabled
 104:tmk_core/common/avr/suspend.c ****     // stop_all_notes();
 105:tmk_core/common/avr/suspend.c **** #    endif /* AUDIO_ENABLE */
 106:tmk_core/common/avr/suspend.c **** #    if defined(RGBLIGHT_SLEEP) && defined(RGBLIGHT_ENABLE)
 107:tmk_core/common/avr/suspend.c ****     rgblight_timer_disable();
 108:tmk_core/common/avr/suspend.c ****     if (!is_suspended) {
 109:tmk_core/common/avr/suspend.c ****         is_suspended     = true;
 110:tmk_core/common/avr/suspend.c ****         rgblight_enabled = rgblight_config.enable;
 111:tmk_core/common/avr/suspend.c ****         rgblight_disable_noeeprom();
 112:tmk_core/common/avr/suspend.c ****     }
 113:tmk_core/common/avr/suspend.c **** #    endif
 114:tmk_core/common/avr/suspend.c ****     suspend_power_down_kb();
 115:tmk_core/common/avr/suspend.c **** 
 116:tmk_core/common/avr/suspend.c ****     // TODO: more power saving
 117:tmk_core/common/avr/suspend.c ****     // See PicoPower application note
 118:tmk_core/common/avr/suspend.c ****     // - I/O port input with pullup
 119:tmk_core/common/avr/suspend.c ****     // - prescale clock
 120:tmk_core/common/avr/suspend.c ****     // - BOD disable
 121:tmk_core/common/avr/suspend.c ****     // - Power Reduction Register PRR
 122:tmk_core/common/avr/suspend.c ****     set_sleep_mode(SLEEP_MODE_PWR_DOWN);
 123:tmk_core/common/avr/suspend.c ****     sleep_enable();
 124:tmk_core/common/avr/suspend.c ****     sei();
 125:tmk_core/common/avr/suspend.c ****     sleep_cpu();
 126:tmk_core/common/avr/suspend.c ****     sleep_disable();
 127:tmk_core/common/avr/suspend.c **** 
 128:tmk_core/common/avr/suspend.c ****     // Disable watchdog after sleep
 129:tmk_core/common/avr/suspend.c ****     wdt_disable();
 130:tmk_core/common/avr/suspend.c **** }
 131:tmk_core/common/avr/suspend.c **** #endif
 132:tmk_core/common/avr/suspend.c **** 
 133:tmk_core/common/avr/suspend.c **** /** \brief Suspend power down
 134:tmk_core/common/avr/suspend.c ****  *
 135:tmk_core/common/avr/suspend.c ****  * FIXME: needs doc
 136:tmk_core/common/avr/suspend.c ****  */
 137:tmk_core/common/avr/suspend.c **** void suspend_power_down(void) {
 138:tmk_core/common/avr/suspend.c ****     suspend_power_down_kb();
 139:tmk_core/common/avr/suspend.c **** 
 140:tmk_core/common/avr/suspend.c **** #ifndef NO_SUSPEND_POWER_DOWN
 141:tmk_core/common/avr/suspend.c ****     power_down(WDTO_15MS);
 142:tmk_core/common/avr/suspend.c **** #endif
 143:tmk_core/common/avr/suspend.c **** }
 144:tmk_core/common/avr/suspend.c **** 
 145:tmk_core/common/avr/suspend.c **** __attribute__((weak)) void matrix_power_up(void) {}
  73               		.loc 1 145 50 is_stmt 1 view -0
  74               		.cfi_startproc
  75               	/* prologue: function */
  76               	/* frame size = 0 */
  77               	/* stack size = 0 */
  78               	.L__stack_usage = 0
  79               		.loc 1 145 51 view .LVU18
  80               	/* epilogue start */
  81               		.loc 1 145 1 is_stmt 0 view .LVU19
  82 0000 0895      		ret
  83               		.cfi_endproc
  84               	.LFE115:
  86               		.set	matrix_power_up.localalias.0,matrix_power_up
  87               		.section	.text.suspend_power_down_user,"ax",@progbits
  88               		.weak	suspend_power_down_user
  90               	suspend_power_down_user:
  91               	.LFB127:
  92               		.cfi_startproc
  93               	/* prologue: function */
  94               	/* frame size = 0 */
  95               	/* stack size = 0 */
  96               	.L__stack_usage = 0
  97               	/* epilogue start */
  98 0000 0895      		ret
  99               		.cfi_endproc
 100               	.LFE127:
 102               		.section	.text.suspend_power_down_kb,"ax",@progbits
 103               		.weak	suspend_power_down_kb
 105               	suspend_power_down_kb:
 106               	.LFB112:
  56:tmk_core/common/avr/suspend.c **** 
 107               		.loc 1 56 56 is_stmt 1 view -0
 108               		.cfi_startproc
 109               	/* prologue: function */
 110               	/* frame size = 0 */
 111               	/* stack size = 0 */
 112               	.L__stack_usage = 0
  56:tmk_core/common/avr/suspend.c **** 
 113               		.loc 1 56 58 view .LVU21
 114 0000 0C94 0000 		jmp suspend_power_down_user
 115               	.LVL2:
 116               		.cfi_endproc
 117               	.LFE112:
 119               		.section	.text.suspend_power_down,"ax",@progbits
 120               	.global	suspend_power_down
 122               	suspend_power_down:
 123               	.LFB114:
 137:tmk_core/common/avr/suspend.c ****     suspend_power_down_kb();
 124               		.loc 1 137 31 view -0
 125               		.cfi_startproc
 126               	/* prologue: function */
 127               	/* frame size = 0 */
 128               	/* stack size = 0 */
 129               	.L__stack_usage = 0
 138:tmk_core/common/avr/suspend.c **** 
 130               		.loc 1 138 5 view .LVU23
 131 0000 0E94 0000 		call suspend_power_down_kb
 132               	.LVL3:
 141:tmk_core/common/avr/suspend.c **** #endif
 133               		.loc 1 141 5 view .LVU24
 134               	.LBB11:
 135               	.LBI11:
  79:tmk_core/common/avr/suspend.c **** #    ifdef PROTOCOL_LUFA
 136               		.loc 1 79 13 view .LVU25
 137               	.LBB12:
  81:tmk_core/common/avr/suspend.c **** #    endif
 138               		.loc 1 81 5 view .LVU26
  81:tmk_core/common/avr/suspend.c **** #    endif
 139               		.loc 1 81 25 is_stmt 0 view .LVU27
 140 0004 8091 0000 		lds r24,USB_DeviceState
  81:tmk_core/common/avr/suspend.c **** #    endif
 141               		.loc 1 81 8 view .LVU28
 142 0008 8430      		cpi r24,lo8(4)
 143 000a 01F4      		brne .+2
 144 000c 00C0      		rjmp .L5
  83:tmk_core/common/avr/suspend.c **** 
 145               		.loc 1 83 5 is_stmt 1 view .LVU29
  83:tmk_core/common/avr/suspend.c **** 
 146               		.loc 1 83 17 is_stmt 0 view .LVU30
 147 000e 1092 0000 		sts wdt_timeout,__zero_reg__
  86:tmk_core/common/avr/suspend.c **** 
 148               		.loc 1 86 5 is_stmt 1 view .LVU31
 149 0012 88E1      		ldi r24,lo8(24)
 150 0014 90E0      		ldi r25,0
 151 0016 20E4      		ldi r18,lo8(64)
 152               	/* #APP */
 153               	 ;  86 "tmk_core/common/avr/suspend.c" 1
 154 0018 0FB6      		in __tmp_reg__,__SREG__
 155 001a F894      		cli
 156 001c A895      		wdr
 157 001e 8093 6000 		sts 96,r24
 158 0022 0FBE      		out __SREG__,__tmp_reg__
 159 0024 2093 6000 		sts 96,r18
 160               		
 161               	 ;  0 "" 2
  93:tmk_core/common/avr/suspend.c **** #    if defined(BACKLIGHT_CAPS_LOCK) && defined(BACKLIGHT_ENABLE)
 162               		.loc 1 93 5 view .LVU32
 163               	.LVL4:
 100:tmk_core/common/avr/suspend.c **** 
 164               		.loc 1 100 5 view .LVU33
 165               	/* #NOAPP */
 166 0028 80E0      		ldi r24,0
 167 002a 0E94 0000 		call led_set
 168               	.LVL5:
 107:tmk_core/common/avr/suspend.c ****     if (!is_suspended) {
 169               		.loc 1 107 5 view .LVU34
 170 002e 0E94 0000 		call rgblight_timer_disable
 171               	.LVL6:
 108:tmk_core/common/avr/suspend.c ****         is_suspended     = true;
 172               		.loc 1 108 5 view .LVU35
 108:tmk_core/common/avr/suspend.c ****         is_suspended     = true;
 173               		.loc 1 108 8 is_stmt 0 view .LVU36
 174 0032 8091 0000 		lds r24,is_suspended
 175 0036 8111      		cpse r24,__zero_reg__
 176 0038 00C0      		rjmp .L7
 109:tmk_core/common/avr/suspend.c ****         rgblight_enabled = rgblight_config.enable;
 177               		.loc 1 109 9 is_stmt 1 view .LVU37
 109:tmk_core/common/avr/suspend.c ****         rgblight_enabled = rgblight_config.enable;
 178               		.loc 1 109 26 is_stmt 0 view .LVU38
 179 003a 81E0      		ldi r24,lo8(1)
 180 003c 8093 0000 		sts is_suspended,r24
 110:tmk_core/common/avr/suspend.c ****         rgblight_disable_noeeprom();
 181               		.loc 1 110 9 is_stmt 1 view .LVU39
 110:tmk_core/common/avr/suspend.c ****         rgblight_disable_noeeprom();
 182               		.loc 1 110 43 is_stmt 0 view .LVU40
 183 0040 8091 0000 		lds r24,rgblight_config
 184 0044 8170      		andi r24,1
 110:tmk_core/common/avr/suspend.c ****         rgblight_disable_noeeprom();
 185               		.loc 1 110 26 view .LVU41
 186 0046 8093 0000 		sts rgblight_enabled,r24
 111:tmk_core/common/avr/suspend.c ****     }
 187               		.loc 1 111 9 is_stmt 1 view .LVU42
 188 004a 0E94 0000 		call rgblight_disable_noeeprom
 189               	.LVL7:
 190               	.L7:
 114:tmk_core/common/avr/suspend.c **** 
 191               		.loc 1 114 5 view .LVU43
 192 004e 0E94 0000 		call suspend_power_down_kb
 193               	.LVL8:
 122:tmk_core/common/avr/suspend.c ****     sleep_enable();
 194               		.loc 1 122 5 view .LVU44
 122:tmk_core/common/avr/suspend.c ****     sleep_enable();
 195               		.loc 1 122 5 view .LVU45
 196 0052 83B7      		in r24,0x33
 197 0054 817F      		andi r24,lo8(-15)
 198 0056 8460      		ori r24,lo8(4)
 199 0058 83BF      		out 0x33,r24
 122:tmk_core/common/avr/suspend.c ****     sleep_enable();
 200               		.loc 1 122 5 view .LVU46
 123:tmk_core/common/avr/suspend.c ****     sei();
 201               		.loc 1 123 5 view .LVU47
 123:tmk_core/common/avr/suspend.c ****     sei();
 202               		.loc 1 123 5 view .LVU48
 203 005a 83B7      		in r24,0x33
 204 005c 8160      		ori r24,lo8(1)
 205 005e 83BF      		out 0x33,r24
 123:tmk_core/common/avr/suspend.c ****     sei();
 206               		.loc 1 123 5 view .LVU49
 124:tmk_core/common/avr/suspend.c ****     sleep_cpu();
 207               		.loc 1 124 5 view .LVU50
 208               	/* #APP */
 209               	 ;  124 "tmk_core/common/avr/suspend.c" 1
 210 0060 7894      		sei
 211               	 ;  0 "" 2
 125:tmk_core/common/avr/suspend.c ****     sleep_disable();
 212               		.loc 1 125 5 view .LVU51
 125:tmk_core/common/avr/suspend.c ****     sleep_disable();
 213               		.loc 1 125 5 view .LVU52
 214               	 ;  125 "tmk_core/common/avr/suspend.c" 1
 215 0062 8895      		sleep
 216               		
 217               	 ;  0 "" 2
 125:tmk_core/common/avr/suspend.c ****     sleep_disable();
 218               		.loc 1 125 5 view .LVU53
 126:tmk_core/common/avr/suspend.c **** 
 219               		.loc 1 126 5 view .LVU54
 126:tmk_core/common/avr/suspend.c **** 
 220               		.loc 1 126 5 view .LVU55
 221               	/* #NOAPP */
 222 0064 83B7      		in r24,0x33
 223 0066 8E7F      		andi r24,lo8(-2)
 224 0068 83BF      		out 0x33,r24
 126:tmk_core/common/avr/suspend.c **** 
 225               		.loc 1 126 5 view .LVU56
 129:tmk_core/common/avr/suspend.c **** }
 226               		.loc 1 129 5 view .LVU57
 227               	.LBB13:
 228               	.LBI13:
 229               		.file 2 "/usr/local/Cellar/avr-gcc@8/8.4.0/avr/include/avr/wdt.h"
   1:/usr/local/Cellar/avr-gcc@8/8.4.0/avr/include/avr/wdt.h **** /* Copyright (c) 2002, 2004 Marek Michalkiewicz
   2:/usr/local/Cellar/avr-gcc@8/8.4.0/avr/include/avr/wdt.h ****    Copyright (c) 2005, 2006, 2007 Eric B. Weddington
   3:/usr/local/Cellar/avr-gcc@8/8.4.0/avr/include/avr/wdt.h ****    All rights reserved.
   4:/usr/local/Cellar/avr-gcc@8/8.4.0/avr/include/avr/wdt.h **** 
   5:/usr/local/Cellar/avr-gcc@8/8.4.0/avr/include/avr/wdt.h ****    Redistribution and use in source and binary forms, with or without
   6:/usr/local/Cellar/avr-gcc@8/8.4.0/avr/include/avr/wdt.h ****    modification, are permitted provided that the following conditions are met:
   7:/usr/local/Cellar/avr-gcc@8/8.4.0/avr/include/avr/wdt.h **** 
   8:/usr/local/Cellar/avr-gcc@8/8.4.0/avr/include/avr/wdt.h ****    * Redistributions of source code must retain the above copyright
   9:/usr/local/Cellar/avr-gcc@8/8.4.0/avr/include/avr/wdt.h ****      notice, this list of conditions and the following disclaimer.
  10:/usr/local/Cellar/avr-gcc@8/8.4.0/avr/include/avr/wdt.h **** 
  11:/usr/local/Cellar/avr-gcc@8/8.4.0/avr/include/avr/wdt.h ****    * Redistributions in binary form must reproduce the above copyright
  12:/usr/local/Cellar/avr-gcc@8/8.4.0/avr/include/avr/wdt.h ****      notice, this list of conditions and the following disclaimer in
  13:/usr/local/Cellar/avr-gcc@8/8.4.0/avr/include/avr/wdt.h ****      the documentation and/or other materials provided with the
  14:/usr/local/Cellar/avr-gcc@8/8.4.0/avr/include/avr/wdt.h ****      distribution.
  15:/usr/local/Cellar/avr-gcc@8/8.4.0/avr/include/avr/wdt.h **** 
  16:/usr/local/Cellar/avr-gcc@8/8.4.0/avr/include/avr/wdt.h ****    * Neither the name of the copyright holders nor the names of
  17:/usr/local/Cellar/avr-gcc@8/8.4.0/avr/include/avr/wdt.h ****      contributors may be used to endorse or promote products derived
  18:/usr/local/Cellar/avr-gcc@8/8.4.0/avr/include/avr/wdt.h ****      from this software without specific prior written permission.
  19:/usr/local/Cellar/avr-gcc@8/8.4.0/avr/include/avr/wdt.h **** 
  20:/usr/local/Cellar/avr-gcc@8/8.4.0/avr/include/avr/wdt.h ****   THIS SOFTWARE IS PROVIDED BY THE COPYRIGHT HOLDERS AND CONTRIBUTORS "AS IS"
  21:/usr/local/Cellar/avr-gcc@8/8.4.0/avr/include/avr/wdt.h ****   AND ANY EXPRESS OR IMPLIED WARRANTIES, INCLUDING, BUT NOT LIMITED TO, THE
  22:/usr/local/Cellar/avr-gcc@8/8.4.0/avr/include/avr/wdt.h ****   IMPLIED WARRANTIES OF MERCHANTABILITY AND FITNESS FOR A PARTICULAR PURPOSE
  23:/usr/local/Cellar/avr-gcc@8/8.4.0/avr/include/avr/wdt.h ****   ARE DISCLAIMED. IN NO EVENT SHALL THE COPYRIGHT OWNER OR CONTRIBUTORS BE
  24:/usr/local/Cellar/avr-gcc@8/8.4.0/avr/include/avr/wdt.h ****   LIABLE FOR ANY DIRECT, INDIRECT, INCIDENTAL, SPECIAL, EXEMPLARY, OR
  25:/usr/local/Cellar/avr-gcc@8/8.4.0/avr/include/avr/wdt.h ****   CONSEQUENTIAL DAMAGES (INCLUDING, BUT NOT LIMITED TO, PROCUREMENT OF
  26:/usr/local/Cellar/avr-gcc@8/8.4.0/avr/include/avr/wdt.h ****   SUBSTITUTE GOODS OR SERVICES; LOSS OF USE, DATA, OR PROFITS; OR BUSINESS
  27:/usr/local/Cellar/avr-gcc@8/8.4.0/avr/include/avr/wdt.h ****   INTERRUPTION) HOWEVER CAUSED AND ON ANY THEORY OF LIABILITY, WHETHER IN
  28:/usr/local/Cellar/avr-gcc@8/8.4.0/avr/include/avr/wdt.h ****   CONTRACT, STRICT LIABILITY, OR TORT (INCLUDING NEGLIGENCE OR OTHERWISE)
  29:/usr/local/Cellar/avr-gcc@8/8.4.0/avr/include/avr/wdt.h ****   ARISING IN ANY WAY OUT OF THE USE OF THIS SOFTWARE, EVEN IF ADVISED OF THE
  30:/usr/local/Cellar/avr-gcc@8/8.4.0/avr/include/avr/wdt.h ****   POSSIBILITY OF SUCH DAMAGE. */
  31:/usr/local/Cellar/avr-gcc@8/8.4.0/avr/include/avr/wdt.h **** 
  32:/usr/local/Cellar/avr-gcc@8/8.4.0/avr/include/avr/wdt.h **** /* $Id: wdt.h 2503 2016-02-07 22:59:47Z joerg_wunsch $ */
  33:/usr/local/Cellar/avr-gcc@8/8.4.0/avr/include/avr/wdt.h **** 
  34:/usr/local/Cellar/avr-gcc@8/8.4.0/avr/include/avr/wdt.h **** /*
  35:/usr/local/Cellar/avr-gcc@8/8.4.0/avr/include/avr/wdt.h ****    avr/wdt.h - macros for AVR watchdog timer
  36:/usr/local/Cellar/avr-gcc@8/8.4.0/avr/include/avr/wdt.h ****  */
  37:/usr/local/Cellar/avr-gcc@8/8.4.0/avr/include/avr/wdt.h **** 
  38:/usr/local/Cellar/avr-gcc@8/8.4.0/avr/include/avr/wdt.h **** #ifndef _AVR_WDT_H_
  39:/usr/local/Cellar/avr-gcc@8/8.4.0/avr/include/avr/wdt.h **** #define _AVR_WDT_H_
  40:/usr/local/Cellar/avr-gcc@8/8.4.0/avr/include/avr/wdt.h **** 
  41:/usr/local/Cellar/avr-gcc@8/8.4.0/avr/include/avr/wdt.h **** #include <avr/io.h>
  42:/usr/local/Cellar/avr-gcc@8/8.4.0/avr/include/avr/wdt.h **** #include <stdint.h>
  43:/usr/local/Cellar/avr-gcc@8/8.4.0/avr/include/avr/wdt.h **** 
  44:/usr/local/Cellar/avr-gcc@8/8.4.0/avr/include/avr/wdt.h **** /** \file */
  45:/usr/local/Cellar/avr-gcc@8/8.4.0/avr/include/avr/wdt.h **** /** \defgroup avr_watchdog <avr/wdt.h>: Watchdog timer handling
  46:/usr/local/Cellar/avr-gcc@8/8.4.0/avr/include/avr/wdt.h ****     \code #include <avr/wdt.h> \endcode
  47:/usr/local/Cellar/avr-gcc@8/8.4.0/avr/include/avr/wdt.h **** 
  48:/usr/local/Cellar/avr-gcc@8/8.4.0/avr/include/avr/wdt.h ****     This header file declares the interface to some inline macros
  49:/usr/local/Cellar/avr-gcc@8/8.4.0/avr/include/avr/wdt.h ****     handling the watchdog timer present in many AVR devices.  In order
  50:/usr/local/Cellar/avr-gcc@8/8.4.0/avr/include/avr/wdt.h ****     to prevent the watchdog timer configuration from being
  51:/usr/local/Cellar/avr-gcc@8/8.4.0/avr/include/avr/wdt.h ****     accidentally altered by a crashing application, a special timed
  52:/usr/local/Cellar/avr-gcc@8/8.4.0/avr/include/avr/wdt.h ****     sequence is required in order to change it.  The macros within
  53:/usr/local/Cellar/avr-gcc@8/8.4.0/avr/include/avr/wdt.h ****     this header file handle the required sequence automatically
  54:/usr/local/Cellar/avr-gcc@8/8.4.0/avr/include/avr/wdt.h ****     before changing any value.  Interrupts will be disabled during
  55:/usr/local/Cellar/avr-gcc@8/8.4.0/avr/include/avr/wdt.h ****     the manipulation.
  56:/usr/local/Cellar/avr-gcc@8/8.4.0/avr/include/avr/wdt.h **** 
  57:/usr/local/Cellar/avr-gcc@8/8.4.0/avr/include/avr/wdt.h ****     \note Depending on the fuse configuration of the particular
  58:/usr/local/Cellar/avr-gcc@8/8.4.0/avr/include/avr/wdt.h ****     device, further restrictions might apply, in particular it might
  59:/usr/local/Cellar/avr-gcc@8/8.4.0/avr/include/avr/wdt.h ****     be disallowed to turn off the watchdog timer.
  60:/usr/local/Cellar/avr-gcc@8/8.4.0/avr/include/avr/wdt.h **** 
  61:/usr/local/Cellar/avr-gcc@8/8.4.0/avr/include/avr/wdt.h ****     Note that for newer devices (ATmega88 and newer, effectively any
  62:/usr/local/Cellar/avr-gcc@8/8.4.0/avr/include/avr/wdt.h ****     AVR that has the option to also generate interrupts), the watchdog
  63:/usr/local/Cellar/avr-gcc@8/8.4.0/avr/include/avr/wdt.h ****     timer remains active even after a system reset (except a power-on
  64:/usr/local/Cellar/avr-gcc@8/8.4.0/avr/include/avr/wdt.h ****     condition), using the fastest prescaler value (approximately 15
  65:/usr/local/Cellar/avr-gcc@8/8.4.0/avr/include/avr/wdt.h ****     ms).  It is therefore required to turn off the watchdog early
  66:/usr/local/Cellar/avr-gcc@8/8.4.0/avr/include/avr/wdt.h ****     during program startup, the datasheet recommends a sequence like
  67:/usr/local/Cellar/avr-gcc@8/8.4.0/avr/include/avr/wdt.h ****     the following:
  68:/usr/local/Cellar/avr-gcc@8/8.4.0/avr/include/avr/wdt.h **** 
  69:/usr/local/Cellar/avr-gcc@8/8.4.0/avr/include/avr/wdt.h ****     \code
  70:/usr/local/Cellar/avr-gcc@8/8.4.0/avr/include/avr/wdt.h ****     #include <stdint.h>
  71:/usr/local/Cellar/avr-gcc@8/8.4.0/avr/include/avr/wdt.h ****     #include <avr/wdt.h>
  72:/usr/local/Cellar/avr-gcc@8/8.4.0/avr/include/avr/wdt.h **** 
  73:/usr/local/Cellar/avr-gcc@8/8.4.0/avr/include/avr/wdt.h ****     uint8_t mcusr_mirror __attribute__ ((section (".noinit")));
  74:/usr/local/Cellar/avr-gcc@8/8.4.0/avr/include/avr/wdt.h **** 
  75:/usr/local/Cellar/avr-gcc@8/8.4.0/avr/include/avr/wdt.h ****     void get_mcusr(void) \
  76:/usr/local/Cellar/avr-gcc@8/8.4.0/avr/include/avr/wdt.h ****       __attribute__((naked)) \
  77:/usr/local/Cellar/avr-gcc@8/8.4.0/avr/include/avr/wdt.h ****       __attribute__((section(".init3")));
  78:/usr/local/Cellar/avr-gcc@8/8.4.0/avr/include/avr/wdt.h ****     void get_mcusr(void)
  79:/usr/local/Cellar/avr-gcc@8/8.4.0/avr/include/avr/wdt.h ****     {
  80:/usr/local/Cellar/avr-gcc@8/8.4.0/avr/include/avr/wdt.h ****       mcusr_mirror = MCUSR;
  81:/usr/local/Cellar/avr-gcc@8/8.4.0/avr/include/avr/wdt.h ****       MCUSR = 0;
  82:/usr/local/Cellar/avr-gcc@8/8.4.0/avr/include/avr/wdt.h ****       wdt_disable();
  83:/usr/local/Cellar/avr-gcc@8/8.4.0/avr/include/avr/wdt.h ****     }
  84:/usr/local/Cellar/avr-gcc@8/8.4.0/avr/include/avr/wdt.h ****     \endcode
  85:/usr/local/Cellar/avr-gcc@8/8.4.0/avr/include/avr/wdt.h **** 
  86:/usr/local/Cellar/avr-gcc@8/8.4.0/avr/include/avr/wdt.h ****     Saving the value of MCUSR in \c mcusr_mirror is only needed if the
  87:/usr/local/Cellar/avr-gcc@8/8.4.0/avr/include/avr/wdt.h ****     application later wants to examine the reset source, but in particular, 
  88:/usr/local/Cellar/avr-gcc@8/8.4.0/avr/include/avr/wdt.h ****     clearing the watchdog reset flag before disabling the
  89:/usr/local/Cellar/avr-gcc@8/8.4.0/avr/include/avr/wdt.h ****     watchdog is required, according to the datasheet.
  90:/usr/local/Cellar/avr-gcc@8/8.4.0/avr/include/avr/wdt.h **** */
  91:/usr/local/Cellar/avr-gcc@8/8.4.0/avr/include/avr/wdt.h **** 
  92:/usr/local/Cellar/avr-gcc@8/8.4.0/avr/include/avr/wdt.h **** /**
  93:/usr/local/Cellar/avr-gcc@8/8.4.0/avr/include/avr/wdt.h ****    \ingroup avr_watchdog
  94:/usr/local/Cellar/avr-gcc@8/8.4.0/avr/include/avr/wdt.h ****    Reset the watchdog timer.  When the watchdog timer is enabled,
  95:/usr/local/Cellar/avr-gcc@8/8.4.0/avr/include/avr/wdt.h ****    a call to this instruction is required before the timer expires,
  96:/usr/local/Cellar/avr-gcc@8/8.4.0/avr/include/avr/wdt.h ****    otherwise a watchdog-initiated device reset will occur. 
  97:/usr/local/Cellar/avr-gcc@8/8.4.0/avr/include/avr/wdt.h **** */
  98:/usr/local/Cellar/avr-gcc@8/8.4.0/avr/include/avr/wdt.h **** 
  99:/usr/local/Cellar/avr-gcc@8/8.4.0/avr/include/avr/wdt.h **** #define wdt_reset() __asm__ __volatile__ ("wdr")
 100:/usr/local/Cellar/avr-gcc@8/8.4.0/avr/include/avr/wdt.h **** 
 101:/usr/local/Cellar/avr-gcc@8/8.4.0/avr/include/avr/wdt.h **** #ifndef __DOXYGEN__
 102:/usr/local/Cellar/avr-gcc@8/8.4.0/avr/include/avr/wdt.h **** 
 103:/usr/local/Cellar/avr-gcc@8/8.4.0/avr/include/avr/wdt.h **** #if defined(WDP3)
 104:/usr/local/Cellar/avr-gcc@8/8.4.0/avr/include/avr/wdt.h **** # define _WD_PS3_MASK       _BV(WDP3)
 105:/usr/local/Cellar/avr-gcc@8/8.4.0/avr/include/avr/wdt.h **** #else
 106:/usr/local/Cellar/avr-gcc@8/8.4.0/avr/include/avr/wdt.h **** # define _WD_PS3_MASK       0x00
 107:/usr/local/Cellar/avr-gcc@8/8.4.0/avr/include/avr/wdt.h **** #endif
 108:/usr/local/Cellar/avr-gcc@8/8.4.0/avr/include/avr/wdt.h **** 
 109:/usr/local/Cellar/avr-gcc@8/8.4.0/avr/include/avr/wdt.h **** #if defined(WDTCSR)
 110:/usr/local/Cellar/avr-gcc@8/8.4.0/avr/include/avr/wdt.h **** #  define _WD_CONTROL_REG     WDTCSR
 111:/usr/local/Cellar/avr-gcc@8/8.4.0/avr/include/avr/wdt.h **** #elif defined(WDTCR)
 112:/usr/local/Cellar/avr-gcc@8/8.4.0/avr/include/avr/wdt.h **** #  define _WD_CONTROL_REG     WDTCR
 113:/usr/local/Cellar/avr-gcc@8/8.4.0/avr/include/avr/wdt.h **** #else
 114:/usr/local/Cellar/avr-gcc@8/8.4.0/avr/include/avr/wdt.h **** #  define _WD_CONTROL_REG     WDT
 115:/usr/local/Cellar/avr-gcc@8/8.4.0/avr/include/avr/wdt.h **** #endif
 116:/usr/local/Cellar/avr-gcc@8/8.4.0/avr/include/avr/wdt.h **** 
 117:/usr/local/Cellar/avr-gcc@8/8.4.0/avr/include/avr/wdt.h **** #if defined(WDTOE)
 118:/usr/local/Cellar/avr-gcc@8/8.4.0/avr/include/avr/wdt.h **** #define _WD_CHANGE_BIT      WDTOE
 119:/usr/local/Cellar/avr-gcc@8/8.4.0/avr/include/avr/wdt.h **** #else
 120:/usr/local/Cellar/avr-gcc@8/8.4.0/avr/include/avr/wdt.h **** #define _WD_CHANGE_BIT      WDCE
 121:/usr/local/Cellar/avr-gcc@8/8.4.0/avr/include/avr/wdt.h **** #endif
 122:/usr/local/Cellar/avr-gcc@8/8.4.0/avr/include/avr/wdt.h **** 
 123:/usr/local/Cellar/avr-gcc@8/8.4.0/avr/include/avr/wdt.h **** #endif	/* !__DOXYGEN__ */
 124:/usr/local/Cellar/avr-gcc@8/8.4.0/avr/include/avr/wdt.h **** 
 125:/usr/local/Cellar/avr-gcc@8/8.4.0/avr/include/avr/wdt.h **** 
 126:/usr/local/Cellar/avr-gcc@8/8.4.0/avr/include/avr/wdt.h **** /**
 127:/usr/local/Cellar/avr-gcc@8/8.4.0/avr/include/avr/wdt.h ****    \ingroup avr_watchdog
 128:/usr/local/Cellar/avr-gcc@8/8.4.0/avr/include/avr/wdt.h ****    Enable the watchdog timer, configuring it for expiry after
 129:/usr/local/Cellar/avr-gcc@8/8.4.0/avr/include/avr/wdt.h ****    \c timeout (which is a combination of the \c WDP0 through
 130:/usr/local/Cellar/avr-gcc@8/8.4.0/avr/include/avr/wdt.h ****    \c WDP2 bits to write into the \c WDTCR register; For those devices 
 131:/usr/local/Cellar/avr-gcc@8/8.4.0/avr/include/avr/wdt.h ****    that have a \c WDTCSR register, it uses the combination of the \c WDP0 
 132:/usr/local/Cellar/avr-gcc@8/8.4.0/avr/include/avr/wdt.h ****    through \c WDP3 bits).
 133:/usr/local/Cellar/avr-gcc@8/8.4.0/avr/include/avr/wdt.h **** 
 134:/usr/local/Cellar/avr-gcc@8/8.4.0/avr/include/avr/wdt.h ****    See also the symbolic constants \c WDTO_15MS et al.
 135:/usr/local/Cellar/avr-gcc@8/8.4.0/avr/include/avr/wdt.h **** */
 136:/usr/local/Cellar/avr-gcc@8/8.4.0/avr/include/avr/wdt.h **** 
 137:/usr/local/Cellar/avr-gcc@8/8.4.0/avr/include/avr/wdt.h **** 
 138:/usr/local/Cellar/avr-gcc@8/8.4.0/avr/include/avr/wdt.h **** #if defined(__AVR_XMEGA__)
 139:/usr/local/Cellar/avr-gcc@8/8.4.0/avr/include/avr/wdt.h **** 
 140:/usr/local/Cellar/avr-gcc@8/8.4.0/avr/include/avr/wdt.h **** /*
 141:/usr/local/Cellar/avr-gcc@8/8.4.0/avr/include/avr/wdt.h ****    wdt_enable(timeout) for xmega devices
 142:/usr/local/Cellar/avr-gcc@8/8.4.0/avr/include/avr/wdt.h **** ** write signature (CCP_IOREG_gc) that enables change of protected I/O
 143:/usr/local/Cellar/avr-gcc@8/8.4.0/avr/include/avr/wdt.h ****    registers to the CCP register
 144:/usr/local/Cellar/avr-gcc@8/8.4.0/avr/include/avr/wdt.h **** ** At the same time,
 145:/usr/local/Cellar/avr-gcc@8/8.4.0/avr/include/avr/wdt.h ****    1) set WDT change enable (WDT_CEN_bm)
 146:/usr/local/Cellar/avr-gcc@8/8.4.0/avr/include/avr/wdt.h ****    2) enable WDT (WDT_ENABLE_bm)
 147:/usr/local/Cellar/avr-gcc@8/8.4.0/avr/include/avr/wdt.h ****    3) set timeout (timeout)
 148:/usr/local/Cellar/avr-gcc@8/8.4.0/avr/include/avr/wdt.h **** ** Synchronization starts when ENABLE bit of WDT is set. So, wait till it
 149:/usr/local/Cellar/avr-gcc@8/8.4.0/avr/include/avr/wdt.h ****    finishes (SYNCBUSY of STATUS register is automatically cleared after the
 150:/usr/local/Cellar/avr-gcc@8/8.4.0/avr/include/avr/wdt.h ****    sync is finished).
 151:/usr/local/Cellar/avr-gcc@8/8.4.0/avr/include/avr/wdt.h **** */
 152:/usr/local/Cellar/avr-gcc@8/8.4.0/avr/include/avr/wdt.h **** #define wdt_enable(timeout) \
 153:/usr/local/Cellar/avr-gcc@8/8.4.0/avr/include/avr/wdt.h **** do { \
 154:/usr/local/Cellar/avr-gcc@8/8.4.0/avr/include/avr/wdt.h **** uint8_t temp; \
 155:/usr/local/Cellar/avr-gcc@8/8.4.0/avr/include/avr/wdt.h **** __asm__ __volatile__ (         \
 156:/usr/local/Cellar/avr-gcc@8/8.4.0/avr/include/avr/wdt.h ****     "in __tmp_reg__, %[rampd]"              "\n\t" \
 157:/usr/local/Cellar/avr-gcc@8/8.4.0/avr/include/avr/wdt.h ****     "out %[rampd], __zero_reg__"            "\n\t" \
 158:/usr/local/Cellar/avr-gcc@8/8.4.0/avr/include/avr/wdt.h ****     "out %[ccp_reg], %[ioreg_cen_mask]"     "\n\t" \
 159:/usr/local/Cellar/avr-gcc@8/8.4.0/avr/include/avr/wdt.h ****     "sts %[wdt_reg], %[wdt_enable_timeout]" "\n\t" \
 160:/usr/local/Cellar/avr-gcc@8/8.4.0/avr/include/avr/wdt.h ****     "1:lds %[tmp], %[wdt_status_reg]"       "\n\t" \
 161:/usr/local/Cellar/avr-gcc@8/8.4.0/avr/include/avr/wdt.h ****     "sbrc %[tmp], %[wdt_syncbusy_bit]"      "\n\t" \
 162:/usr/local/Cellar/avr-gcc@8/8.4.0/avr/include/avr/wdt.h ****     "rjmp 1b"                               "\n\t" \
 163:/usr/local/Cellar/avr-gcc@8/8.4.0/avr/include/avr/wdt.h ****     "out %[rampd], __tmp_reg__"             "\n\t" \
 164:/usr/local/Cellar/avr-gcc@8/8.4.0/avr/include/avr/wdt.h ****     : [tmp]                "=r" (temp) \
 165:/usr/local/Cellar/avr-gcc@8/8.4.0/avr/include/avr/wdt.h ****     : [rampd]              "I" (_SFR_IO_ADDR(RAMPD)),      \
 166:/usr/local/Cellar/avr-gcc@8/8.4.0/avr/include/avr/wdt.h ****       [ccp_reg]            "I" (_SFR_IO_ADDR(CCP)),        \
 167:/usr/local/Cellar/avr-gcc@8/8.4.0/avr/include/avr/wdt.h ****       [ioreg_cen_mask]     "r" ((uint8_t)CCP_IOREG_gc),     \
 168:/usr/local/Cellar/avr-gcc@8/8.4.0/avr/include/avr/wdt.h ****       [wdt_reg]            "n" (_SFR_MEM_ADDR(WDT_CTRL)),   \
 169:/usr/local/Cellar/avr-gcc@8/8.4.0/avr/include/avr/wdt.h ****       [wdt_enable_timeout] "r" ((uint8_t)(WDT_CEN_bm | WDT_ENABLE_bm | timeout)), \
 170:/usr/local/Cellar/avr-gcc@8/8.4.0/avr/include/avr/wdt.h ****       [wdt_status_reg]     "n" (_SFR_MEM_ADDR(WDT_STATUS)), \
 171:/usr/local/Cellar/avr-gcc@8/8.4.0/avr/include/avr/wdt.h ****       [wdt_syncbusy_bit]   "I" (WDT_SYNCBUSY_bm)            \
 172:/usr/local/Cellar/avr-gcc@8/8.4.0/avr/include/avr/wdt.h ****     : "r0" \
 173:/usr/local/Cellar/avr-gcc@8/8.4.0/avr/include/avr/wdt.h **** ); \
 174:/usr/local/Cellar/avr-gcc@8/8.4.0/avr/include/avr/wdt.h **** } while(0)
 175:/usr/local/Cellar/avr-gcc@8/8.4.0/avr/include/avr/wdt.h **** 
 176:/usr/local/Cellar/avr-gcc@8/8.4.0/avr/include/avr/wdt.h **** #define wdt_disable() \
 177:/usr/local/Cellar/avr-gcc@8/8.4.0/avr/include/avr/wdt.h **** __asm__ __volatile__ (  \
 178:/usr/local/Cellar/avr-gcc@8/8.4.0/avr/include/avr/wdt.h ****     "in __tmp_reg__, %[rampd]"          "\n\t" \
 179:/usr/local/Cellar/avr-gcc@8/8.4.0/avr/include/avr/wdt.h ****     "out %[rampd], __zero_reg__"        "\n\t" \
 180:/usr/local/Cellar/avr-gcc@8/8.4.0/avr/include/avr/wdt.h ****     "out %[ccp_reg], %[ioreg_cen_mask]" "\n\t" \
 181:/usr/local/Cellar/avr-gcc@8/8.4.0/avr/include/avr/wdt.h ****     "sts %[wdt_reg], %[disable_mask]"   "\n\t" \
 182:/usr/local/Cellar/avr-gcc@8/8.4.0/avr/include/avr/wdt.h ****     "out %[rampd], __tmp_reg__"         "\n\t" \
 183:/usr/local/Cellar/avr-gcc@8/8.4.0/avr/include/avr/wdt.h ****     : \
 184:/usr/local/Cellar/avr-gcc@8/8.4.0/avr/include/avr/wdt.h ****     : [rampd]             "I" (_SFR_IO_ADDR(RAMPD)),    \
 185:/usr/local/Cellar/avr-gcc@8/8.4.0/avr/include/avr/wdt.h ****       [ccp_reg]           "I" (_SFR_IO_ADDR(CCP)),      \
 186:/usr/local/Cellar/avr-gcc@8/8.4.0/avr/include/avr/wdt.h ****       [ioreg_cen_mask]    "r" ((uint8_t)CCP_IOREG_gc),   \
 187:/usr/local/Cellar/avr-gcc@8/8.4.0/avr/include/avr/wdt.h ****       [wdt_reg]           "n" (_SFR_MEM_ADDR(WDT_CTRL)), \
 188:/usr/local/Cellar/avr-gcc@8/8.4.0/avr/include/avr/wdt.h ****       [disable_mask]      "r" ((uint8_t)((~WDT_ENABLE_bm) | WDT_CEN_bm)) \
 189:/usr/local/Cellar/avr-gcc@8/8.4.0/avr/include/avr/wdt.h ****     : "r0" \
 190:/usr/local/Cellar/avr-gcc@8/8.4.0/avr/include/avr/wdt.h **** );
 191:/usr/local/Cellar/avr-gcc@8/8.4.0/avr/include/avr/wdt.h **** 
 192:/usr/local/Cellar/avr-gcc@8/8.4.0/avr/include/avr/wdt.h **** #elif defined(__AVR_TINY__)
 193:/usr/local/Cellar/avr-gcc@8/8.4.0/avr/include/avr/wdt.h **** 
 194:/usr/local/Cellar/avr-gcc@8/8.4.0/avr/include/avr/wdt.h **** #define wdt_enable(value) \
 195:/usr/local/Cellar/avr-gcc@8/8.4.0/avr/include/avr/wdt.h **** __asm__ __volatile__ ( \
 196:/usr/local/Cellar/avr-gcc@8/8.4.0/avr/include/avr/wdt.h ****     "in __tmp_reg__,__SREG__" "\n\t"  \
 197:/usr/local/Cellar/avr-gcc@8/8.4.0/avr/include/avr/wdt.h ****     "cli" "\n\t"  \
 198:/usr/local/Cellar/avr-gcc@8/8.4.0/avr/include/avr/wdt.h ****     "wdr" "\n\t"  \
 199:/usr/local/Cellar/avr-gcc@8/8.4.0/avr/include/avr/wdt.h ****     "out %[CCPADDRESS],%[SIGNATURE]" "\n\t"  \
 200:/usr/local/Cellar/avr-gcc@8/8.4.0/avr/include/avr/wdt.h ****     "out %[WDTREG],%[WDVALUE]" "\n\t"  \
 201:/usr/local/Cellar/avr-gcc@8/8.4.0/avr/include/avr/wdt.h ****     "out __SREG__,__tmp_reg__" "\n\t"  \
 202:/usr/local/Cellar/avr-gcc@8/8.4.0/avr/include/avr/wdt.h ****     : /* no outputs */  \
 203:/usr/local/Cellar/avr-gcc@8/8.4.0/avr/include/avr/wdt.h ****     : [CCPADDRESS] "I" (_SFR_IO_ADDR(CCP)),  \
 204:/usr/local/Cellar/avr-gcc@8/8.4.0/avr/include/avr/wdt.h ****       [SIGNATURE] "r" ((uint8_t)0xD8), \
 205:/usr/local/Cellar/avr-gcc@8/8.4.0/avr/include/avr/wdt.h ****       [WDTREG] "I" (_SFR_IO_ADDR(_WD_CONTROL_REG)), \
 206:/usr/local/Cellar/avr-gcc@8/8.4.0/avr/include/avr/wdt.h ****       [WDVALUE] "r" ((uint8_t)((value & 0x08 ? _WD_PS3_MASK : 0x00) \
 207:/usr/local/Cellar/avr-gcc@8/8.4.0/avr/include/avr/wdt.h ****       | _BV(WDE) | (value & 0x07) )) \
 208:/usr/local/Cellar/avr-gcc@8/8.4.0/avr/include/avr/wdt.h ****     : "r16" \
 209:/usr/local/Cellar/avr-gcc@8/8.4.0/avr/include/avr/wdt.h **** )
 210:/usr/local/Cellar/avr-gcc@8/8.4.0/avr/include/avr/wdt.h **** 
 211:/usr/local/Cellar/avr-gcc@8/8.4.0/avr/include/avr/wdt.h **** #define wdt_disable() \
 212:/usr/local/Cellar/avr-gcc@8/8.4.0/avr/include/avr/wdt.h **** do { \
 213:/usr/local/Cellar/avr-gcc@8/8.4.0/avr/include/avr/wdt.h **** uint8_t temp_wd; \
 214:/usr/local/Cellar/avr-gcc@8/8.4.0/avr/include/avr/wdt.h **** __asm__ __volatile__ ( \
 215:/usr/local/Cellar/avr-gcc@8/8.4.0/avr/include/avr/wdt.h ****     "in __tmp_reg__,__SREG__" "\n\t"  \
 216:/usr/local/Cellar/avr-gcc@8/8.4.0/avr/include/avr/wdt.h ****     "cli" "\n\t"  \
 217:/usr/local/Cellar/avr-gcc@8/8.4.0/avr/include/avr/wdt.h ****     "wdr" "\n\t"  \
 218:/usr/local/Cellar/avr-gcc@8/8.4.0/avr/include/avr/wdt.h ****     "out %[CCPADDRESS],%[SIGNATURE]" "\n\t"  \
 219:/usr/local/Cellar/avr-gcc@8/8.4.0/avr/include/avr/wdt.h ****     "in  %[TEMP_WD],%[WDTREG]" "\n\t" \
 220:/usr/local/Cellar/avr-gcc@8/8.4.0/avr/include/avr/wdt.h ****     "cbr %[TEMP_WD],%[WDVALUE]" "\n\t" \
 221:/usr/local/Cellar/avr-gcc@8/8.4.0/avr/include/avr/wdt.h ****     "out %[WDTREG],%[TEMP_WD]" "\n\t" \
 222:/usr/local/Cellar/avr-gcc@8/8.4.0/avr/include/avr/wdt.h ****     "out __SREG__,__tmp_reg__" "\n\t" \
 223:/usr/local/Cellar/avr-gcc@8/8.4.0/avr/include/avr/wdt.h ****     : /*no output */ \
 224:/usr/local/Cellar/avr-gcc@8/8.4.0/avr/include/avr/wdt.h ****     : [CCPADDRESS] "I" (_SFR_IO_ADDR(CCP)), \
 225:/usr/local/Cellar/avr-gcc@8/8.4.0/avr/include/avr/wdt.h ****       [SIGNATURE] "r" ((uint8_t)0xD8), \
 226:/usr/local/Cellar/avr-gcc@8/8.4.0/avr/include/avr/wdt.h ****       [WDTREG] "I" (_SFR_IO_ADDR(_WD_CONTROL_REG)), \
 227:/usr/local/Cellar/avr-gcc@8/8.4.0/avr/include/avr/wdt.h ****       [TEMP_WD] "d" (temp_wd), \
 228:/usr/local/Cellar/avr-gcc@8/8.4.0/avr/include/avr/wdt.h ****       [WDVALUE] "n" (1 << WDE) \
 229:/usr/local/Cellar/avr-gcc@8/8.4.0/avr/include/avr/wdt.h ****     : "r16" \
 230:/usr/local/Cellar/avr-gcc@8/8.4.0/avr/include/avr/wdt.h **** ); \
 231:/usr/local/Cellar/avr-gcc@8/8.4.0/avr/include/avr/wdt.h **** }while(0)
 232:/usr/local/Cellar/avr-gcc@8/8.4.0/avr/include/avr/wdt.h **** 
 233:/usr/local/Cellar/avr-gcc@8/8.4.0/avr/include/avr/wdt.h **** #elif defined(CCP)
 234:/usr/local/Cellar/avr-gcc@8/8.4.0/avr/include/avr/wdt.h **** 
 235:/usr/local/Cellar/avr-gcc@8/8.4.0/avr/include/avr/wdt.h **** static __inline__
 236:/usr/local/Cellar/avr-gcc@8/8.4.0/avr/include/avr/wdt.h **** __attribute__ ((__always_inline__))
 237:/usr/local/Cellar/avr-gcc@8/8.4.0/avr/include/avr/wdt.h **** void wdt_enable (const uint8_t value)
 238:/usr/local/Cellar/avr-gcc@8/8.4.0/avr/include/avr/wdt.h **** {
 239:/usr/local/Cellar/avr-gcc@8/8.4.0/avr/include/avr/wdt.h **** 	if (!_SFR_IO_REG_P (CCP) && !_SFR_IO_REG_P (_WD_CONTROL_REG))
 240:/usr/local/Cellar/avr-gcc@8/8.4.0/avr/include/avr/wdt.h **** 	{
 241:/usr/local/Cellar/avr-gcc@8/8.4.0/avr/include/avr/wdt.h **** 		__asm__ __volatile__ (
 242:/usr/local/Cellar/avr-gcc@8/8.4.0/avr/include/avr/wdt.h **** 			"in __tmp_reg__,__SREG__" "\n\t"
 243:/usr/local/Cellar/avr-gcc@8/8.4.0/avr/include/avr/wdt.h **** 			"cli" "\n\t"
 244:/usr/local/Cellar/avr-gcc@8/8.4.0/avr/include/avr/wdt.h **** 			"wdr" "\n\t"
 245:/usr/local/Cellar/avr-gcc@8/8.4.0/avr/include/avr/wdt.h **** 			"sts %[CCPADDRESS],%[SIGNATURE]" "\n\t"
 246:/usr/local/Cellar/avr-gcc@8/8.4.0/avr/include/avr/wdt.h **** 			"sts %[WDTREG],%[WDVALUE]" "\n\t"
 247:/usr/local/Cellar/avr-gcc@8/8.4.0/avr/include/avr/wdt.h **** 			"out __SREG__,__tmp_reg__" "\n\t"
 248:/usr/local/Cellar/avr-gcc@8/8.4.0/avr/include/avr/wdt.h **** 			: /* no outputs */
 249:/usr/local/Cellar/avr-gcc@8/8.4.0/avr/include/avr/wdt.h **** 			: [CCPADDRESS] "n" (_SFR_MEM_ADDR(CCP)),
 250:/usr/local/Cellar/avr-gcc@8/8.4.0/avr/include/avr/wdt.h **** 			[SIGNATURE] "r" ((uint8_t)0xD8),
 251:/usr/local/Cellar/avr-gcc@8/8.4.0/avr/include/avr/wdt.h **** 			[WDTREG] "n" (_SFR_MEM_ADDR(_WD_CONTROL_REG)),
 252:/usr/local/Cellar/avr-gcc@8/8.4.0/avr/include/avr/wdt.h **** 			[WDVALUE] "r" ((uint8_t)((value & 0x08 ? _WD_PS3_MASK : 0x00)
 253:/usr/local/Cellar/avr-gcc@8/8.4.0/avr/include/avr/wdt.h **** 				| _BV(WDE) | (value & 0x07) ))
 254:/usr/local/Cellar/avr-gcc@8/8.4.0/avr/include/avr/wdt.h **** 			: "r0"
 255:/usr/local/Cellar/avr-gcc@8/8.4.0/avr/include/avr/wdt.h **** 			);
 256:/usr/local/Cellar/avr-gcc@8/8.4.0/avr/include/avr/wdt.h **** 	}
 257:/usr/local/Cellar/avr-gcc@8/8.4.0/avr/include/avr/wdt.h **** 	else if (!_SFR_IO_REG_P (CCP) && _SFR_IO_REG_P (_WD_CONTROL_REG))
 258:/usr/local/Cellar/avr-gcc@8/8.4.0/avr/include/avr/wdt.h **** 	{
 259:/usr/local/Cellar/avr-gcc@8/8.4.0/avr/include/avr/wdt.h **** 		__asm__ __volatile__ (
 260:/usr/local/Cellar/avr-gcc@8/8.4.0/avr/include/avr/wdt.h **** 			"in __tmp_reg__,__SREG__" "\n\t"
 261:/usr/local/Cellar/avr-gcc@8/8.4.0/avr/include/avr/wdt.h **** 			"cli" "\n\t"
 262:/usr/local/Cellar/avr-gcc@8/8.4.0/avr/include/avr/wdt.h **** 			"wdr" "\n\t"
 263:/usr/local/Cellar/avr-gcc@8/8.4.0/avr/include/avr/wdt.h **** 			"sts %[CCPADDRESS],%[SIGNATURE]" "\n\t"
 264:/usr/local/Cellar/avr-gcc@8/8.4.0/avr/include/avr/wdt.h **** 			"out %[WDTREG],%[WDVALUE]" "\n\t"
 265:/usr/local/Cellar/avr-gcc@8/8.4.0/avr/include/avr/wdt.h **** 			"out __SREG__,__tmp_reg__" "\n\t"
 266:/usr/local/Cellar/avr-gcc@8/8.4.0/avr/include/avr/wdt.h **** 			: /* no outputs */
 267:/usr/local/Cellar/avr-gcc@8/8.4.0/avr/include/avr/wdt.h **** 			: [CCPADDRESS] "n" (_SFR_MEM_ADDR(CCP)),
 268:/usr/local/Cellar/avr-gcc@8/8.4.0/avr/include/avr/wdt.h **** 			[SIGNATURE] "r" ((uint8_t)0xD8),
 269:/usr/local/Cellar/avr-gcc@8/8.4.0/avr/include/avr/wdt.h **** 			[WDTREG] "I" (_SFR_IO_ADDR(_WD_CONTROL_REG)),
 270:/usr/local/Cellar/avr-gcc@8/8.4.0/avr/include/avr/wdt.h **** 			[WDVALUE] "r" ((uint8_t)((value & 0x08 ? _WD_PS3_MASK : 0x00)
 271:/usr/local/Cellar/avr-gcc@8/8.4.0/avr/include/avr/wdt.h **** 				| _BV(WDE) | (value & 0x07) ))
 272:/usr/local/Cellar/avr-gcc@8/8.4.0/avr/include/avr/wdt.h **** 			: "r0"
 273:/usr/local/Cellar/avr-gcc@8/8.4.0/avr/include/avr/wdt.h **** 			);
 274:/usr/local/Cellar/avr-gcc@8/8.4.0/avr/include/avr/wdt.h **** 	}
 275:/usr/local/Cellar/avr-gcc@8/8.4.0/avr/include/avr/wdt.h **** 	else if (_SFR_IO_REG_P (CCP) && !_SFR_IO_REG_P (_WD_CONTROL_REG))
 276:/usr/local/Cellar/avr-gcc@8/8.4.0/avr/include/avr/wdt.h **** 	{
 277:/usr/local/Cellar/avr-gcc@8/8.4.0/avr/include/avr/wdt.h **** 		__asm__ __volatile__ (
 278:/usr/local/Cellar/avr-gcc@8/8.4.0/avr/include/avr/wdt.h **** 			"in __tmp_reg__,__SREG__" "\n\t"
 279:/usr/local/Cellar/avr-gcc@8/8.4.0/avr/include/avr/wdt.h **** 			"cli" "\n\t"
 280:/usr/local/Cellar/avr-gcc@8/8.4.0/avr/include/avr/wdt.h **** 			"wdr" "\n\t"
 281:/usr/local/Cellar/avr-gcc@8/8.4.0/avr/include/avr/wdt.h **** 			"out %[CCPADDRESS],%[SIGNATURE]" "\n\t"
 282:/usr/local/Cellar/avr-gcc@8/8.4.0/avr/include/avr/wdt.h **** 			"sts %[WDTREG],%[WDVALUE]" "\n\t"
 283:/usr/local/Cellar/avr-gcc@8/8.4.0/avr/include/avr/wdt.h **** 			"out __SREG__,__tmp_reg__" "\n\t"
 284:/usr/local/Cellar/avr-gcc@8/8.4.0/avr/include/avr/wdt.h **** 			: /* no outputs */
 285:/usr/local/Cellar/avr-gcc@8/8.4.0/avr/include/avr/wdt.h **** 			: [CCPADDRESS] "I" (_SFR_IO_ADDR(CCP)),
 286:/usr/local/Cellar/avr-gcc@8/8.4.0/avr/include/avr/wdt.h **** 			[SIGNATURE] "r" ((uint8_t)0xD8),
 287:/usr/local/Cellar/avr-gcc@8/8.4.0/avr/include/avr/wdt.h **** 			[WDTREG] "n" (_SFR_MEM_ADDR(_WD_CONTROL_REG)),
 288:/usr/local/Cellar/avr-gcc@8/8.4.0/avr/include/avr/wdt.h **** 			[WDVALUE] "r" ((uint8_t)((value & 0x08 ? _WD_PS3_MASK : 0x00)
 289:/usr/local/Cellar/avr-gcc@8/8.4.0/avr/include/avr/wdt.h **** 				| _BV(WDE) | (value & 0x07) ))
 290:/usr/local/Cellar/avr-gcc@8/8.4.0/avr/include/avr/wdt.h **** 			: "r0"
 291:/usr/local/Cellar/avr-gcc@8/8.4.0/avr/include/avr/wdt.h **** 			);
 292:/usr/local/Cellar/avr-gcc@8/8.4.0/avr/include/avr/wdt.h **** 	}
 293:/usr/local/Cellar/avr-gcc@8/8.4.0/avr/include/avr/wdt.h **** 	else
 294:/usr/local/Cellar/avr-gcc@8/8.4.0/avr/include/avr/wdt.h ****  	{
 295:/usr/local/Cellar/avr-gcc@8/8.4.0/avr/include/avr/wdt.h **** 		__asm__ __volatile__ (
 296:/usr/local/Cellar/avr-gcc@8/8.4.0/avr/include/avr/wdt.h **** 			"in __tmp_reg__,__SREG__" "\n\t"
 297:/usr/local/Cellar/avr-gcc@8/8.4.0/avr/include/avr/wdt.h **** 			"cli" "\n\t"
 298:/usr/local/Cellar/avr-gcc@8/8.4.0/avr/include/avr/wdt.h **** 			"wdr" "\n\t"
 299:/usr/local/Cellar/avr-gcc@8/8.4.0/avr/include/avr/wdt.h **** 			"out %[CCPADDRESS],%[SIGNATURE]" "\n\t"
 300:/usr/local/Cellar/avr-gcc@8/8.4.0/avr/include/avr/wdt.h **** 			"out %[WDTREG],%[WDVALUE]" "\n\t"
 301:/usr/local/Cellar/avr-gcc@8/8.4.0/avr/include/avr/wdt.h **** 			"out __SREG__,__tmp_reg__" "\n\t"
 302:/usr/local/Cellar/avr-gcc@8/8.4.0/avr/include/avr/wdt.h **** 			: /* no outputs */
 303:/usr/local/Cellar/avr-gcc@8/8.4.0/avr/include/avr/wdt.h **** 			: [CCPADDRESS] "I" (_SFR_IO_ADDR(CCP)),
 304:/usr/local/Cellar/avr-gcc@8/8.4.0/avr/include/avr/wdt.h **** 			[SIGNATURE] "r" ((uint8_t)0xD8),
 305:/usr/local/Cellar/avr-gcc@8/8.4.0/avr/include/avr/wdt.h **** 			[WDTREG] "I" (_SFR_IO_ADDR(_WD_CONTROL_REG)),
 306:/usr/local/Cellar/avr-gcc@8/8.4.0/avr/include/avr/wdt.h **** 			[WDVALUE] "r" ((uint8_t)((value & 0x08 ? _WD_PS3_MASK : 0x00)
 307:/usr/local/Cellar/avr-gcc@8/8.4.0/avr/include/avr/wdt.h **** 				| _BV(WDE) | (value & 0x07) ))
 308:/usr/local/Cellar/avr-gcc@8/8.4.0/avr/include/avr/wdt.h **** 			: "r0"
 309:/usr/local/Cellar/avr-gcc@8/8.4.0/avr/include/avr/wdt.h **** 			);
 310:/usr/local/Cellar/avr-gcc@8/8.4.0/avr/include/avr/wdt.h **** 	}
 311:/usr/local/Cellar/avr-gcc@8/8.4.0/avr/include/avr/wdt.h **** }
 312:/usr/local/Cellar/avr-gcc@8/8.4.0/avr/include/avr/wdt.h **** 
 313:/usr/local/Cellar/avr-gcc@8/8.4.0/avr/include/avr/wdt.h **** static __inline__
 314:/usr/local/Cellar/avr-gcc@8/8.4.0/avr/include/avr/wdt.h **** __attribute__ ((__always_inline__))
 315:/usr/local/Cellar/avr-gcc@8/8.4.0/avr/include/avr/wdt.h **** void wdt_disable (void)
 316:/usr/local/Cellar/avr-gcc@8/8.4.0/avr/include/avr/wdt.h **** {
 317:/usr/local/Cellar/avr-gcc@8/8.4.0/avr/include/avr/wdt.h **** 	if (!_SFR_IO_REG_P (CCP) && !_SFR_IO_REG_P(_WD_CONTROL_REG))
 318:/usr/local/Cellar/avr-gcc@8/8.4.0/avr/include/avr/wdt.h **** 	{
 319:/usr/local/Cellar/avr-gcc@8/8.4.0/avr/include/avr/wdt.h ****         uint8_t temp_wd;
 320:/usr/local/Cellar/avr-gcc@8/8.4.0/avr/include/avr/wdt.h ****         __asm__ __volatile__ (
 321:/usr/local/Cellar/avr-gcc@8/8.4.0/avr/include/avr/wdt.h **** 				"in __tmp_reg__,__SREG__" "\n\t"
 322:/usr/local/Cellar/avr-gcc@8/8.4.0/avr/include/avr/wdt.h **** 				"cli" "\n\t"
 323:/usr/local/Cellar/avr-gcc@8/8.4.0/avr/include/avr/wdt.h **** 				"wdr" "\n\t"
 324:/usr/local/Cellar/avr-gcc@8/8.4.0/avr/include/avr/wdt.h **** 				"sts %[CCPADDRESS],%[SIGNATURE]" "\n\t"
 325:/usr/local/Cellar/avr-gcc@8/8.4.0/avr/include/avr/wdt.h **** 				"lds %[TEMP_WD],%[WDTREG]" "\n\t"
 326:/usr/local/Cellar/avr-gcc@8/8.4.0/avr/include/avr/wdt.h **** 				"cbr %[TEMP_WD],%[WDVALUE]" "\n\t"
 327:/usr/local/Cellar/avr-gcc@8/8.4.0/avr/include/avr/wdt.h **** 				"sts %[WDTREG],%[TEMP_WD]" "\n\t"
 328:/usr/local/Cellar/avr-gcc@8/8.4.0/avr/include/avr/wdt.h **** 				"out __SREG__,__tmp_reg__" "\n\t"
 329:/usr/local/Cellar/avr-gcc@8/8.4.0/avr/include/avr/wdt.h **** 				: /*no output */
 330:/usr/local/Cellar/avr-gcc@8/8.4.0/avr/include/avr/wdt.h **** 				: [CCPADDRESS] "n" (_SFR_MEM_ADDR(CCP)),
 331:/usr/local/Cellar/avr-gcc@8/8.4.0/avr/include/avr/wdt.h **** 				[SIGNATURE] "r" ((uint8_t)0xD8),
 332:/usr/local/Cellar/avr-gcc@8/8.4.0/avr/include/avr/wdt.h **** 				[WDTREG] "n" (_SFR_MEM_ADDR(_WD_CONTROL_REG)),
 333:/usr/local/Cellar/avr-gcc@8/8.4.0/avr/include/avr/wdt.h **** 				[TEMP_WD] "d" (temp_wd),
 334:/usr/local/Cellar/avr-gcc@8/8.4.0/avr/include/avr/wdt.h **** 				[WDVALUE] "n" (1 << WDE)
 335:/usr/local/Cellar/avr-gcc@8/8.4.0/avr/include/avr/wdt.h **** 				: "r0"
 336:/usr/local/Cellar/avr-gcc@8/8.4.0/avr/include/avr/wdt.h **** 				);
 337:/usr/local/Cellar/avr-gcc@8/8.4.0/avr/include/avr/wdt.h **** 	}
 338:/usr/local/Cellar/avr-gcc@8/8.4.0/avr/include/avr/wdt.h **** 	else if (!_SFR_IO_REG_P (CCP) && _SFR_IO_REG_P(_WD_CONTROL_REG))
 339:/usr/local/Cellar/avr-gcc@8/8.4.0/avr/include/avr/wdt.h **** 	{
 340:/usr/local/Cellar/avr-gcc@8/8.4.0/avr/include/avr/wdt.h ****         uint8_t temp_wd;
 341:/usr/local/Cellar/avr-gcc@8/8.4.0/avr/include/avr/wdt.h ****         __asm__ __volatile__ (
 342:/usr/local/Cellar/avr-gcc@8/8.4.0/avr/include/avr/wdt.h **** 				"in __tmp_reg__,__SREG__" "\n\t"
 343:/usr/local/Cellar/avr-gcc@8/8.4.0/avr/include/avr/wdt.h **** 				"cli" "\n\t"
 344:/usr/local/Cellar/avr-gcc@8/8.4.0/avr/include/avr/wdt.h **** 				"wdr" "\n\t"
 345:/usr/local/Cellar/avr-gcc@8/8.4.0/avr/include/avr/wdt.h **** 				"sts %[CCPADDRESS],%[SIGNATURE]" "\n\t"
 346:/usr/local/Cellar/avr-gcc@8/8.4.0/avr/include/avr/wdt.h **** 				"in %[TEMP_WD],%[WDTREG]" "\n\t"
 347:/usr/local/Cellar/avr-gcc@8/8.4.0/avr/include/avr/wdt.h **** 				"cbr %[TEMP_WD],%[WDVALUE]" "\n\t"
 348:/usr/local/Cellar/avr-gcc@8/8.4.0/avr/include/avr/wdt.h **** 				"out %[WDTREG],%[TEMP_WD]" "\n\t"
 349:/usr/local/Cellar/avr-gcc@8/8.4.0/avr/include/avr/wdt.h **** 				"out __SREG__,__tmp_reg__" "\n\t"
 350:/usr/local/Cellar/avr-gcc@8/8.4.0/avr/include/avr/wdt.h **** 				: /*no output */
 351:/usr/local/Cellar/avr-gcc@8/8.4.0/avr/include/avr/wdt.h **** 				: [CCPADDRESS] "n" (_SFR_MEM_ADDR(CCP)),
 352:/usr/local/Cellar/avr-gcc@8/8.4.0/avr/include/avr/wdt.h **** 				[SIGNATURE] "r" ((uint8_t)0xD8),
 353:/usr/local/Cellar/avr-gcc@8/8.4.0/avr/include/avr/wdt.h **** 				[WDTREG] "I" (_SFR_IO_ADDR(_WD_CONTROL_REG)),
 354:/usr/local/Cellar/avr-gcc@8/8.4.0/avr/include/avr/wdt.h **** 				[TEMP_WD] "d" (temp_wd),
 355:/usr/local/Cellar/avr-gcc@8/8.4.0/avr/include/avr/wdt.h **** 				[WDVALUE] "n" (1 << WDE)
 356:/usr/local/Cellar/avr-gcc@8/8.4.0/avr/include/avr/wdt.h **** 				: "r0"
 357:/usr/local/Cellar/avr-gcc@8/8.4.0/avr/include/avr/wdt.h **** 				);
 358:/usr/local/Cellar/avr-gcc@8/8.4.0/avr/include/avr/wdt.h **** 	}
 359:/usr/local/Cellar/avr-gcc@8/8.4.0/avr/include/avr/wdt.h **** 	else if (_SFR_IO_REG_P (CCP) && !_SFR_IO_REG_P(_WD_CONTROL_REG))
 360:/usr/local/Cellar/avr-gcc@8/8.4.0/avr/include/avr/wdt.h **** 	{
 361:/usr/local/Cellar/avr-gcc@8/8.4.0/avr/include/avr/wdt.h ****         uint8_t temp_wd;
 362:/usr/local/Cellar/avr-gcc@8/8.4.0/avr/include/avr/wdt.h ****         __asm__ __volatile__ (
 363:/usr/local/Cellar/avr-gcc@8/8.4.0/avr/include/avr/wdt.h **** 				"in __tmp_reg__,__SREG__" "\n\t"
 364:/usr/local/Cellar/avr-gcc@8/8.4.0/avr/include/avr/wdt.h **** 				"cli" "\n\t"
 365:/usr/local/Cellar/avr-gcc@8/8.4.0/avr/include/avr/wdt.h **** 				"wdr" "\n\t"
 366:/usr/local/Cellar/avr-gcc@8/8.4.0/avr/include/avr/wdt.h **** 				"out %[CCPADDRESS],%[SIGNATURE]" "\n\t"
 367:/usr/local/Cellar/avr-gcc@8/8.4.0/avr/include/avr/wdt.h **** 				"lds %[TEMP_WD],%[WDTREG]" "\n\t"
 368:/usr/local/Cellar/avr-gcc@8/8.4.0/avr/include/avr/wdt.h **** 				"cbr %[TEMP_WD],%[WDVALUE]" "\n\t"
 369:/usr/local/Cellar/avr-gcc@8/8.4.0/avr/include/avr/wdt.h **** 				"sts %[WDTREG],%[TEMP_WD]" "\n\t"
 370:/usr/local/Cellar/avr-gcc@8/8.4.0/avr/include/avr/wdt.h **** 				"out __SREG__,__tmp_reg__" "\n\t"
 371:/usr/local/Cellar/avr-gcc@8/8.4.0/avr/include/avr/wdt.h **** 				: /*no output */
 372:/usr/local/Cellar/avr-gcc@8/8.4.0/avr/include/avr/wdt.h **** 				: [CCPADDRESS] "I" (_SFR_IO_ADDR(CCP)),
 373:/usr/local/Cellar/avr-gcc@8/8.4.0/avr/include/avr/wdt.h **** 				[SIGNATURE] "r" ((uint8_t)0xD8),
 374:/usr/local/Cellar/avr-gcc@8/8.4.0/avr/include/avr/wdt.h **** 				[WDTREG] "n" (_SFR_MEM_ADDR(_WD_CONTROL_REG)),
 375:/usr/local/Cellar/avr-gcc@8/8.4.0/avr/include/avr/wdt.h **** 				[TEMP_WD] "d" (temp_wd),
 376:/usr/local/Cellar/avr-gcc@8/8.4.0/avr/include/avr/wdt.h **** 				[WDVALUE] "n" (1 << WDE)
 377:/usr/local/Cellar/avr-gcc@8/8.4.0/avr/include/avr/wdt.h **** 				: "r0"
 378:/usr/local/Cellar/avr-gcc@8/8.4.0/avr/include/avr/wdt.h **** 				);
 379:/usr/local/Cellar/avr-gcc@8/8.4.0/avr/include/avr/wdt.h **** 	}
 380:/usr/local/Cellar/avr-gcc@8/8.4.0/avr/include/avr/wdt.h **** 	else
 381:/usr/local/Cellar/avr-gcc@8/8.4.0/avr/include/avr/wdt.h **** 	{
 382:/usr/local/Cellar/avr-gcc@8/8.4.0/avr/include/avr/wdt.h ****         uint8_t temp_wd;
 383:/usr/local/Cellar/avr-gcc@8/8.4.0/avr/include/avr/wdt.h ****         __asm__ __volatile__ (
 384:/usr/local/Cellar/avr-gcc@8/8.4.0/avr/include/avr/wdt.h **** 				"in __tmp_reg__,__SREG__" "\n\t"
 385:/usr/local/Cellar/avr-gcc@8/8.4.0/avr/include/avr/wdt.h **** 				"cli" "\n\t"
 386:/usr/local/Cellar/avr-gcc@8/8.4.0/avr/include/avr/wdt.h **** 				"wdr" "\n\t"
 387:/usr/local/Cellar/avr-gcc@8/8.4.0/avr/include/avr/wdt.h **** 				"out %[CCPADDRESS],%[SIGNATURE]" "\n\t"
 388:/usr/local/Cellar/avr-gcc@8/8.4.0/avr/include/avr/wdt.h **** 				"in %[TEMP_WD],%[WDTREG]" "\n\t"
 389:/usr/local/Cellar/avr-gcc@8/8.4.0/avr/include/avr/wdt.h **** 				"cbr %[TEMP_WD],%[WDVALUE]" "\n\t"
 390:/usr/local/Cellar/avr-gcc@8/8.4.0/avr/include/avr/wdt.h **** 				"out %[WDTREG],%[TEMP_WD]" "\n\t"
 391:/usr/local/Cellar/avr-gcc@8/8.4.0/avr/include/avr/wdt.h **** 				"out __SREG__,__tmp_reg__" "\n\t"
 392:/usr/local/Cellar/avr-gcc@8/8.4.0/avr/include/avr/wdt.h **** 				: /*no output */
 393:/usr/local/Cellar/avr-gcc@8/8.4.0/avr/include/avr/wdt.h **** 				: [CCPADDRESS] "I" (_SFR_IO_ADDR(CCP)),
 394:/usr/local/Cellar/avr-gcc@8/8.4.0/avr/include/avr/wdt.h **** 				[SIGNATURE] "r" ((uint8_t)0xD8),
 395:/usr/local/Cellar/avr-gcc@8/8.4.0/avr/include/avr/wdt.h **** 				[WDTREG] "I" (_SFR_IO_ADDR(_WD_CONTROL_REG)),
 396:/usr/local/Cellar/avr-gcc@8/8.4.0/avr/include/avr/wdt.h **** 				[TEMP_WD] "d" (temp_wd),
 397:/usr/local/Cellar/avr-gcc@8/8.4.0/avr/include/avr/wdt.h **** 				[WDVALUE] "n" (1 << WDE)
 398:/usr/local/Cellar/avr-gcc@8/8.4.0/avr/include/avr/wdt.h **** 				: "r0"
 399:/usr/local/Cellar/avr-gcc@8/8.4.0/avr/include/avr/wdt.h **** 				);
 400:/usr/local/Cellar/avr-gcc@8/8.4.0/avr/include/avr/wdt.h **** 	}
 401:/usr/local/Cellar/avr-gcc@8/8.4.0/avr/include/avr/wdt.h **** }
 402:/usr/local/Cellar/avr-gcc@8/8.4.0/avr/include/avr/wdt.h **** 
 403:/usr/local/Cellar/avr-gcc@8/8.4.0/avr/include/avr/wdt.h **** #else
 404:/usr/local/Cellar/avr-gcc@8/8.4.0/avr/include/avr/wdt.h **** 
 405:/usr/local/Cellar/avr-gcc@8/8.4.0/avr/include/avr/wdt.h **** static __inline__
 406:/usr/local/Cellar/avr-gcc@8/8.4.0/avr/include/avr/wdt.h **** __attribute__ ((__always_inline__))
 407:/usr/local/Cellar/avr-gcc@8/8.4.0/avr/include/avr/wdt.h **** void wdt_enable (const uint8_t value)
 408:/usr/local/Cellar/avr-gcc@8/8.4.0/avr/include/avr/wdt.h **** {
 409:/usr/local/Cellar/avr-gcc@8/8.4.0/avr/include/avr/wdt.h **** 	if (_SFR_IO_REG_P (_WD_CONTROL_REG))
 410:/usr/local/Cellar/avr-gcc@8/8.4.0/avr/include/avr/wdt.h **** 	{
 411:/usr/local/Cellar/avr-gcc@8/8.4.0/avr/include/avr/wdt.h **** 		__asm__ __volatile__ (
 412:/usr/local/Cellar/avr-gcc@8/8.4.0/avr/include/avr/wdt.h **** 				"in __tmp_reg__,__SREG__" "\n\t"
 413:/usr/local/Cellar/avr-gcc@8/8.4.0/avr/include/avr/wdt.h **** 				"cli" "\n\t"
 414:/usr/local/Cellar/avr-gcc@8/8.4.0/avr/include/avr/wdt.h **** 				"wdr" "\n\t"
 415:/usr/local/Cellar/avr-gcc@8/8.4.0/avr/include/avr/wdt.h **** 				"out %0, %1" "\n\t"
 416:/usr/local/Cellar/avr-gcc@8/8.4.0/avr/include/avr/wdt.h **** 				"out __SREG__,__tmp_reg__" "\n\t"
 417:/usr/local/Cellar/avr-gcc@8/8.4.0/avr/include/avr/wdt.h **** 				"out %0, %2" "\n \t"
 418:/usr/local/Cellar/avr-gcc@8/8.4.0/avr/include/avr/wdt.h **** 				: /* no outputs */
 419:/usr/local/Cellar/avr-gcc@8/8.4.0/avr/include/avr/wdt.h **** 				: "I" (_SFR_IO_ADDR(_WD_CONTROL_REG)),
 420:/usr/local/Cellar/avr-gcc@8/8.4.0/avr/include/avr/wdt.h **** 				"r" ((uint8_t)(_BV(_WD_CHANGE_BIT) | _BV(WDE))),
 421:/usr/local/Cellar/avr-gcc@8/8.4.0/avr/include/avr/wdt.h **** 				"r" ((uint8_t) ((value & 0x08 ? _WD_PS3_MASK : 0x00) |
 422:/usr/local/Cellar/avr-gcc@8/8.4.0/avr/include/avr/wdt.h **** 						_BV(WDE) | (value & 0x07)) )
 423:/usr/local/Cellar/avr-gcc@8/8.4.0/avr/include/avr/wdt.h **** 				: "r0"
 424:/usr/local/Cellar/avr-gcc@8/8.4.0/avr/include/avr/wdt.h **** 		);
 425:/usr/local/Cellar/avr-gcc@8/8.4.0/avr/include/avr/wdt.h **** 	}
 426:/usr/local/Cellar/avr-gcc@8/8.4.0/avr/include/avr/wdt.h **** 	else
 427:/usr/local/Cellar/avr-gcc@8/8.4.0/avr/include/avr/wdt.h **** 	{
 428:/usr/local/Cellar/avr-gcc@8/8.4.0/avr/include/avr/wdt.h **** 		__asm__ __volatile__ (
 429:/usr/local/Cellar/avr-gcc@8/8.4.0/avr/include/avr/wdt.h **** 				"in __tmp_reg__,__SREG__" "\n\t"
 430:/usr/local/Cellar/avr-gcc@8/8.4.0/avr/include/avr/wdt.h **** 				"cli" "\n\t"
 431:/usr/local/Cellar/avr-gcc@8/8.4.0/avr/include/avr/wdt.h **** 				"wdr" "\n\t"
 432:/usr/local/Cellar/avr-gcc@8/8.4.0/avr/include/avr/wdt.h **** 				"sts %0, %1" "\n\t"
 433:/usr/local/Cellar/avr-gcc@8/8.4.0/avr/include/avr/wdt.h **** 				"out __SREG__,__tmp_reg__" "\n\t"
 434:/usr/local/Cellar/avr-gcc@8/8.4.0/avr/include/avr/wdt.h **** 				"sts %0, %2" "\n \t"
 435:/usr/local/Cellar/avr-gcc@8/8.4.0/avr/include/avr/wdt.h **** 				: /* no outputs */
 436:/usr/local/Cellar/avr-gcc@8/8.4.0/avr/include/avr/wdt.h **** 				: "n" (_SFR_MEM_ADDR(_WD_CONTROL_REG)),
 437:/usr/local/Cellar/avr-gcc@8/8.4.0/avr/include/avr/wdt.h **** 				"r" ((uint8_t)(_BV(_WD_CHANGE_BIT) | _BV(WDE))),
 438:/usr/local/Cellar/avr-gcc@8/8.4.0/avr/include/avr/wdt.h **** 				"r" ((uint8_t) ((value & 0x08 ? _WD_PS3_MASK : 0x00) |
 439:/usr/local/Cellar/avr-gcc@8/8.4.0/avr/include/avr/wdt.h **** 						_BV(WDE) | (value & 0x07)) )
 440:/usr/local/Cellar/avr-gcc@8/8.4.0/avr/include/avr/wdt.h **** 				: "r0"
 441:/usr/local/Cellar/avr-gcc@8/8.4.0/avr/include/avr/wdt.h **** 		);
 442:/usr/local/Cellar/avr-gcc@8/8.4.0/avr/include/avr/wdt.h **** 	}
 443:/usr/local/Cellar/avr-gcc@8/8.4.0/avr/include/avr/wdt.h **** }
 444:/usr/local/Cellar/avr-gcc@8/8.4.0/avr/include/avr/wdt.h **** 
 445:/usr/local/Cellar/avr-gcc@8/8.4.0/avr/include/avr/wdt.h **** static __inline__
 446:/usr/local/Cellar/avr-gcc@8/8.4.0/avr/include/avr/wdt.h **** __attribute__ ((__always_inline__))
 447:/usr/local/Cellar/avr-gcc@8/8.4.0/avr/include/avr/wdt.h **** void wdt_disable (void)
 230               		.loc 2 447 6 view .LVU58
 231               	.LBE13:
 232               	.LBE12:
 233               	.LBE11:
 448:/usr/local/Cellar/avr-gcc@8/8.4.0/avr/include/avr/wdt.h **** {
 449:/usr/local/Cellar/avr-gcc@8/8.4.0/avr/include/avr/wdt.h **** 	if (_SFR_IO_REG_P (_WD_CONTROL_REG))
 234               		.loc 2 449 2 view .LVU59
 235               	.LBB17:
 236               	.LBB16:
 237               	.LBB15:
 238               	.LBB14:
 450:/usr/local/Cellar/avr-gcc@8/8.4.0/avr/include/avr/wdt.h **** 	{
 451:/usr/local/Cellar/avr-gcc@8/8.4.0/avr/include/avr/wdt.h ****         uint8_t register temp_reg;
 452:/usr/local/Cellar/avr-gcc@8/8.4.0/avr/include/avr/wdt.h **** 		__asm__ __volatile__ (
 453:/usr/local/Cellar/avr-gcc@8/8.4.0/avr/include/avr/wdt.h **** 				"in __tmp_reg__,__SREG__"    "\n\t"
 454:/usr/local/Cellar/avr-gcc@8/8.4.0/avr/include/avr/wdt.h **** 				"cli"                        "\n\t"
 455:/usr/local/Cellar/avr-gcc@8/8.4.0/avr/include/avr/wdt.h **** 				"wdr"                        "\n\t"
 456:/usr/local/Cellar/avr-gcc@8/8.4.0/avr/include/avr/wdt.h **** 				"in  %[TEMPREG],%[WDTREG]"   "\n\t"
 457:/usr/local/Cellar/avr-gcc@8/8.4.0/avr/include/avr/wdt.h **** 				"ori %[TEMPREG],%[WDCE_WDE]" "\n\t"
 458:/usr/local/Cellar/avr-gcc@8/8.4.0/avr/include/avr/wdt.h **** 				"out %[WDTREG],%[TEMPREG]"   "\n\t"
 459:/usr/local/Cellar/avr-gcc@8/8.4.0/avr/include/avr/wdt.h **** 				"out %[WDTREG],__zero_reg__" "\n\t"
 460:/usr/local/Cellar/avr-gcc@8/8.4.0/avr/include/avr/wdt.h **** 				"out __SREG__,__tmp_reg__"   "\n\t"
 461:/usr/local/Cellar/avr-gcc@8/8.4.0/avr/include/avr/wdt.h **** 				: [TEMPREG] "=d" (temp_reg)
 462:/usr/local/Cellar/avr-gcc@8/8.4.0/avr/include/avr/wdt.h **** 				: [WDTREG]  "I"  (_SFR_IO_ADDR(_WD_CONTROL_REG)),
 463:/usr/local/Cellar/avr-gcc@8/8.4.0/avr/include/avr/wdt.h **** 				[WDCE_WDE]  "n"  ((uint8_t)(_BV(_WD_CHANGE_BIT) | _BV(WDE)))
 464:/usr/local/Cellar/avr-gcc@8/8.4.0/avr/include/avr/wdt.h **** 				: "r0"
 465:/usr/local/Cellar/avr-gcc@8/8.4.0/avr/include/avr/wdt.h **** 		);
 466:/usr/local/Cellar/avr-gcc@8/8.4.0/avr/include/avr/wdt.h **** 	}
 467:/usr/local/Cellar/avr-gcc@8/8.4.0/avr/include/avr/wdt.h **** 	else
 468:/usr/local/Cellar/avr-gcc@8/8.4.0/avr/include/avr/wdt.h **** 	{
 469:/usr/local/Cellar/avr-gcc@8/8.4.0/avr/include/avr/wdt.h ****         uint8_t register temp_reg;
 239               		.loc 2 469 9 view .LVU60
 470:/usr/local/Cellar/avr-gcc@8/8.4.0/avr/include/avr/wdt.h **** 		__asm__ __volatile__ (
 240               		.loc 2 470 3 view .LVU61
 241               	/* #APP */
 242               	 ;  470 "/usr/local/Cellar/avr-gcc@8/8.4.0/avr/include/avr/wdt.h" 1
 243 006a 0FB6      		in __tmp_reg__,__SREG__
 244 006c F894      		cli
 245 006e A895      		wdr
 246 0070 8091 6000 		lds r24,96
 247 0074 8861      		ori r24,24
 248 0076 8093 6000 		sts 96,r24
 249 007a 1092 6000 		sts 96,__zero_reg__
 250 007e 0FBE      		out __SREG__,__tmp_reg__
 251               		
 252               	 ;  0 "" 2
 253               	.LVL9:
 254               	/* #NOAPP */
 255               	.L5:
 256               	/* epilogue start */
 257               		.loc 2 470 3 is_stmt 0 view .LVU62
 258               	.LBE14:
 259               	.LBE15:
 260               	.LBE16:
 261               	.LBE17:
 143:tmk_core/common/avr/suspend.c **** 
 262               		.loc 1 143 1 view .LVU63
 263 0080 0895      		ret
 264               		.cfi_endproc
 265               	.LFE114:
 267               		.section	.text.matrix_power_down,"ax",@progbits
 268               		.weak	matrix_power_down
 270               	matrix_power_down:
 271               	.LFB123:
 272               		.cfi_startproc
 273               	/* prologue: function */
 274               	/* frame size = 0 */
 275               	/* stack size = 0 */
 276               	.L__stack_usage = 0
 277               	/* epilogue start */
 278 0000 0895      		ret
 279               		.cfi_endproc
 280               	.LFE123:
 282               		.section	.text.suspend_wakeup_condition,"ax",@progbits
 283               	.global	suspend_wakeup_condition
 285               	suspend_wakeup_condition:
 286               	.LFB117:
 146:tmk_core/common/avr/suspend.c **** __attribute__((weak)) void matrix_power_down(void) {}
 147:tmk_core/common/avr/suspend.c **** bool                       suspend_wakeup_condition(void) {
 287               		.loc 1 147 59 is_stmt 1 view -0
 288               		.cfi_startproc
 289               		.loc 1 147 59 is_stmt 0 view .LVU65
 290 0000 CF93      		push r28
 291               	.LCFI0:
 292               		.cfi_def_cfa_offset 3
 293               		.cfi_offset 28, -2
 294               	/* prologue: function */
 295               	/* frame size = 0 */
 296               	/* stack size = 1 */
 297               	.L__stack_usage = 1
 148:tmk_core/common/avr/suspend.c ****     matrix_power_up();
 298               		.loc 1 148 5 is_stmt 1 view .LVU66
 299 0002 0E94 0000 		call matrix_power_up
 300               	.LVL10:
 149:tmk_core/common/avr/suspend.c ****     matrix_scan();
 301               		.loc 1 149 5 view .LVU67
 302 0006 0E94 0000 		call matrix_scan
 303               	.LVL11:
 150:tmk_core/common/avr/suspend.c ****     matrix_power_down();
 304               		.loc 1 150 5 view .LVU68
 305 000a 0E94 0000 		call matrix_power_down
 306               	.LVL12:
 151:tmk_core/common/avr/suspend.c ****     for (uint8_t r = 0; r < MATRIX_ROWS; r++) {
 307               		.loc 1 151 5 view .LVU69
 308               	.LBB18:
 309               		.loc 1 151 10 view .LVU70
 310               		.loc 1 151 25 view .LVU71
 311               		.loc 1 151 18 is_stmt 0 view .LVU72
 312 000e C0E0      		ldi r28,0
 313               	.LVL13:
 314               	.L14:
 152:tmk_core/common/avr/suspend.c ****         if (matrix_get_row(r)) return true;
 315               		.loc 1 152 9 is_stmt 1 view .LVU73
 316               		.loc 1 152 13 is_stmt 0 view .LVU74
 317 0010 8C2F      		mov r24,r28
 318 0012 0E94 0000 		call matrix_get_row
 319               	.LVL14:
 320               		.loc 1 152 12 view .LVU75
 321 0016 8111      		cpse r24,__zero_reg__
 322 0018 00C0      		rjmp .L15
 151:tmk_core/common/avr/suspend.c ****     for (uint8_t r = 0; r < MATRIX_ROWS; r++) {
 323               		.loc 1 151 42 is_stmt 1 discriminator 2 view .LVU76
 151:tmk_core/common/avr/suspend.c ****     for (uint8_t r = 0; r < MATRIX_ROWS; r++) {
 324               		.loc 1 151 43 is_stmt 0 discriminator 2 view .LVU77
 325 001a CF5F      		subi r28,lo8(-(1))
 326               	.LVL15:
 151:tmk_core/common/avr/suspend.c ****     for (uint8_t r = 0; r < MATRIX_ROWS; r++) {
 327               		.loc 1 151 25 is_stmt 1 discriminator 2 view .LVU78
 151:tmk_core/common/avr/suspend.c ****     for (uint8_t r = 0; r < MATRIX_ROWS; r++) {
 328               		.loc 1 151 5 is_stmt 0 discriminator 2 view .LVU79
 329 001c CE30      		cpi r28,lo8(14)
 330 001e 01F4      		brne .L14
 331               	.L12:
 332               	/* epilogue start */
 151:tmk_core/common/avr/suspend.c ****     for (uint8_t r = 0; r < MATRIX_ROWS; r++) {
 333               		.loc 1 151 5 discriminator 2 view .LVU80
 334               	.LBE18:
 153:tmk_core/common/avr/suspend.c ****     }
 154:tmk_core/common/avr/suspend.c ****     return false;
 155:tmk_core/common/avr/suspend.c **** }
 335               		.loc 1 155 1 view .LVU81
 336 0020 CF91      		pop r28
 337               	.LVL16:
 338               		.loc 1 155 1 view .LVU82
 339 0022 0895      		ret
 340               	.LVL17:
 341               	.L15:
 342               	.LBB19:
 152:tmk_core/common/avr/suspend.c ****         if (matrix_get_row(r)) return true;
 343               		.loc 1 152 39 view .LVU83
 344 0024 81E0      		ldi r24,lo8(1)
 345 0026 00C0      		rjmp .L12
 346               	.LBE19:
 347               		.cfi_endproc
 348               	.LFE117:
 350               		.section	.text.suspend_wakeup_init_user,"ax",@progbits
 351               		.weak	suspend_wakeup_init_user
 353               	suspend_wakeup_init_user:
 354               	.LFB125:
 355               		.cfi_startproc
 356               	/* prologue: function */
 357               	/* frame size = 0 */
 358               	/* stack size = 0 */
 359               	.L__stack_usage = 0
 360               	/* epilogue start */
 361 0000 0895      		ret
 362               		.cfi_endproc
 363               	.LFE125:
 365               		.section	.text.suspend_wakeup_init_kb,"ax",@progbits
 366               		.weak	suspend_wakeup_init_kb
 368               	suspend_wakeup_init_kb:
 369               	.LFB119:
 156:tmk_core/common/avr/suspend.c **** 
 157:tmk_core/common/avr/suspend.c **** /** \brief run user level code immediately after wakeup
 158:tmk_core/common/avr/suspend.c ****  *
 159:tmk_core/common/avr/suspend.c ****  * FIXME: needs doc
 160:tmk_core/common/avr/suspend.c ****  */
 161:tmk_core/common/avr/suspend.c **** __attribute__((weak)) void suspend_wakeup_init_user(void) {}
 162:tmk_core/common/avr/suspend.c **** 
 163:tmk_core/common/avr/suspend.c **** /** \brief run keyboard level code immediately after wakeup
 164:tmk_core/common/avr/suspend.c ****  *
 165:tmk_core/common/avr/suspend.c ****  * FIXME: needs doc
 166:tmk_core/common/avr/suspend.c ****  */
 167:tmk_core/common/avr/suspend.c **** __attribute__((weak)) void suspend_wakeup_init_kb(void) { suspend_wakeup_init_user(); }
 370               		.loc 1 167 57 is_stmt 1 view -0
 371               		.cfi_startproc
 372               	/* prologue: function */
 373               	/* frame size = 0 */
 374               	/* stack size = 0 */
 375               	.L__stack_usage = 0
 376               		.loc 1 167 59 view .LVU85
 377 0000 0C94 0000 		jmp suspend_wakeup_init_user
 378               	.LVL18:
 379               		.cfi_endproc
 380               	.LFE119:
 382               		.section	.text.suspend_wakeup_init,"ax",@progbits
 383               	.global	suspend_wakeup_init
 385               	suspend_wakeup_init:
 386               	.LFB120:
 168:tmk_core/common/avr/suspend.c **** /** \brief run immediately after wakeup
 169:tmk_core/common/avr/suspend.c ****  *
 170:tmk_core/common/avr/suspend.c ****  * FIXME: needs doc
 171:tmk_core/common/avr/suspend.c ****  */
 172:tmk_core/common/avr/suspend.c **** void suspend_wakeup_init(void) {
 387               		.loc 1 172 32 view -0
 388               		.cfi_startproc
 389               	/* prologue: function */
 390               	/* frame size = 0 */
 391               	/* stack size = 0 */
 392               	.L__stack_usage = 0
 173:tmk_core/common/avr/suspend.c ****     // clear keyboard state
 174:tmk_core/common/avr/suspend.c ****     clear_keyboard();
 393               		.loc 1 174 5 view .LVU87
 394 0000 0E94 0000 		call clear_keyboard
 395               	.LVL19:
 175:tmk_core/common/avr/suspend.c **** #ifdef BACKLIGHT_ENABLE
 176:tmk_core/common/avr/suspend.c ****     backlight_init();
 177:tmk_core/common/avr/suspend.c **** #endif
 178:tmk_core/common/avr/suspend.c ****     led_set(host_keyboard_leds());
 396               		.loc 1 178 5 view .LVU88
 397 0004 0E94 0000 		call host_keyboard_leds
 398               	.LVL20:
 399 0008 0E94 0000 		call led_set
 400               	.LVL21:
 179:tmk_core/common/avr/suspend.c **** #if defined(RGBLIGHT_SLEEP) && defined(RGBLIGHT_ENABLE)
 180:tmk_core/common/avr/suspend.c ****     is_suspended = false;
 401               		.loc 1 180 5 view .LVU89
 402               		.loc 1 180 18 is_stmt 0 view .LVU90
 403 000c 1092 0000 		sts is_suspended,__zero_reg__
 181:tmk_core/common/avr/suspend.c ****     if (rgblight_enabled) {
 404               		.loc 1 181 5 is_stmt 1 view .LVU91
 405               		.loc 1 181 8 is_stmt 0 view .LVU92
 406 0010 8091 0000 		lds r24,rgblight_enabled
 407 0014 8111      		cpse r24,__zero_reg__
 182:tmk_core/common/avr/suspend.c **** #    ifdef BOOTLOADER_TEENSY
 183:tmk_core/common/avr/suspend.c ****         wait_ms(10);
 184:tmk_core/common/avr/suspend.c **** #    endif
 185:tmk_core/common/avr/suspend.c ****         rgblight_enable_noeeprom();
 408               		.loc 1 185 9 is_stmt 1 view .LVU93
 409 0016 0E94 0000 		call rgblight_enable_noeeprom
 410               	.LVL22:
 411               	.L20:
 186:tmk_core/common/avr/suspend.c ****     }
 187:tmk_core/common/avr/suspend.c ****     rgblight_timer_enable();
 412               		.loc 1 187 5 view .LVU94
 413 001a 0E94 0000 		call rgblight_timer_enable
 414               	.LVL23:
 188:tmk_core/common/avr/suspend.c **** #endif
 189:tmk_core/common/avr/suspend.c ****     suspend_wakeup_init_kb();
 415               		.loc 1 189 5 view .LVU95
 416 001e 0C94 0000 		jmp suspend_wakeup_init_kb
 417               	.LVL24:
 418               		.cfi_endproc
 419               	.LFE120:
 421               		.section	.text.__vector_12,"ax",@progbits
 422               	.global	__vector_12
 424               	__vector_12:
 425               	.LFB121:
 190:tmk_core/common/avr/suspend.c **** }
 191:tmk_core/common/avr/suspend.c **** 
 192:tmk_core/common/avr/suspend.c **** #ifndef NO_SUSPEND_POWER_DOWN
 193:tmk_core/common/avr/suspend.c **** /* watchdog timeout */
 194:tmk_core/common/avr/suspend.c **** ISR(WDT_vect) {
 426               		.loc 1 194 15 view -0
 427               		.cfi_startproc
 428 0000 1F92 1FB6 		__gcc_isr 1
 428      1F92 1124 
 428      8F93 
 429 000a 9F93      		push r25
 430               	.LCFI1:
 431               		.cfi_def_cfa_offset 3
 432               		.cfi_offset 25, -2
 433 000c AF93      		push r26
 434               	.LCFI2:
 435               		.cfi_def_cfa_offset 4
 436               		.cfi_offset 26, -3
 437 000e BF93      		push r27
 438               	.LCFI3:
 439               		.cfi_def_cfa_offset 5
 440               		.cfi_offset 27, -4
 441               	/* prologue: Signal */
 442               	/* frame size = 0 */
 443               	/* stack size = 3...7 */
 444               	.L__stack_usage = 3 + __gcc_isr.n_pushed
 195:tmk_core/common/avr/suspend.c ****     // compensate timer for sleep
 196:tmk_core/common/avr/suspend.c ****     switch (wdt_timeout) {
 445               		.loc 1 196 5 view .LVU97
 446 0010 8091 0000 		lds r24,wdt_timeout
 447 0014 8111      		cpse r24,__zero_reg__
 448 0016 00C0      		rjmp .L24
 197:tmk_core/common/avr/suspend.c ****         case WDTO_15MS:
 198:tmk_core/common/avr/suspend.c ****             timer_count += 15 + 2;  // WDTO_15MS + 2(from observation)
 449               		.loc 1 198 13 view .LVU98
 450               		.loc 1 198 25 is_stmt 0 view .LVU99
 451 0018 8091 0000 		lds r24,timer_count
 452 001c 9091 0000 		lds r25,timer_count+1
 453 0020 A091 0000 		lds r26,timer_count+2
 454 0024 B091 0000 		lds r27,timer_count+3
 455 0028 4196      		adiw r24,17
 456 002a A11D      		adc r26,__zero_reg__
 457 002c B11D      		adc r27,__zero_reg__
 458 002e 8093 0000 		sts timer_count,r24
 459 0032 9093 0000 		sts timer_count+1,r25
 460 0036 A093 0000 		sts timer_count+2,r26
 461 003a B093 0000 		sts timer_count+3,r27
 199:tmk_core/common/avr/suspend.c ****             break;
 462               		.loc 1 199 13 is_stmt 1 view .LVU100
 200:tmk_core/common/avr/suspend.c ****         default:;
 463               		.loc 1 200 17 view .LVU101
 464               	.L24:
 465               	/* epilogue start */
 201:tmk_core/common/avr/suspend.c ****     }
 202:tmk_core/common/avr/suspend.c **** }
 466               		.loc 1 202 1 is_stmt 0 view .LVU102
 467 003e BF91      		pop r27
 468 0040 AF91      		pop r26
 469 0042 9F91      		pop r25
 470 0044 8F91 1F90 		__gcc_isr 2
 470      1FBE 1F90 
 471 004c 1895      		reti
 472               		__gcc_isr 0,r24
 473               		.cfi_endproc
 474               	.LFE121:
 476               		.section	.bss.wdt_timeout,"aw",@nobits
 479               	wdt_timeout:
 480 0000 00        		.zero	1
 481               		.section	.bss.is_suspended,"aw",@nobits
 484               	is_suspended:
 485 0000 00        		.zero	1
 486               		.section	.bss.rgblight_enabled,"aw",@nobits
 489               	rgblight_enabled:
 490 0000 00        		.zero	1
 491               		.text
 492               	.Letext0:
 493               		.file 3 "/usr/local/Cellar/avr-gcc@8/8.4.0/avr/include/stdint.h"
 494               		.file 4 "tmk_core/common/keyboard.h"
 495               		.file 5 "tmk_core/common/action.h"
 496               		.file 6 "tmk_core/common/timer.h"
 497               		.file 7 "lib/lufa/LUFA/Drivers/USB/Core/AVR8/../StdRequestType.h"
 498               		.file 8 "lib/lufa/LUFA/Drivers/USB/Core/AVR8/../DeviceStandardReq.h"
 499               		.file 9 "lib/lufa/LUFA/Drivers/USB/Core/USBTask.h"
 500               		.file 10 "lib/lufa/LUFA/Drivers/USB/Core/HostStandardReq.h"
 501               		.file 11 "/usr/local/Cellar/avr-gcc@8/8.4.0/avr/include/stdio.h"
 502               		.file 12 "tmk_core/common/report.h"
 503               		.file 13 "tmk_core/common/host_driver.h"
 504               		.file 14 "tmk_core/common/host.h"
 505               		.file 15 "tmk_core/protocol/lufa/lufa.h"
 506               		.file 16 "./quantum/color.h"
 507               		.file 17 "quantum/rgblight.h"
 508               		.file 18 "tmk_core/common/led.h"
 509               		.file 19 "tmk_core/common/matrix.h"
 510               		.file 20 "lib/lufa/LUFA/Drivers/USB/Core/AVR8/../Device.h"