   1               		.file	"process_auto_shift.c"
   2               	__SP_H__ = 0x3e
   3               	__SP_L__ = 0x3d
   4               	__SREG__ = 0x3f
   5               	__tmp_reg__ = 0
   6               	__zero_reg__ = 1
   7               		.text
   8               	.Ltext0:
   9               		.cfi_sections	.debug_frame
  10               		.section	.text.autoshift_flush,"ax",@progbits
  11               	.global	autoshift_flush
  13               	autoshift_flush:
  14               	.LFB112:
  15               		.file 1 "quantum/process_keycode/process_auto_shift.c"
   1:quantum/process_keycode/process_auto_shift.c **** /* Copyright 2017 Jeremy Cowgar
   2:quantum/process_keycode/process_auto_shift.c ****  *
   3:quantum/process_keycode/process_auto_shift.c ****  * This program is free software: you can redistribute it and/or modify
   4:quantum/process_keycode/process_auto_shift.c ****  * it under the terms of the GNU General Public License as published by
   5:quantum/process_keycode/process_auto_shift.c ****  * the Free Software Foundation, either version 2 of the License, or
   6:quantum/process_keycode/process_auto_shift.c ****  * (at your option) any later version.
   7:quantum/process_keycode/process_auto_shift.c ****  *
   8:quantum/process_keycode/process_auto_shift.c ****  * This program is distributed in the hope that it will be useful,
   9:quantum/process_keycode/process_auto_shift.c ****  * but WITHOUT ANY WARRANTY; without even the implied warranty of
  10:quantum/process_keycode/process_auto_shift.c ****  * MERCHANTABILITY or FITNESS FOR A PARTICULAR PURPOSE.  See the
  11:quantum/process_keycode/process_auto_shift.c ****  * GNU General Public License for more details.
  12:quantum/process_keycode/process_auto_shift.c ****  *
  13:quantum/process_keycode/process_auto_shift.c ****  * You should have received a copy of the GNU General Public License
  14:quantum/process_keycode/process_auto_shift.c ****  * along with this program.  If not, see <http://www.gnu.org/licenses/>.
  15:quantum/process_keycode/process_auto_shift.c ****  */
  16:quantum/process_keycode/process_auto_shift.c **** 
  17:quantum/process_keycode/process_auto_shift.c **** #ifdef AUTO_SHIFT_ENABLE
  18:quantum/process_keycode/process_auto_shift.c **** 
  19:quantum/process_keycode/process_auto_shift.c **** #    include <stdio.h>
  20:quantum/process_keycode/process_auto_shift.c **** 
  21:quantum/process_keycode/process_auto_shift.c **** #    include "process_auto_shift.h"
  22:quantum/process_keycode/process_auto_shift.c **** 
  23:quantum/process_keycode/process_auto_shift.c **** static bool     autoshift_enabled = true;
  24:quantum/process_keycode/process_auto_shift.c **** static uint16_t autoshift_time    = 0;
  25:quantum/process_keycode/process_auto_shift.c **** static uint16_t autoshift_timeout = AUTO_SHIFT_TIMEOUT;
  26:quantum/process_keycode/process_auto_shift.c **** static uint16_t autoshift_lastkey = KC_NO;
  27:quantum/process_keycode/process_auto_shift.c **** 
  28:quantum/process_keycode/process_auto_shift.c **** void autoshift_flush(void) {
  16               		.loc 1 28 28 view -0
  17               		.cfi_startproc
  18               	/* prologue: function */
  19               	/* frame size = 0 */
  20               	/* stack size = 0 */
  21               	.L__stack_usage = 0
  29:quantum/process_keycode/process_auto_shift.c ****     if (autoshift_lastkey != KC_NO) {
  22               		.loc 1 29 5 view .LVU1
  23               		.loc 1 29 8 is_stmt 0 view .LVU2
  24 0000 8091 0000 		lds r24,autoshift_lastkey
  25 0004 9091 0000 		lds r25,autoshift_lastkey+1
  26 0008 892B      		or r24,r25
  27 000a 01F0      		breq .L1
  28               	.LBB2:
  30:quantum/process_keycode/process_auto_shift.c ****         uint16_t elapsed = timer_elapsed(autoshift_time);
  29               		.loc 1 30 9 is_stmt 1 view .LVU3
  30               		.loc 1 30 28 is_stmt 0 view .LVU4
  31 000c 8091 0000 		lds r24,autoshift_time
  32 0010 9091 0000 		lds r25,autoshift_time+1
  33 0014 0E94 0000 		call timer_elapsed
  34               	.LVL0:
  31:quantum/process_keycode/process_auto_shift.c **** 
  32:quantum/process_keycode/process_auto_shift.c ****         if (elapsed > autoshift_timeout) {
  35               		.loc 1 32 9 is_stmt 1 view .LVU5
  36               		.loc 1 32 12 is_stmt 0 view .LVU6
  37 0018 2091 0000 		lds r18,autoshift_timeout
  38 001c 3091 0000 		lds r19,autoshift_timeout+1
  39 0020 2817      		cp r18,r24
  40 0022 3907      		cpc r19,r25
  41 0024 00F4      		brsh .L3
  33:quantum/process_keycode/process_auto_shift.c ****             tap_code16(LSFT(autoshift_lastkey));
  42               		.loc 1 33 13 is_stmt 1 view .LVU7
  43 0026 8091 0000 		lds r24,autoshift_lastkey
  44 002a 9091 0000 		lds r25,autoshift_lastkey+1
  45               	.LVL1:
  46               		.loc 1 33 13 is_stmt 0 view .LVU8
  47 002e 9260      		ori r25,2
  48 0030 0E94 0000 		call tap_code16
  49               	.LVL2:
  50               	.L4:
  34:quantum/process_keycode/process_auto_shift.c ****         } else {
  35:quantum/process_keycode/process_auto_shift.c ****             tap_code(autoshift_lastkey);
  36:quantum/process_keycode/process_auto_shift.c ****         }
  37:quantum/process_keycode/process_auto_shift.c **** 
  38:quantum/process_keycode/process_auto_shift.c ****         autoshift_time    = 0;
  51               		.loc 1 38 9 is_stmt 1 view .LVU9
  52               		.loc 1 38 27 is_stmt 0 view .LVU10
  53 0034 1092 0000 		sts autoshift_time+1,__zero_reg__
  54 0038 1092 0000 		sts autoshift_time,__zero_reg__
  39:quantum/process_keycode/process_auto_shift.c ****         autoshift_lastkey = KC_NO;
  55               		.loc 1 39 9 is_stmt 1 view .LVU11
  56               		.loc 1 39 27 is_stmt 0 view .LVU12
  57 003c 1092 0000 		sts autoshift_lastkey+1,__zero_reg__
  58 0040 1092 0000 		sts autoshift_lastkey,__zero_reg__
  59               	.L1:
  60               	/* epilogue start */
  61               		.loc 1 39 27 view .LVU13
  62               	.LBE2:
  40:quantum/process_keycode/process_auto_shift.c ****     }
  41:quantum/process_keycode/process_auto_shift.c **** }
  63               		.loc 1 41 1 view .LVU14
  64 0044 0895      		ret
  65               	.LVL3:
  66               	.L3:
  67               	.LBB3:
  35:quantum/process_keycode/process_auto_shift.c ****         }
  68               		.loc 1 35 13 is_stmt 1 view .LVU15
  69 0046 8091 0000 		lds r24,autoshift_lastkey
  70               	.LVL4:
  35:quantum/process_keycode/process_auto_shift.c ****         }
  71               		.loc 1 35 13 is_stmt 0 view .LVU16
  72 004a 0E94 0000 		call tap_code
  73               	.LVL5:
  74 004e 00C0      		rjmp .L4
  75               	.LBE3:
  76               		.cfi_endproc
  77               	.LFE112:
  79               		.section	.text.autoshift_on,"ax",@progbits
  80               	.global	autoshift_on
  82               	autoshift_on:
  83               	.LVL6:
  84               	.LFB113:
  42:quantum/process_keycode/process_auto_shift.c **** 
  43:quantum/process_keycode/process_auto_shift.c **** void autoshift_on(uint16_t keycode) {
  85               		.loc 1 43 37 is_stmt 1 view -0
  86               		.cfi_startproc
  87               		.loc 1 43 37 is_stmt 0 view .LVU18
  88 0000 CF93      		push r28
  89               	.LCFI0:
  90               		.cfi_def_cfa_offset 3
  91               		.cfi_offset 28, -2
  92 0002 DF93      		push r29
  93               	.LCFI1:
  94               		.cfi_def_cfa_offset 4
  95               		.cfi_offset 29, -3
  96               	/* prologue: function */
  97               	/* frame size = 0 */
  98               	/* stack size = 2 */
  99               	.L__stack_usage = 2
 100 0004 EC01      		movw r28,r24
  44:quantum/process_keycode/process_auto_shift.c ****     autoshift_time    = timer_read();
 101               		.loc 1 44 5 is_stmt 1 view .LVU19
 102               		.loc 1 44 25 is_stmt 0 view .LVU20
 103 0006 0E94 0000 		call timer_read
 104               	.LVL7:
 105               		.loc 1 44 23 view .LVU21
 106 000a 9093 0000 		sts autoshift_time+1,r25
 107 000e 8093 0000 		sts autoshift_time,r24
  45:quantum/process_keycode/process_auto_shift.c ****     autoshift_lastkey = keycode;
 108               		.loc 1 45 5 is_stmt 1 view .LVU22
 109               		.loc 1 45 23 is_stmt 0 view .LVU23
 110 0012 D093 0000 		sts autoshift_lastkey+1,r29
 111 0016 C093 0000 		sts autoshift_lastkey,r28
 112               	/* epilogue start */
  46:quantum/process_keycode/process_auto_shift.c **** }
 113               		.loc 1 46 1 view .LVU24
 114 001a DF91      		pop r29
 115 001c CF91      		pop r28
 116               	.LVL8:
 117               		.loc 1 46 1 view .LVU25
 118 001e 0895      		ret
 119               		.cfi_endproc
 120               	.LFE113:
 122               		.section	.text.autoshift_toggle,"ax",@progbits
 123               	.global	autoshift_toggle
 125               	autoshift_toggle:
 126               	.LFB114:
  47:quantum/process_keycode/process_auto_shift.c **** 
  48:quantum/process_keycode/process_auto_shift.c **** void autoshift_toggle(void) {
 127               		.loc 1 48 29 is_stmt 1 view -0
 128               		.cfi_startproc
 129               	/* prologue: function */
 130               	/* frame size = 0 */
 131               	/* stack size = 0 */
 132               	.L__stack_usage = 0
  49:quantum/process_keycode/process_auto_shift.c ****     if (autoshift_enabled) {
 133               		.loc 1 49 5 view .LVU27
 134               		.loc 1 49 8 is_stmt 0 view .LVU28
 135 0000 8091 0000 		lds r24,autoshift_enabled
 136 0004 8823      		tst r24
 137 0006 01F0      		breq .L10
  50:quantum/process_keycode/process_auto_shift.c ****         autoshift_enabled = false;
 138               		.loc 1 50 9 is_stmt 1 view .LVU29
 139               		.loc 1 50 27 is_stmt 0 view .LVU30
 140 0008 1092 0000 		sts autoshift_enabled,__zero_reg__
  51:quantum/process_keycode/process_auto_shift.c ****         autoshift_flush();
 141               		.loc 1 51 9 is_stmt 1 view .LVU31
 142 000c 0C94 0000 		jmp autoshift_flush
 143               	.LVL9:
 144               	.L10:
  52:quantum/process_keycode/process_auto_shift.c ****     } else {
  53:quantum/process_keycode/process_auto_shift.c ****         autoshift_enabled = true;
 145               		.loc 1 53 9 view .LVU32
 146               		.loc 1 53 27 is_stmt 0 view .LVU33
 147 0010 81E0      		ldi r24,lo8(1)
 148 0012 8093 0000 		sts autoshift_enabled,r24
 149               	/* epilogue start */
  54:quantum/process_keycode/process_auto_shift.c ****     }
  55:quantum/process_keycode/process_auto_shift.c **** }
 150               		.loc 1 55 1 view .LVU34
 151 0016 0895      		ret
 152               		.cfi_endproc
 153               	.LFE114:
 155               		.section	.text.autoshift_enable,"ax",@progbits
 156               	.global	autoshift_enable
 158               	autoshift_enable:
 159               	.LFB115:
  56:quantum/process_keycode/process_auto_shift.c **** 
  57:quantum/process_keycode/process_auto_shift.c **** void autoshift_enable(void) { autoshift_enabled = true; }
 160               		.loc 1 57 29 is_stmt 1 view -0
 161               		.cfi_startproc
 162               	/* prologue: function */
 163               	/* frame size = 0 */
 164               	/* stack size = 0 */
 165               	.L__stack_usage = 0
 166               		.loc 1 57 31 view .LVU36
 167               		.loc 1 57 49 is_stmt 0 view .LVU37
 168 0000 81E0      		ldi r24,lo8(1)
 169 0002 8093 0000 		sts autoshift_enabled,r24
 170               	/* epilogue start */
 171               		.loc 1 57 1 view .LVU38
 172 0006 0895      		ret
 173               		.cfi_endproc
 174               	.LFE115:
 176               		.section	.text.autoshift_disable,"ax",@progbits
 177               	.global	autoshift_disable
 179               	autoshift_disable:
 180               	.LFB116:
  58:quantum/process_keycode/process_auto_shift.c **** void autoshift_disable(void) {
 181               		.loc 1 58 30 is_stmt 1 view -0
 182               		.cfi_startproc
 183               	/* prologue: function */
 184               	/* frame size = 0 */
 185               	/* stack size = 0 */
 186               	.L__stack_usage = 0
  59:quantum/process_keycode/process_auto_shift.c ****     autoshift_enabled = false;
 187               		.loc 1 59 5 view .LVU40
 188               		.loc 1 59 23 is_stmt 0 view .LVU41
 189 0000 1092 0000 		sts autoshift_enabled,__zero_reg__
  60:quantum/process_keycode/process_auto_shift.c ****     autoshift_flush();
 190               		.loc 1 60 5 is_stmt 1 view .LVU42
 191 0004 0C94 0000 		jmp autoshift_flush
 192               	.LVL10:
 193               		.cfi_endproc
 194               	.LFE116:
 196               		.section	.rodata.autoshift_timer_report.str1.1,"aMS",@progbits,1
 197               	.LC0:
 198 0000 0A25 640A 		.string	"\n%d\n"
 198      00
 199               		.section	.text.autoshift_timer_report,"ax",@progbits
 200               	.global	autoshift_timer_report
 202               	autoshift_timer_report:
 203               	.LFB117:
  61:quantum/process_keycode/process_auto_shift.c **** }
  62:quantum/process_keycode/process_auto_shift.c **** 
  63:quantum/process_keycode/process_auto_shift.c **** #    ifndef AUTO_SHIFT_NO_SETUP
  64:quantum/process_keycode/process_auto_shift.c **** void autoshift_timer_report(void) {
 204               		.loc 1 64 35 view -0
 205               		.cfi_startproc
 206 0000 0F93      		push r16
 207               	.LCFI2:
 208               		.cfi_def_cfa_offset 3
 209               		.cfi_offset 16, -2
 210 0002 1F93      		push r17
 211               	.LCFI3:
 212               		.cfi_def_cfa_offset 4
 213               		.cfi_offset 17, -3
 214 0004 CF93      		push r28
 215               	.LCFI4:
 216               		.cfi_def_cfa_offset 5
 217               		.cfi_offset 28, -4
 218 0006 DF93      		push r29
 219               	.LCFI5:
 220               		.cfi_def_cfa_offset 6
 221               		.cfi_offset 29, -5
 222 0008 CDB7      		in r28,__SP_L__
 223 000a DEB7      		in r29,__SP_H__
 224               	.LCFI6:
 225               		.cfi_def_cfa_register 28
 226 000c 2897      		sbiw r28,8
 227               	.LCFI7:
 228               		.cfi_def_cfa_offset 14
 229 000e 0FB6      		in __tmp_reg__,__SREG__
 230 0010 F894      		cli
 231 0012 DEBF      		out __SP_H__,r29
 232 0014 0FBE      		out __SREG__,__tmp_reg__
 233 0016 CDBF      		out __SP_L__,r28
 234               	/* prologue: function */
 235               	/* frame size = 8 */
 236               	/* stack size = 12 */
 237               	.L__stack_usage = 12
  65:quantum/process_keycode/process_auto_shift.c ****     char display[8];
 238               		.loc 1 65 5 view .LVU44
  66:quantum/process_keycode/process_auto_shift.c **** 
  67:quantum/process_keycode/process_auto_shift.c ****     snprintf(display, 8, "\n%d\n", autoshift_timeout);
 239               		.loc 1 67 5 view .LVU45
 240 0018 8091 0000 		lds r24,autoshift_timeout+1
 241 001c 8F93      		push r24
 242 001e 8091 0000 		lds r24,autoshift_timeout
 243 0022 8F93      		push r24
 244 0024 80E0      		ldi r24,lo8(.LC0)
 245 0026 90E0      		ldi r25,hi8(.LC0)
 246 0028 9F93      		push r25
 247 002a 8F93      		push r24
 248 002c 1F92      		push __zero_reg__
 249 002e 88E0      		ldi r24,lo8(8)
 250 0030 8F93      		push r24
 251 0032 8E01      		movw r16,r28
 252 0034 0F5F      		subi r16,-1
 253 0036 1F4F      		sbci r17,-1
 254 0038 1F93      		push r17
 255 003a 0F93      		push r16
 256 003c 0E94 0000 		call snprintf
 257               	.LVL11:
  68:quantum/process_keycode/process_auto_shift.c **** 
  69:quantum/process_keycode/process_auto_shift.c ****     send_string((const char *)display);
 258               		.loc 1 69 5 view .LVU46
 259 0040 C801      		movw r24,r16
 260 0042 0E94 0000 		call send_string
 261               	.LVL12:
  70:quantum/process_keycode/process_auto_shift.c **** }
 262               		.loc 1 70 1 is_stmt 0 view .LVU47
 263 0046 0FB6      		in __tmp_reg__,__SREG__
 264 0048 F894      		cli
 265 004a DEBF      		out __SP_H__,r29
 266 004c 0FBE      		out __SREG__,__tmp_reg__
 267 004e CDBF      		out __SP_L__,r28
 268               	/* epilogue start */
 269 0050 2896      		adiw r28,8
 270 0052 0FB6      		in __tmp_reg__,__SREG__
 271 0054 F894      		cli
 272 0056 DEBF      		out __SP_H__,r29
 273 0058 0FBE      		out __SREG__,__tmp_reg__
 274 005a CDBF      		out __SP_L__,r28
 275 005c DF91      		pop r29
 276 005e CF91      		pop r28
 277 0060 1F91      		pop r17
 278 0062 0F91      		pop r16
 279 0064 0895      		ret
 280               		.cfi_endproc
 281               	.LFE117:
 283               		.section	.text.get_autoshift_state,"ax",@progbits
 284               	.global	get_autoshift_state
 286               	get_autoshift_state:
 287               	.LFB118:
  71:quantum/process_keycode/process_auto_shift.c **** #    endif
  72:quantum/process_keycode/process_auto_shift.c **** 
  73:quantum/process_keycode/process_auto_shift.c **** bool get_autoshift_state(void) { return autoshift_enabled; }
 288               		.loc 1 73 32 is_stmt 1 view -0
 289               		.cfi_startproc
 290               	/* prologue: function */
 291               	/* frame size = 0 */
 292               	/* stack size = 0 */
 293               	.L__stack_usage = 0
 294               		.loc 1 73 34 view .LVU49
 295               		.loc 1 73 1 is_stmt 0 view .LVU50
 296 0000 8091 0000 		lds r24,autoshift_enabled
 297               	/* epilogue start */
 298 0004 0895      		ret
 299               		.cfi_endproc
 300               	.LFE118:
 302               		.section	.text.get_autoshift_timeout,"ax",@progbits
 303               	.global	get_autoshift_timeout
 305               	get_autoshift_timeout:
 306               	.LFB119:
  74:quantum/process_keycode/process_auto_shift.c **** 
  75:quantum/process_keycode/process_auto_shift.c **** uint16_t get_autoshift_timeout(void) { return autoshift_timeout; }
 307               		.loc 1 75 38 is_stmt 1 view -0
 308               		.cfi_startproc
 309               	/* prologue: function */
 310               	/* frame size = 0 */
 311               	/* stack size = 0 */
 312               	.L__stack_usage = 0
 313               		.loc 1 75 40 view .LVU52
 314               		.loc 1 75 1 is_stmt 0 view .LVU53
 315 0000 8091 0000 		lds r24,autoshift_timeout
 316 0004 9091 0000 		lds r25,autoshift_timeout+1
 317               	/* epilogue start */
 318 0008 0895      		ret
 319               		.cfi_endproc
 320               	.LFE119:
 322               		.section	.text.set_autoshift_timeout,"ax",@progbits
 323               	.global	set_autoshift_timeout
 325               	set_autoshift_timeout:
 326               	.LVL13:
 327               	.LFB120:
  76:quantum/process_keycode/process_auto_shift.c **** 
  77:quantum/process_keycode/process_auto_shift.c **** void set_autoshift_timeout(uint16_t timeout) { autoshift_timeout = timeout; }
 328               		.loc 1 77 46 is_stmt 1 view -0
 329               		.cfi_startproc
 330               	/* prologue: function */
 331               	/* frame size = 0 */
 332               	/* stack size = 0 */
 333               	.L__stack_usage = 0
 334               		.loc 1 77 48 view .LVU55
 335               		.loc 1 77 66 is_stmt 0 view .LVU56
 336 0000 9093 0000 		sts autoshift_timeout+1,r25
 337 0004 8093 0000 		sts autoshift_timeout,r24
 338               	/* epilogue start */
 339               		.loc 1 77 1 view .LVU57
 340 0008 0895      		ret
 341               		.cfi_endproc
 342               	.LFE120:
 344               		.section	.text.process_auto_shift,"ax",@progbits
 345               	.global	process_auto_shift
 347               	process_auto_shift:
 348               	.LVL14:
 349               	.LFB121:
  78:quantum/process_keycode/process_auto_shift.c **** 
  79:quantum/process_keycode/process_auto_shift.c **** bool process_auto_shift(uint16_t keycode, keyrecord_t *record) {
 350               		.loc 1 79 64 is_stmt 1 view -0
 351               		.cfi_startproc
 352               		.loc 1 79 64 is_stmt 0 view .LVU59
 353 0000 1F93      		push r17
 354               	.LCFI8:
 355               		.cfi_def_cfa_offset 3
 356               		.cfi_offset 17, -2
 357 0002 CF93      		push r28
 358               	.LCFI9:
 359               		.cfi_def_cfa_offset 4
 360               		.cfi_offset 28, -3
 361 0004 DF93      		push r29
 362               	.LCFI10:
 363               		.cfi_def_cfa_offset 5
 364               		.cfi_offset 29, -4
 365               	/* prologue: function */
 366               	/* frame size = 0 */
 367               	/* stack size = 3 */
 368               	.L__stack_usage = 3
 369 0006 EC01      		movw r28,r24
  80:quantum/process_keycode/process_auto_shift.c ****     if (record->event.pressed) {
 370               		.loc 1 80 5 is_stmt 1 view .LVU60
 371               		.loc 1 80 22 is_stmt 0 view .LVU61
 372 0008 FB01      		movw r30,r22
 373 000a 1281      		ldd r17,Z+2
 374               		.loc 1 80 8 view .LVU62
 375 000c 1123      		tst r17
 376 000e 01F4      		brne .+2
 377 0010 00C0      		rjmp .L18
  81:quantum/process_keycode/process_auto_shift.c ****         switch (keycode) {
 378               		.loc 1 81 9 is_stmt 1 view .LVU63
 379 0012 8436      		cpi r24,100
 380 0014 9105      		cpc r25,__zero_reg__
 381 0016 01F0      		breq .L19
 382 0018 00F4      		brsh .L20
 383 001a 8B32      		cpi r24,43
 384 001c 9105      		cpc r25,__zero_reg__
 385 001e 01F0      		breq .L19
 386 0020 00F4      		brsh .L21
 387 0022 0497      		sbiw r24,4
 388               	.LVL15:
 389               		.loc 1 81 9 is_stmt 0 view .LVU64
 390 0024 8497      		sbiw r24,36
 391 0026 00F4      		brsh .L22
 392               	.L19:
  82:quantum/process_keycode/process_auto_shift.c ****             case KC_ASTG:
  83:quantum/process_keycode/process_auto_shift.c ****                 autoshift_toggle();
  84:quantum/process_keycode/process_auto_shift.c ****                 return true;
  85:quantum/process_keycode/process_auto_shift.c **** 
  86:quantum/process_keycode/process_auto_shift.c ****             case KC_ASON:
  87:quantum/process_keycode/process_auto_shift.c ****                 autoshift_enable();
  88:quantum/process_keycode/process_auto_shift.c ****                 return true;
  89:quantum/process_keycode/process_auto_shift.c ****             case KC_ASOFF:
  90:quantum/process_keycode/process_auto_shift.c ****                 autoshift_disable();
  91:quantum/process_keycode/process_auto_shift.c ****                 return true;
  92:quantum/process_keycode/process_auto_shift.c **** 
  93:quantum/process_keycode/process_auto_shift.c **** #    ifndef AUTO_SHIFT_NO_SETUP
  94:quantum/process_keycode/process_auto_shift.c ****             case KC_ASUP:
  95:quantum/process_keycode/process_auto_shift.c ****                 autoshift_timeout += 5;
  96:quantum/process_keycode/process_auto_shift.c ****                 return true;
  97:quantum/process_keycode/process_auto_shift.c ****             case KC_ASDN:
  98:quantum/process_keycode/process_auto_shift.c ****                 autoshift_timeout -= 5;
  99:quantum/process_keycode/process_auto_shift.c ****                 return true;
 100:quantum/process_keycode/process_auto_shift.c **** 
 101:quantum/process_keycode/process_auto_shift.c ****             case KC_ASRP:
 102:quantum/process_keycode/process_auto_shift.c ****                 autoshift_timer_report();
 103:quantum/process_keycode/process_auto_shift.c ****                 return true;
 104:quantum/process_keycode/process_auto_shift.c **** #    endif
 105:quantum/process_keycode/process_auto_shift.c **** #    ifndef NO_AUTO_SHIFT_ALPHA
 106:quantum/process_keycode/process_auto_shift.c ****             case KC_A ... KC_Z:
 107:quantum/process_keycode/process_auto_shift.c **** #    endif
 108:quantum/process_keycode/process_auto_shift.c **** #    ifndef NO_AUTO_SHIFT_NUMERIC
 109:quantum/process_keycode/process_auto_shift.c ****             case KC_1 ... KC_0:
 110:quantum/process_keycode/process_auto_shift.c **** #    endif
 111:quantum/process_keycode/process_auto_shift.c **** #    ifndef NO_AUTO_SHIFT_SPECIAL
 112:quantum/process_keycode/process_auto_shift.c ****             case KC_TAB:
 113:quantum/process_keycode/process_auto_shift.c ****             case KC_MINUS ... KC_SLASH:
 114:quantum/process_keycode/process_auto_shift.c ****             case KC_NONUS_BSLASH:
 115:quantum/process_keycode/process_auto_shift.c **** #    endif
 116:quantum/process_keycode/process_auto_shift.c ****                 autoshift_flush();
 393               		.loc 1 116 17 is_stmt 1 view .LVU65
 394 0028 0E94 0000 		call autoshift_flush
 395               	.LVL16:
 117:quantum/process_keycode/process_auto_shift.c ****                 if (!autoshift_enabled) return true;
 396               		.loc 1 117 17 view .LVU66
 397               		.loc 1 117 20 is_stmt 0 view .LVU67
 398 002c 8091 0000 		lds r24,autoshift_enabled
 399 0030 8823      		tst r24
 400 0032 01F0      		breq .L17
 118:quantum/process_keycode/process_auto_shift.c **** 
 119:quantum/process_keycode/process_auto_shift.c **** #    ifndef AUTO_SHIFT_MODIFIERS
 120:quantum/process_keycode/process_auto_shift.c ****                 if (get_mods()) {
 401               		.loc 1 120 17 is_stmt 1 view .LVU68
 402               		.loc 1 120 21 is_stmt 0 view .LVU69
 403 0034 0E94 0000 		call get_mods
 404               	.LVL17:
 405               		.loc 1 120 20 view .LVU70
 406 0038 8111      		cpse r24,__zero_reg__
 407 003a 00C0      		rjmp .L17
 121:quantum/process_keycode/process_auto_shift.c ****                     return true;
 122:quantum/process_keycode/process_auto_shift.c ****                 }
 123:quantum/process_keycode/process_auto_shift.c **** #    endif
 124:quantum/process_keycode/process_auto_shift.c ****                 autoshift_on(keycode);
 408               		.loc 1 124 17 is_stmt 1 view .LVU71
 409 003c CE01      		movw r24,r28
 410 003e 0E94 0000 		call autoshift_on
 411               	.LVL18:
 125:quantum/process_keycode/process_auto_shift.c **** 
 126:quantum/process_keycode/process_auto_shift.c ****                 // We need some extra handling here for OSL edge cases
 127:quantum/process_keycode/process_auto_shift.c **** #    if !defined(NO_ACTION_ONESHOT) && !defined(NO_ACTION_TAPPING)
 128:quantum/process_keycode/process_auto_shift.c ****                 clear_oneshot_layer_state(ONESHOT_OTHER_KEY_PRESSED);
 412               		.loc 1 128 17 view .LVU72
 413 0042 82E0      		ldi r24,lo8(2)
 414 0044 0E94 0000 		call clear_oneshot_layer_state
 415               	.LVL19:
 129:quantum/process_keycode/process_auto_shift.c **** #    endif
 130:quantum/process_keycode/process_auto_shift.c ****                 return false;
 416               		.loc 1 130 17 view .LVU73
 417               		.loc 1 130 24 is_stmt 0 view .LVU74
 418 0048 10E0      		ldi r17,0
 419 004a 00C0      		rjmp .L17
 420               	.LVL20:
 421               	.L21:
  81:quantum/process_keycode/process_auto_shift.c ****             case KC_ASTG:
 422               		.loc 1 81 9 view .LVU75
 423 004c 8D97      		sbiw r24,45
 424               	.LVL21:
  81:quantum/process_keycode/process_auto_shift.c ****             case KC_ASTG:
 425               		.loc 1 81 9 view .LVU76
 426 004e 0C97      		sbiw r24,12
 427 0050 00F0      		brlo .L19
 428               	.L22:
 131:quantum/process_keycode/process_auto_shift.c **** 
 132:quantum/process_keycode/process_auto_shift.c ****             default:
 133:quantum/process_keycode/process_auto_shift.c ****                 autoshift_flush();
 429               		.loc 1 133 17 is_stmt 1 view .LVU77
 430 0052 0E94 0000 		call autoshift_flush
 431               	.LVL22:
 134:quantum/process_keycode/process_auto_shift.c ****                 return true;
 432               		.loc 1 134 17 view .LVU78
 433               		.loc 1 134 24 is_stmt 0 view .LVU79
 434 0056 00C0      		rjmp .L17
 435               	.LVL23:
 436               	.L20:
  81:quantum/process_keycode/process_auto_shift.c ****             case KC_ASTG:
 437               		.loc 1 81 9 view .LVU80
 438 0058 8931      		cpi r24,25
 439 005a 9C45      		sbci r25,92
 440 005c 01F0      		breq .L23
 441 005e CA31      		cpi r28,26
 442 0060 8CE5      		ldi r24,92
 443 0062 D807      		cpc r29,r24
 444               	.LVL24:
  81:quantum/process_keycode/process_auto_shift.c ****             case KC_ASTG:
 445               		.loc 1 81 9 view .LVU81
 446 0064 00F4      		brsh .L24
 447 0066 C731      		cpi r28,23
 448 0068 ECE5      		ldi r30,92
 449 006a DE07      		cpc r29,r30
 450 006c 01F0      		breq .L25
  98:quantum/process_keycode/process_auto_shift.c ****                 return true;
 451               		.loc 1 98 35 view .LVU82
 452 006e 8091 0000 		lds r24,autoshift_timeout
 453 0072 9091 0000 		lds r25,autoshift_timeout+1
 454 0076 0597      		sbiw r24,5
  81:quantum/process_keycode/process_auto_shift.c ****             case KC_ASTG:
 455               		.loc 1 81 9 view .LVU83
 456 0078 C831      		cpi r28,24
 457 007a DC45      		sbci r29,92
 458 007c 01F4      		brne .L22
 459               	.L39:
  98:quantum/process_keycode/process_auto_shift.c ****                 return true;
 460               		.loc 1 98 35 view .LVU84
 461 007e 9093 0000 		sts autoshift_timeout+1,r25
 462 0082 8093 0000 		sts autoshift_timeout,r24
  99:quantum/process_keycode/process_auto_shift.c **** 
 463               		.loc 1 99 17 is_stmt 1 view .LVU85
  99:quantum/process_keycode/process_auto_shift.c **** 
 464               		.loc 1 99 24 is_stmt 0 view .LVU86
 465 0086 00C0      		rjmp .L17
 466               	.L24:
  81:quantum/process_keycode/process_auto_shift.c ****             case KC_ASTG:
 467               		.loc 1 81 9 view .LVU87
 468 0088 CB31      		cpi r28,27
 469 008a 8CE5      		ldi r24,92
 470 008c D807      		cpc r29,r24
 471 008e 01F0      		breq .L27
 472 0090 00F0      		brlo .L28
 473 0092 CC31      		cpi r28,28
 474 0094 DC45      		sbci r29,92
 475 0096 01F4      		brne .L22
  90:quantum/process_keycode/process_auto_shift.c ****                 return true;
 476               		.loc 1 90 17 is_stmt 1 view .LVU88
 477 0098 0E94 0000 		call autoshift_disable
 478               	.LVL25:
  91:quantum/process_keycode/process_auto_shift.c **** 
 479               		.loc 1 91 17 view .LVU89
  91:quantum/process_keycode/process_auto_shift.c **** 
 480               		.loc 1 91 24 is_stmt 0 view .LVU90
 481 009c 00C0      		rjmp .L17
 482               	.LVL26:
 483               	.L28:
  83:quantum/process_keycode/process_auto_shift.c ****                 return true;
 484               		.loc 1 83 17 is_stmt 1 view .LVU91
 485 009e 0E94 0000 		call autoshift_toggle
 486               	.LVL27:
  84:quantum/process_keycode/process_auto_shift.c **** 
 487               		.loc 1 84 17 view .LVU92
 488               	.L17:
 135:quantum/process_keycode/process_auto_shift.c ****         }
 136:quantum/process_keycode/process_auto_shift.c ****     } else {
 137:quantum/process_keycode/process_auto_shift.c ****         autoshift_flush();
 138:quantum/process_keycode/process_auto_shift.c ****     }
 139:quantum/process_keycode/process_auto_shift.c **** 
 140:quantum/process_keycode/process_auto_shift.c ****     return true;
 141:quantum/process_keycode/process_auto_shift.c **** }
 489               		.loc 1 141 1 is_stmt 0 view .LVU93
 490 00a2 812F      		mov r24,r17
 491               	/* epilogue start */
 492 00a4 DF91      		pop r29
 493 00a6 CF91      		pop r28
 494               	.LVL28:
 495               		.loc 1 141 1 view .LVU94
 496 00a8 1F91      		pop r17
 497 00aa 0895      		ret
 498               	.LVL29:
 499               	.L27:
  87:quantum/process_keycode/process_auto_shift.c ****                 return true;
 500               		.loc 1 87 17 is_stmt 1 view .LVU95
 501               	.LBB6:
 502               	.LBI6:
  57:quantum/process_keycode/process_auto_shift.c **** void autoshift_disable(void) {
 503               		.loc 1 57 6 view .LVU96
 504               	.LBB7:
  57:quantum/process_keycode/process_auto_shift.c **** void autoshift_disable(void) {
 505               		.loc 1 57 31 view .LVU97
  57:quantum/process_keycode/process_auto_shift.c **** void autoshift_disable(void) {
 506               		.loc 1 57 49 is_stmt 0 view .LVU98
 507 00ac 81E0      		ldi r24,lo8(1)
 508 00ae 8093 0000 		sts autoshift_enabled,r24
 509 00b2 00C0      		rjmp .L17
 510               	.L25:
  57:quantum/process_keycode/process_auto_shift.c **** void autoshift_disable(void) {
 511               		.loc 1 57 49 view .LVU99
 512               	.LBE7:
 513               	.LBE6:
  95:quantum/process_keycode/process_auto_shift.c ****                 return true;
 514               		.loc 1 95 17 is_stmt 1 view .LVU100
  95:quantum/process_keycode/process_auto_shift.c ****                 return true;
 515               		.loc 1 95 35 is_stmt 0 view .LVU101
 516 00b4 8091 0000 		lds r24,autoshift_timeout
 517 00b8 9091 0000 		lds r25,autoshift_timeout+1
 518 00bc 0596      		adiw r24,5
 519 00be 00C0      		rjmp .L39
 520               	.LVL30:
 521               	.L23:
 102:quantum/process_keycode/process_auto_shift.c ****                 return true;
 522               		.loc 1 102 17 is_stmt 1 view .LVU102
 523 00c0 0E94 0000 		call autoshift_timer_report
 524               	.LVL31:
 103:quantum/process_keycode/process_auto_shift.c **** #    endif
 525               		.loc 1 103 17 view .LVU103
 103:quantum/process_keycode/process_auto_shift.c **** #    endif
 526               		.loc 1 103 24 is_stmt 0 view .LVU104
 527 00c4 00C0      		rjmp .L17
 528               	.LVL32:
 529               	.L18:
 137:quantum/process_keycode/process_auto_shift.c ****     }
 530               		.loc 1 137 9 is_stmt 1 view .LVU105
 531 00c6 0E94 0000 		call autoshift_flush
 532               	.LVL33:
 140:quantum/process_keycode/process_auto_shift.c **** }
 533               		.loc 1 140 5 view .LVU106
 140:quantum/process_keycode/process_auto_shift.c **** }
 534               		.loc 1 140 12 is_stmt 0 view .LVU107
 535 00ca 11E0      		ldi r17,lo8(1)
 536 00cc 00C0      		rjmp .L17
 537               		.cfi_endproc
 538               	.LFE121:
 540               		.section	.bss.autoshift_lastkey,"aw",@nobits
 543               	autoshift_lastkey:
 544 0000 0000      		.zero	2
 545               		.section	.data.autoshift_timeout,"aw"
 548               	autoshift_timeout:
 549 0000 AF00      		.word	175
 550               		.section	.bss.autoshift_time,"aw",@nobits
 553               	autoshift_time:
 554 0000 0000      		.zero	2
 555               		.section	.data.autoshift_enabled,"aw"
 558               	autoshift_enabled:
 559 0000 01        		.byte	1
 560               		.text
 561               	.Letext0:
 562               		.file 2 "/usr/local/Cellar/avr-gcc@8/8.4.0/avr/include/stdint.h"
 563               		.file 3 "/usr/local/Cellar/avr-gcc@8/8.4.0/lib/avr-gcc/8/gcc/avr/8.4.0/include/stddef.h"
 564               		.file 4 "/usr/local/Cellar/avr-gcc@8/8.4.0/avr/include/stdio.h"
 565               		.file 5 "tmk_core/common/keyboard.h"
 566               		.file 6 "tmk_core/common/action.h"
 567               		.file 7 "lib/lufa/LUFA/Drivers/USB/Core/AVR8/../StdRequestType.h"
 568               		.file 8 "lib/lufa/LUFA/Drivers/USB/Core/AVR8/../DeviceStandardReq.h"
 569               		.file 9 "lib/lufa/LUFA/Drivers/USB/Core/USBTask.h"
 570               		.file 10 "lib/lufa/LUFA/Drivers/USB/Core/HostStandardReq.h"
 571               		.file 11 "tmk_core/common/report.h"
 572               		.file 12 "tmk_core/common/host.h"
 573               		.file 13 "tmk_core/common/debug.h"
 574               		.file 14 "quantum/keycode_config.h"
 575               		.file 15 "tmk_core/common/keycode.h"
 576               		.file 16 "quantum/quantum_keycodes.h"
 577               		.file 17 "quantum/keymap.h"
 578               		.file 18 "./quantum/color.h"
 579               		.file 19 "quantum/rgblight.h"
 580               		.file 20 "tmk_core/common/action_layer.h"
 581               		.file 21 "tmk_core/common/timer.h"
 582               		.file 22 "tmk_core/common/action_util.h"
 583               		.file 23 "/usr/local/Cellar/avr-gcc@8/8.4.0/avr/include/stdlib.h"
 584               		.file 24 "quantum/process_keycode/process_unicode_common.h"
 585               		.file 25 "quantum/quantum.h"