Archive member included to satisfy reference by file (symbol)

.build/obj_ergodox_ez_sfgabe_80_underglow/i2c_master.a(i2c_master.o)
                              .build/obj_ergodox_ez_sfgabe_80_underglow/led_i2c.o (i2c_init)
/usr/local/Cellar/avr-gcc@8/8.4.0/lib/avr-gcc/8/gcc/avr/8.4.0/avr5/libgcc.a(_udivmodqi4.o)
                              .build/obj_ergodox_ez_sfgabe_80_underglow/quantum/rgblight.o (__udivmodqi4)
/usr/local/Cellar/avr-gcc@8/8.4.0/lib/avr-gcc/8/gcc/avr/8.4.0/avr5/libgcc.a(_divmodqi4.o)
                              .build/obj_ergodox_ez_sfgabe_80_underglow/quantum/rgblight.o (__divmodqi4)
/usr/local/Cellar/avr-gcc@8/8.4.0/lib/avr-gcc/8/gcc/avr/8.4.0/avr5/libgcc.a(_udivmodhi4.o)
                              .build/obj_ergodox_ez_sfgabe_80_underglow/quantum/debounce/sym_eager_pr.o (__udivmodhi4)
/usr/local/Cellar/avr-gcc@8/8.4.0/lib/avr-gcc/8/gcc/avr/8.4.0/avr5/libgcc.a(_divmodhi4.o)
                              .build/obj_ergodox_ez_sfgabe_80_underglow/quantum/rgblight.o (__divmodhi4)
/usr/local/Cellar/avr-gcc@8/8.4.0/lib/avr-gcc/8/gcc/avr/8.4.0/avr5/libgcc.a(_udivmodsi4.o)
                              .build/obj_ergodox_ez_sfgabe_80_underglow/quantum/rgblight.o (__udivmodsi4)
/usr/local/Cellar/avr-gcc@8/8.4.0/lib/avr-gcc/8/gcc/avr/8.4.0/avr5/libgcc.a(_exit.o)
                              /usr/local/Cellar/avr-gcc@8/8.4.0/lib/avr-gcc/8/gcc/avr/8.4.0/../../../../../../avr/lib/avr5/crtatmega32u4.o (exit)
/usr/local/Cellar/avr-gcc@8/8.4.0/lib/avr-gcc/8/gcc/avr/8.4.0/avr5/libgcc.a(_tablejump2.o)
                              .build/obj_ergodox_ez_sfgabe_80_underglow/quantum/process_keycode/process_rgb.o (__tablejump2__)
/usr/local/Cellar/avr-gcc@8/8.4.0/lib/avr-gcc/8/gcc/avr/8.4.0/avr5/libgcc.a(_copy_data.o)
                              .build/obj_ergodox_ez_sfgabe_80_underglow/keyboards/ergodox_ez/ergodox_ez.o (__do_copy_data)
/usr/local/Cellar/avr-gcc@8/8.4.0/lib/avr-gcc/8/gcc/avr/8.4.0/avr5/libgcc.a(_clear_bss.o)
                              .build/obj_ergodox_ez_sfgabe_80_underglow/matrix.o (__do_clear_bss)
/usr/local/Cellar/avr-gcc@8/8.4.0/lib/avr-gcc/8/gcc/avr/8.4.0/avr5/libgcc.a(_mulhisi3.o)
                              .build/obj_ergodox_ez_sfgabe_80_underglow/quantum/rgblight.o (__mulhisi3)
/usr/local/Cellar/avr-gcc@8/8.4.0/lib/avr-gcc/8/gcc/avr/8.4.0/avr5/libgcc.a(_umulhisi3.o)
                              .build/obj_ergodox_ez_sfgabe_80_underglow/quantum/rgblight.o (__umulhisi3)
/usr/local/Cellar/avr-gcc@8/8.4.0/lib/avr-gcc/8/gcc/avr/8.4.0/avr5/libgcc.a(_usmulhisi3.o)
                              /usr/local/Cellar/avr-gcc@8/8.4.0/lib/avr-gcc/8/gcc/avr/8.4.0/avr5/libgcc.a(_mulhisi3.o) (__usmulhisi3_tail)
/usr/local/Cellar/avr-gcc@8/8.4.0/lib/avr-gcc/8/gcc/avr/8.4.0/avr5/libgcc.a(_muluhisi3.o)
                              .build/obj_ergodox_ez_sfgabe_80_underglow/quantum/rgblight.o (__muluhisi3)
/usr/local/Cellar/avr-gcc@8/8.4.0/lib/avr-gcc/8/gcc/avr/8.4.0/avr5/libgcc.a(_mulshisi3.o)
                              .build/obj_ergodox_ez_sfgabe_80_underglow/quantum/rgblight.o (__mulshisi3)
/usr/local/Cellar/avr-gcc@8/8.4.0/lib/avr-gcc/8/gcc/avr/8.4.0/../../../../../../avr/lib/avr5/libc.a(malloc.o)
                              .build/obj_ergodox_ez_sfgabe_80_underglow/quantum/debounce/sym_eager_pr.o (malloc)
/usr/local/Cellar/avr-gcc@8/8.4.0/lib/avr-gcc/8/gcc/avr/8.4.0/../../../../../../avr/lib/avr5/libc.a(rand.o)
                              .build/obj_ergodox_ez_sfgabe_80_underglow/quantum/rgblight.o (rand)
/usr/local/Cellar/avr-gcc@8/8.4.0/lib/avr-gcc/8/gcc/avr/8.4.0/../../../../../../avr/lib/avr5/libc.a(tolower.o)
                              .build/obj_ergodox_ez_sfgabe_80_underglow/quantum/process_keycode/process_unicode_common.o (tolower)
/usr/local/Cellar/avr-gcc@8/8.4.0/lib/avr-gcc/8/gcc/avr/8.4.0/../../../../../../avr/lib/avr5/libc.a(memchr.o)
                              .build/obj_ergodox_ez_sfgabe_80_underglow/quantum/rgblight.o (memchr)
/usr/local/Cellar/avr-gcc@8/8.4.0/lib/avr-gcc/8/gcc/avr/8.4.0/../../../../../../avr/lib/avr5/libc.a(strcspn.o)
                              .build/obj_ergodox_ez_sfgabe_80_underglow/quantum/process_keycode/process_unicode_common.o (strcspn)
/usr/local/Cellar/avr-gcc@8/8.4.0/lib/avr-gcc/8/gcc/avr/8.4.0/../../../../../../avr/lib/avr5/libc.a(strncpy.o)
                              .build/obj_ergodox_ez_sfgabe_80_underglow/quantum/process_keycode/process_unicode_common.o (strncpy)
/usr/local/Cellar/avr-gcc@8/8.4.0/lib/avr-gcc/8/gcc/avr/8.4.0/../../../../../../avr/lib/avr5/libc.a(snprintf.o)
                              .build/obj_ergodox_ez_sfgabe_80_underglow/quantum/process_keycode/process_auto_shift.o (snprintf)
/usr/local/Cellar/avr-gcc@8/8.4.0/lib/avr-gcc/8/gcc/avr/8.4.0/../../../../../../avr/lib/avr5/libc.a(vfprintf_std.o)
                              /usr/local/Cellar/avr-gcc@8/8.4.0/lib/avr-gcc/8/gcc/avr/8.4.0/../../../../../../avr/lib/avr5/libc.a(snprintf.o) (vfprintf)
/usr/local/Cellar/avr-gcc@8/8.4.0/lib/avr-gcc/8/gcc/avr/8.4.0/../../../../../../avr/lib/avr5/libc.a(strnlen_P.o)
                              /usr/local/Cellar/avr-gcc@8/8.4.0/lib/avr-gcc/8/gcc/avr/8.4.0/../../../../../../avr/lib/avr5/libc.a(vfprintf_std.o) (strnlen_P)
/usr/local/Cellar/avr-gcc@8/8.4.0/lib/avr-gcc/8/gcc/avr/8.4.0/../../../../../../avr/lib/avr5/libc.a(strnlen.o)
                              /usr/local/Cellar/avr-gcc@8/8.4.0/lib/avr-gcc/8/gcc/avr/8.4.0/../../../../../../avr/lib/avr5/libc.a(vfprintf_std.o) (strnlen)
/usr/local/Cellar/avr-gcc@8/8.4.0/lib/avr-gcc/8/gcc/avr/8.4.0/../../../../../../avr/lib/avr5/libc.a(fputc.o)
                              /usr/local/Cellar/avr-gcc@8/8.4.0/lib/avr-gcc/8/gcc/avr/8.4.0/../../../../../../avr/lib/avr5/libc.a(vfprintf_std.o) (fputc)
/usr/local/Cellar/avr-gcc@8/8.4.0/lib/avr-gcc/8/gcc/avr/8.4.0/../../../../../../avr/lib/avr5/libc.a(ultoa_invert.o)
                              /usr/local/Cellar/avr-gcc@8/8.4.0/lib/avr-gcc/8/gcc/avr/8.4.0/../../../../../../avr/lib/avr5/libc.a(vfprintf_std.o) (__ultoa_invert)
/usr/local/Cellar/avr-gcc@8/8.4.0/lib/avr-gcc/8/gcc/avr/8.4.0/../../../../../../avr/lib/avr5/libatmega32u4.a(eerd_byte.o)
                              .build/obj_ergodox_ez_sfgabe_80_underglow/quantum/process_keycode/process_unicode_common.o (eeprom_read_byte)
/usr/local/Cellar/avr-gcc@8/8.4.0/lib/avr-gcc/8/gcc/avr/8.4.0/../../../../../../avr/lib/avr5/libatmega32u4.a(eerd_dword.o)
                              .build/obj_ergodox_ez_sfgabe_80_underglow/quantum/rgblight.o (eeprom_read_dword)
/usr/local/Cellar/avr-gcc@8/8.4.0/lib/avr-gcc/8/gcc/avr/8.4.0/../../../../../../avr/lib/avr5/libatmega32u4.a(eerd_word.o)
                              .build/obj_ergodox_ez_sfgabe_80_underglow/common/eeconfig.o (eeprom_read_word)
/usr/local/Cellar/avr-gcc@8/8.4.0/lib/avr-gcc/8/gcc/avr/8.4.0/../../../../../../avr/lib/avr5/libatmega32u4.a(eeupd_byte.o)
                              .build/obj_ergodox_ez_sfgabe_80_underglow/quantum/process_keycode/process_unicode_common.o (eeprom_update_byte)
/usr/local/Cellar/avr-gcc@8/8.4.0/lib/avr-gcc/8/gcc/avr/8.4.0/../../../../../../avr/lib/avr5/libatmega32u4.a(eeupd_dword.o)
                              .build/obj_ergodox_ez_sfgabe_80_underglow/quantum/rgblight.o (eeprom_update_dword)
/usr/local/Cellar/avr-gcc@8/8.4.0/lib/avr-gcc/8/gcc/avr/8.4.0/../../../../../../avr/lib/avr5/libatmega32u4.a(eeupd_word.o)
                              .build/obj_ergodox_ez_sfgabe_80_underglow/common/eeconfig.o (eeprom_update_word)
/usr/local/Cellar/avr-gcc@8/8.4.0/lib/avr-gcc/8/gcc/avr/8.4.0/../../../../../../avr/lib/avr5/libatmega32u4.a(eerd_block.o)
                              /usr/local/Cellar/avr-gcc@8/8.4.0/lib/avr-gcc/8/gcc/avr/8.4.0/../../../../../../avr/lib/avr5/libatmega32u4.a(eerd_dword.o) (eeprom_read_blraw)
/usr/local/Cellar/avr-gcc@8/8.4.0/lib/avr-gcc/8/gcc/avr/8.4.0/avr5/libgcc.a(_divmodsi4.o)
                              /usr/local/Cellar/avr-gcc@8/8.4.0/lib/avr-gcc/8/gcc/avr/8.4.0/../../../../../../avr/lib/avr5/libc.a(rand.o) (__divmodsi4)
/usr/local/Cellar/avr-gcc@8/8.4.0/lib/avr-gcc/8/gcc/avr/8.4.0/avr5/libgcc.a(_negsi2.o)
                              /usr/local/Cellar/avr-gcc@8/8.4.0/lib/avr-gcc/8/gcc/avr/8.4.0/avr5/libgcc.a(_divmodsi4.o) (__negsi2)
/usr/local/Cellar/avr-gcc@8/8.4.0/lib/avr-gcc/8/gcc/avr/8.4.0/avr5/libgcc.a(_prologue.o)
                              /usr/local/Cellar/avr-gcc@8/8.4.0/lib/avr-gcc/8/gcc/avr/8.4.0/../../../../../../avr/lib/avr5/libc.a(snprintf.o) (__prologue_saves__)
/usr/local/Cellar/avr-gcc@8/8.4.0/lib/avr-gcc/8/gcc/avr/8.4.0/avr5/libgcc.a(_epilogue.o)
                              /usr/local/Cellar/avr-gcc@8/8.4.0/lib/avr-gcc/8/gcc/avr/8.4.0/../../../../../../avr/lib/avr5/libc.a(snprintf.o) (__epilogue_restores__)

Allocating common symbols
Common symbol       size              file

rgblight_config     0x5               .build/obj_ergodox_ez_sfgabe_80_underglow/quantum/rgblight.o
USB_IsInitialized   0x1               .build/obj_ergodox_ez_sfgabe_80_underglow/lib/lufa/LUFA/Drivers/USB/Core/USBTask.o
keymap_config       0x2               .build/obj_ergodox_ez_sfgabe_80_underglow/common/magic.o
keyboard_config     0x4               .build/obj_ergodox_ez_sfgabe_80_underglow/keyboards/ergodox_ez/ergodox_ez.o
unicode_config      0x4               .build/obj_ergodox_ez_sfgabe_80_underglow/quantum/process_keycode/process_unicode_common.o
USB_DeviceState     0x1               .build/obj_ergodox_ez_sfgabe_80_underglow/lib/lufa/LUFA/Drivers/USB/Core/USBTask.o
__brkval            0x2               /usr/local/Cellar/avr-gcc@8/8.4.0/lib/avr-gcc/8/gcc/avr/8.4.0/../../../../../../avr/lib/avr5/libc.a(malloc.o)
unicode_saved_mods  0x1               .build/obj_ergodox_ez_sfgabe_80_underglow/quantum/process_keycode/process_unicode_common.o
USB_Device_ConfigurationNumber
                    0x1               .build/obj_ergodox_ez_sfgabe_80_underglow/lib/lufa/LUFA/Drivers/USB/Core/DeviceStandardReq.o
led                 0x5a              .build/obj_ergodox_ez_sfgabe_80_underglow/quantum/rgblight.o
raw_matrix          0xe               .build/obj_ergodox_ez_sfgabe_80_underglow/quantum/matrix_common.o
USB_Device_CurrentlySelfPowered
                    0x1               .build/obj_ergodox_ez_sfgabe_80_underglow/lib/lufa/LUFA/Drivers/USB/Core/DeviceStandardReq.o
matrix              0xe               .build/obj_ergodox_ez_sfgabe_80_underglow/quantum/matrix_common.o
USB_ControlRequest  0x8               .build/obj_ergodox_ez_sfgabe_80_underglow/lib/lufa/LUFA/Drivers/USB/Core/USBTask.o
tp_buttons          0x2               .build/obj_ergodox_ez_sfgabe_80_underglow/common/action.o
USB_Device_RemoteWakeupEnabled
                    0x1               .build/obj_ergodox_ez_sfgabe_80_underglow/lib/lufa/LUFA/Drivers/USB/Core/DeviceStandardReq.o
__flp               0x2               /usr/local/Cellar/avr-gcc@8/8.4.0/lib/avr-gcc/8/gcc/avr/8.4.0/../../../../../../avr/lib/avr5/libc.a(malloc.o)
timer_count         0x4               .build/obj_ergodox_ez_sfgabe_80_underglow/common/avr/timer.o

Discarded input sections

 .data          0x0000000000000000        0x0 /usr/local/Cellar/avr-gcc@8/8.4.0/lib/avr-gcc/8/gcc/avr/8.4.0/../../../../../../avr/lib/avr5/crtatmega32u4.o
 .bss           0x0000000000000000        0x0 /usr/local/Cellar/avr-gcc@8/8.4.0/lib/avr-gcc/8/gcc/avr/8.4.0/../../../../../../avr/lib/avr5/crtatmega32u4.o
 .text          0x0000000000000000        0x0 .build/obj_ergodox_ez_sfgabe_80_underglow/matrix.o
 .data          0x0000000000000000        0x0 .build/obj_ergodox_ez_sfgabe_80_underglow/matrix.o
 .bss           0x0000000000000000        0x0 .build/obj_ergodox_ez_sfgabe_80_underglow/matrix.o
 .text          0x0000000000000000        0x0 .build/obj_ergodox_ez_sfgabe_80_underglow/led_i2c.o
 .data          0x0000000000000000        0x0 .build/obj_ergodox_ez_sfgabe_80_underglow/led_i2c.o
 .bss           0x0000000000000000        0x0 .build/obj_ergodox_ez_sfgabe_80_underglow/led_i2c.o
 .text          0x0000000000000000        0x0 .build/obj_ergodox_ez_sfgabe_80_underglow/keyboards/ergodox_ez/ergodox_ez.o
 .data          0x0000000000000000        0x0 .build/obj_ergodox_ez_sfgabe_80_underglow/keyboards/ergodox_ez/ergodox_ez.o
 .bss           0x0000000000000000        0x0 .build/obj_ergodox_ez_sfgabe_80_underglow/keyboards/ergodox_ez/ergodox_ez.o
 .text.ergodox_board_led_on
                0x0000000000000000        0x6 .build/obj_ergodox_ez_sfgabe_80_underglow/keyboards/ergodox_ez/ergodox_ez.o
 .text.ergodox_right_led_on
                0x0000000000000000       0x1e .build/obj_ergodox_ez_sfgabe_80_underglow/keyboards/ergodox_ez/ergodox_ez.o
 .text.ergodox_right_led_off
                0x0000000000000000       0x1e .build/obj_ergodox_ez_sfgabe_80_underglow/keyboards/ergodox_ez/ergodox_ez.o
 .text.ergodox_led_all_on
                0x0000000000000000       0x10 .build/obj_ergodox_ez_sfgabe_80_underglow/keyboards/ergodox_ez/ergodox_ez.o
 .text.ergodox_right_led_1_set
                0x0000000000000000        0xc .build/obj_ergodox_ez_sfgabe_80_underglow/keyboards/ergodox_ez/ergodox_ez.o
 .text.ergodox_right_led_2_set
                0x0000000000000000        0xc .build/obj_ergodox_ez_sfgabe_80_underglow/keyboards/ergodox_ez/ergodox_ez.o
 .text.ergodox_right_led_3_set
                0x0000000000000000        0xc .build/obj_ergodox_ez_sfgabe_80_underglow/keyboards/ergodox_ez/ergodox_ez.o
 .text.ergodox_right_led_set
                0x0000000000000000       0x28 .build/obj_ergodox_ez_sfgabe_80_underglow/keyboards/ergodox_ez/ergodox_ez.o
 .text          0x0000000000000000        0x0 .build/obj_ergodox_ez_sfgabe_80_underglow/keyboards/ergodox_ez/keymaps/sfgabe_80_underglow/keymap.o
 .data          0x0000000000000000        0x0 .build/obj_ergodox_ez_sfgabe_80_underglow/keyboards/ergodox_ez/keymaps/sfgabe_80_underglow/keymap.o
 .bss           0x0000000000000000        0x0 .build/obj_ergodox_ez_sfgabe_80_underglow/keyboards/ergodox_ez/keymaps/sfgabe_80_underglow/keymap.o
 .text          0x0000000000000000        0x0 .build/obj_ergodox_ez_sfgabe_80_underglow/quantum/quantum.o
 .data          0x0000000000000000        0x0 .build/obj_ergodox_ez_sfgabe_80_underglow/quantum/quantum.o
 .bss           0x0000000000000000        0x0 .build/obj_ergodox_ez_sfgabe_80_underglow/quantum/quantum.o
 .text.send_string_with_delay_P
                0x0000000000000000       0xd4 .build/obj_ergodox_ez_sfgabe_80_underglow/quantum/quantum.o
 .text.send_string_P
                0x0000000000000000        0x6 .build/obj_ergodox_ez_sfgabe_80_underglow/quantum/quantum.o
 .text.set_single_persistent_default_layer
                0x0000000000000000       0x26 .build/obj_ergodox_ez_sfgabe_80_underglow/quantum/quantum.o
 .text.update_tri_layer_state
                0x0000000000000000       0xa8 .build/obj_ergodox_ez_sfgabe_80_underglow/quantum/quantum.o
 .text.update_tri_layer
                0x0000000000000000       0x24 .build/obj_ergodox_ez_sfgabe_80_underglow/quantum/quantum.o
 .text.tap_random_base64
                0x0000000000000000       0x90 .build/obj_ergodox_ez_sfgabe_80_underglow/quantum/quantum.o
 .text.send_nibble
                0x0000000000000000       0x30 .build/obj_ergodox_ez_sfgabe_80_underglow/quantum/quantum.o
 .text.send_byte
                0x0000000000000000       0x16 .build/obj_ergodox_ez_sfgabe_80_underglow/quantum/quantum.o
 .text.send_word
                0x0000000000000000       0x12 .build/obj_ergodox_ez_sfgabe_80_underglow/quantum/quantum.o
 .text.send_dword
                0x0000000000000000       0x1c .build/obj_ergodox_ez_sfgabe_80_underglow/quantum/quantum.o
 .text.api_send_unicode
                0x0000000000000000        0x2 .build/obj_ergodox_ez_sfgabe_80_underglow/quantum/quantum.o
 .text.led_init_ports
                0x0000000000000000        0x2 .build/obj_ergodox_ez_sfgabe_80_underglow/quantum/quantum.o
 .text.startup_user
                0x0000000000000000        0x2 .build/obj_ergodox_ez_sfgabe_80_underglow/quantum/quantum.o
 .text          0x0000000000000000        0x0 .build/obj_ergodox_ez_sfgabe_80_underglow/quantum/keymap_common.o
 .data          0x0000000000000000        0x0 .build/obj_ergodox_ez_sfgabe_80_underglow/quantum/keymap_common.o
 .bss           0x0000000000000000        0x0 .build/obj_ergodox_ez_sfgabe_80_underglow/quantum/keymap_common.o
 .text.action_get_macro
                0x0000000000000000        0x6 .build/obj_ergodox_ez_sfgabe_80_underglow/quantum/keymap_common.o
 .text.action_function
                0x0000000000000000        0x2 .build/obj_ergodox_ez_sfgabe_80_underglow/quantum/keymap_common.o
 .text.keymap_function_id_to_action
                0x0000000000000000       0x10 .build/obj_ergodox_ez_sfgabe_80_underglow/quantum/keymap_common.o
 .progmem.data.fn_actions
                0x0000000000000000        0x0 .build/obj_ergodox_ez_sfgabe_80_underglow/quantum/keymap_common.o
 .text          0x0000000000000000        0x0 .build/obj_ergodox_ez_sfgabe_80_underglow/quantum/keycode_config.o
 .data          0x0000000000000000        0x0 .build/obj_ergodox_ez_sfgabe_80_underglow/quantum/keycode_config.o
 .bss           0x0000000000000000        0x0 .build/obj_ergodox_ez_sfgabe_80_underglow/quantum/keycode_config.o
 .text          0x0000000000000000        0x0 .build/obj_ergodox_ez_sfgabe_80_underglow/quantum/matrix_common.o
 .data          0x0000000000000000        0x0 .build/obj_ergodox_ez_sfgabe_80_underglow/quantum/matrix_common.o
 .bss           0x0000000000000000        0x0 .build/obj_ergodox_ez_sfgabe_80_underglow/quantum/matrix_common.o
 .text.matrix_init_user
                0x0000000000000000        0x2 .build/obj_ergodox_ez_sfgabe_80_underglow/quantum/matrix_common.o
 .text.matrix_init_kb
                0x0000000000000000        0x4 .build/obj_ergodox_ez_sfgabe_80_underglow/quantum/matrix_common.o
 .text.matrix_scan_user
                0x0000000000000000        0x2 .build/obj_ergodox_ez_sfgabe_80_underglow/quantum/matrix_common.o
 .text.matrix_rows
                0x0000000000000000        0x4 .build/obj_ergodox_ez_sfgabe_80_underglow/quantum/matrix_common.o
 .text.matrix_cols
                0x0000000000000000        0x4 .build/obj_ergodox_ez_sfgabe_80_underglow/quantum/matrix_common.o
 .text.matrix_is_on
                0x0000000000000000       0x28 .build/obj_ergodox_ez_sfgabe_80_underglow/quantum/matrix_common.o
 .text.matrix_is_modified
                0x0000000000000000        0xa .build/obj_ergodox_ez_sfgabe_80_underglow/quantum/matrix_common.o
 .text.matrix_key_count
                0x0000000000000000       0x2a .build/obj_ergodox_ez_sfgabe_80_underglow/quantum/matrix_common.o
 .text.matrix_io_delay
                0x0000000000000000        0x8 .build/obj_ergodox_ez_sfgabe_80_underglow/quantum/matrix_common.o
 .text.matrix_init_custom
                0x0000000000000000        0x2 .build/obj_ergodox_ez_sfgabe_80_underglow/quantum/matrix_common.o
 .text.matrix_scan_custom
                0x0000000000000000        0x4 .build/obj_ergodox_ez_sfgabe_80_underglow/quantum/matrix_common.o
 .text.peek_matrix
                0x0000000000000000       0x24 .build/obj_ergodox_ez_sfgabe_80_underglow/quantum/matrix_common.o
 .text          0x0000000000000000        0x0 .build/obj_ergodox_ez_sfgabe_80_underglow/quantum/debounce/sym_eager_pr.o
 .data          0x0000000000000000        0x0 .build/obj_ergodox_ez_sfgabe_80_underglow/quantum/debounce/sym_eager_pr.o
 .bss           0x0000000000000000        0x0 .build/obj_ergodox_ez_sfgabe_80_underglow/quantum/debounce/sym_eager_pr.o
 .text.debounce_active
                0x0000000000000000        0x4 .build/obj_ergodox_ez_sfgabe_80_underglow/quantum/debounce/sym_eager_pr.o
 .text          0x0000000000000000        0x0 .build/obj_ergodox_ez_sfgabe_80_underglow/quantum/color.o
 .data          0x0000000000000000        0x0 .build/obj_ergodox_ez_sfgabe_80_underglow/quantum/color.o
 .bss           0x0000000000000000        0x0 .build/obj_ergodox_ez_sfgabe_80_underglow/quantum/color.o
 .text.hsv_to_rgb_nocie
                0x0000000000000000        0x6 .build/obj_ergodox_ez_sfgabe_80_underglow/quantum/color.o
 .text          0x0000000000000000        0x0 .build/obj_ergodox_ez_sfgabe_80_underglow/quantum/rgblight.o
 .data          0x0000000000000000        0x0 .build/obj_ergodox_ez_sfgabe_80_underglow/quantum/rgblight.o
 .bss           0x0000000000000000        0x0 .build/obj_ergodox_ez_sfgabe_80_underglow/quantum/rgblight.o
 .text.rgblight_set_clipping_range
                0x0000000000000000        0xa .build/obj_ergodox_ez_sfgabe_80_underglow/quantum/rgblight.o
 .text.rgblight_set_effect_range
                0x0000000000000000       0x22 .build/obj_ergodox_ez_sfgabe_80_underglow/quantum/rgblight.o
 .text.sethsv   0x0000000000000000        0x4 .build/obj_ergodox_ez_sfgabe_80_underglow/quantum/rgblight.o
 .text.setrgb   0x0000000000000000        0xa .build/obj_ergodox_ez_sfgabe_80_underglow/quantum/rgblight.o
 .text.eeconfig_update_rgblight_current
                0x0000000000000000       0x14 .build/obj_ergodox_ez_sfgabe_80_underglow/quantum/rgblight.o
 .text.eeconfig_debug_rgblight
                0x0000000000000000        0x2 .build/obj_ergodox_ez_sfgabe_80_underglow/quantum/rgblight.o
 .text.rgblight_read_dword
                0x0000000000000000       0x12 .build/obj_ergodox_ez_sfgabe_80_underglow/quantum/rgblight.o
 .text.rgblight_is_enabled
                0x0000000000000000        0x8 .build/obj_ergodox_ez_sfgabe_80_underglow/quantum/rgblight.o
 .text.rgblight_increase_speed_noeeprom
                0x0000000000000000        0x6 .build/obj_ergodox_ez_sfgabe_80_underglow/quantum/rgblight.o
 .text.rgblight_decrease_speed_noeeprom
                0x0000000000000000        0x6 .build/obj_ergodox_ez_sfgabe_80_underglow/quantum/rgblight.o
 .text.rgblight_get_speed
                0x0000000000000000        0x6 .build/obj_ergodox_ez_sfgabe_80_underglow/quantum/rgblight.o
 .text.rgblight_set_speed_eeprom_helper
                0x0000000000000000       0x1e .build/obj_ergodox_ez_sfgabe_80_underglow/quantum/rgblight.o
 .text.rgblight_set_speed
                0x0000000000000000        0x6 .build/obj_ergodox_ez_sfgabe_80_underglow/quantum/rgblight.o
 .text.rgblight_set_speed_noeeprom
                0x0000000000000000        0x6 .build/obj_ergodox_ez_sfgabe_80_underglow/quantum/rgblight.o
 .text.rgblight_get_hue
                0x0000000000000000        0x6 .build/obj_ergodox_ez_sfgabe_80_underglow/quantum/rgblight.o
 .text.rgblight_get_sat
                0x0000000000000000        0x6 .build/obj_ergodox_ez_sfgabe_80_underglow/quantum/rgblight.o
 .text.rgblight_get_val
                0x0000000000000000        0x6 .build/obj_ergodox_ez_sfgabe_80_underglow/quantum/rgblight.o
 .text.rgblight_get_hsv
                0x0000000000000000        0xc .build/obj_ergodox_ez_sfgabe_80_underglow/quantum/rgblight.o
 .text.rgblight_call_driver
                0x0000000000000000        0x6 .build/obj_ergodox_ez_sfgabe_80_underglow/quantum/rgblight.o
 .text.rgblight_increase_hue_noeeprom
                0x0000000000000000        0x6 .build/obj_ergodox_ez_sfgabe_80_underglow/quantum/rgblight.o
 .text.rgblight_decrease_hue_noeeprom
                0x0000000000000000        0x6 .build/obj_ergodox_ez_sfgabe_80_underglow/quantum/rgblight.o
 .text.rgblight_increase_sat_noeeprom
                0x0000000000000000        0x6 .build/obj_ergodox_ez_sfgabe_80_underglow/quantum/rgblight.o
 .text.rgblight_decrease_sat_noeeprom
                0x0000000000000000        0x6 .build/obj_ergodox_ez_sfgabe_80_underglow/quantum/rgblight.o
 .text.rgblight_increase_val_noeeprom
                0x0000000000000000        0x6 .build/obj_ergodox_ez_sfgabe_80_underglow/quantum/rgblight.o
 .text.rgblight_decrease_val_noeeprom
                0x0000000000000000        0x6 .build/obj_ergodox_ez_sfgabe_80_underglow/quantum/rgblight.o
 .text.rgblight_sethsv
                0x0000000000000000        0x6 .build/obj_ergodox_ez_sfgabe_80_underglow/quantum/rgblight.o
 .text.rgblight_setrgb_at
                0x0000000000000000       0x28 .build/obj_ergodox_ez_sfgabe_80_underglow/quantum/rgblight.o
 .text.rgblight_sethsv_at
                0x0000000000000000       0x3c .build/obj_ergodox_ez_sfgabe_80_underglow/quantum/rgblight.o
 .text.rgblight_setrgb_range
                0x0000000000000000       0x40 .build/obj_ergodox_ez_sfgabe_80_underglow/quantum/rgblight.o
 .text.rgblight_sethsv_range
                0x0000000000000000       0x40 .build/obj_ergodox_ez_sfgabe_80_underglow/quantum/rgblight.o
 .text.rgblight_sethsv_master
                0x0000000000000000        0xe .build/obj_ergodox_ez_sfgabe_80_underglow/quantum/rgblight.o
 .text.rgblight_sethsv_slave
                0x0000000000000000        0xe .build/obj_ergodox_ez_sfgabe_80_underglow/quantum/rgblight.o
 .text.rgblight_setrgb_master
                0x0000000000000000        0xe .build/obj_ergodox_ez_sfgabe_80_underglow/quantum/rgblight.o
 .text.rgblight_setrgb_slave
                0x0000000000000000        0xe .build/obj_ergodox_ez_sfgabe_80_underglow/quantum/rgblight.o
 .text.rgblight_timer_init
                0x0000000000000000        0x6 .build/obj_ergodox_ez_sfgabe_80_underglow/quantum/rgblight.o
 .text.rgblight_step_noeeprom
                0x0000000000000000        0x6 .build/obj_ergodox_ez_sfgabe_80_underglow/quantum/rgblight.o
 .text.rgblight_step_reverse_noeeprom
                0x0000000000000000        0x6 .build/obj_ergodox_ez_sfgabe_80_underglow/quantum/rgblight.o
 .text.rgblight_increase
                0x0000000000000000       0x14 .build/obj_ergodox_ez_sfgabe_80_underglow/quantum/rgblight.o
 .text.rgblight_decrease
                0x0000000000000000       0x14 .build/obj_ergodox_ez_sfgabe_80_underglow/quantum/rgblight.o
 .text.rgblight_toggle_noeeprom
                0x0000000000000000        0xe .build/obj_ergodox_ez_sfgabe_80_underglow/quantum/rgblight.o
 .text.rgblight_update_dword
                0x0000000000000000       0x24 .build/obj_ergodox_ez_sfgabe_80_underglow/quantum/rgblight.o
 .text.rgblight_timer_toggle
                0x0000000000000000       0x12 .build/obj_ergodox_ez_sfgabe_80_underglow/quantum/rgblight.o
 .text.rgblight_show_solid_color
                0x0000000000000000       0x26 .build/obj_ergodox_ez_sfgabe_80_underglow/quantum/rgblight.o
 .text          0x0000000000000000        0x0 .build/obj_ergodox_ez_sfgabe_80_underglow/quantum/process_keycode/process_rgb.o
 .data          0x0000000000000000        0x0 .build/obj_ergodox_ez_sfgabe_80_underglow/quantum/process_keycode/process_rgb.o
 .bss           0x0000000000000000        0x0 .build/obj_ergodox_ez_sfgabe_80_underglow/quantum/process_keycode/process_rgb.o
 .text.rgblight_step
                0x0000000000000000        0x2 .build/obj_ergodox_ez_sfgabe_80_underglow/quantum/process_keycode/process_rgb.o
 .text.rgblight_step_reverse
                0x0000000000000000        0x2 .build/obj_ergodox_ez_sfgabe_80_underglow/quantum/process_keycode/process_rgb.o
 .text.rgblight_increase_hue
                0x0000000000000000        0x2 .build/obj_ergodox_ez_sfgabe_80_underglow/quantum/process_keycode/process_rgb.o
 .text.rgblight_decrease_hue
                0x0000000000000000        0x2 .build/obj_ergodox_ez_sfgabe_80_underglow/quantum/process_keycode/process_rgb.o
 .text.rgblight_increase_sat
                0x0000000000000000        0x2 .build/obj_ergodox_ez_sfgabe_80_underglow/quantum/process_keycode/process_rgb.o
 .text.rgblight_decrease_sat
                0x0000000000000000        0x2 .build/obj_ergodox_ez_sfgabe_80_underglow/quantum/process_keycode/process_rgb.o
 .text.rgblight_increase_val
                0x0000000000000000        0x2 .build/obj_ergodox_ez_sfgabe_80_underglow/quantum/process_keycode/process_rgb.o
 .text.rgblight_decrease_val
                0x0000000000000000        0x2 .build/obj_ergodox_ez_sfgabe_80_underglow/quantum/process_keycode/process_rgb.o
 .text.rgblight_increase_speed
                0x0000000000000000        0x2 .build/obj_ergodox_ez_sfgabe_80_underglow/quantum/process_keycode/process_rgb.o
 .text.rgblight_decrease_speed
                0x0000000000000000        0x2 .build/obj_ergodox_ez_sfgabe_80_underglow/quantum/process_keycode/process_rgb.o
 .text.rgblight_toggle
                0x0000000000000000        0x2 .build/obj_ergodox_ez_sfgabe_80_underglow/quantum/process_keycode/process_rgb.o
 .text          0x0000000000000000        0x0 .build/obj_ergodox_ez_sfgabe_80_underglow/ws2812.o
 .data          0x0000000000000000        0x0 .build/obj_ergodox_ez_sfgabe_80_underglow/ws2812.o
 .bss           0x0000000000000000        0x0 .build/obj_ergodox_ez_sfgabe_80_underglow/ws2812.o
 .text          0x0000000000000000        0x0 .build/obj_ergodox_ez_sfgabe_80_underglow/quantum/led_tables.o
 .data          0x0000000000000000        0x0 .build/obj_ergodox_ez_sfgabe_80_underglow/quantum/led_tables.o
 .bss           0x0000000000000000        0x0 .build/obj_ergodox_ez_sfgabe_80_underglow/quantum/led_tables.o
 .text          0x0000000000000000        0x0 .build/obj_ergodox_ez_sfgabe_80_underglow/quantum/encoder.o
 .data          0x0000000000000000        0x0 .build/obj_ergodox_ez_sfgabe_80_underglow/quantum/encoder.o
 .bss           0x0000000000000000        0x0 .build/obj_ergodox_ez_sfgabe_80_underglow/quantum/encoder.o
 .text.encoder_update_user
                0x0000000000000000        0x2 .build/obj_ergodox_ez_sfgabe_80_underglow/quantum/encoder.o
 .text          0x0000000000000000        0x0 .build/obj_ergodox_ez_sfgabe_80_underglow/quantum/process_keycode/process_unicode.o
 .data          0x0000000000000000        0x0 .build/obj_ergodox_ez_sfgabe_80_underglow/quantum/process_keycode/process_unicode.o
 .bss           0x0000000000000000        0x0 .build/obj_ergodox_ez_sfgabe_80_underglow/quantum/process_keycode/process_unicode.o
 .text          0x0000000000000000        0x0 .build/obj_ergodox_ez_sfgabe_80_underglow/quantum/process_keycode/process_unicode_common.o
 .data          0x0000000000000000        0x0 .build/obj_ergodox_ez_sfgabe_80_underglow/quantum/process_keycode/process_unicode_common.o
 .bss           0x0000000000000000        0x0 .build/obj_ergodox_ez_sfgabe_80_underglow/quantum/process_keycode/process_unicode_common.o
 .text.get_unicode_input_mode
                0x0000000000000000        0x6 .build/obj_ergodox_ez_sfgabe_80_underglow/quantum/process_keycode/process_unicode_common.o
 .text.cycle_unicode_input_mode
                0x0000000000000000        0x2 .build/obj_ergodox_ez_sfgabe_80_underglow/quantum/process_keycode/process_unicode_common.o
 .text.set_unicode_input_mode
                0x0000000000000000        0x8 .build/obj_ergodox_ez_sfgabe_80_underglow/quantum/process_keycode/process_unicode_common.o
 .text.unicode_input_cancel
                0x0000000000000000       0x2a .build/obj_ergodox_ez_sfgabe_80_underglow/quantum/process_keycode/process_unicode_common.o
 .text.register_hex32
                0x0000000000000000       0x7c .build/obj_ergodox_ez_sfgabe_80_underglow/quantum/process_keycode/process_unicode_common.o
 .text.register_unicode
                0x0000000000000000       0x98 .build/obj_ergodox_ez_sfgabe_80_underglow/quantum/process_keycode/process_unicode_common.o
 .rodata.send_unicode_hex_string.str1.1
                0x0000000000000000        0x2 .build/obj_ergodox_ez_sfgabe_80_underglow/quantum/process_keycode/process_unicode_common.o
 .text.send_unicode_hex_string
                0x0000000000000000       0xd8 .build/obj_ergodox_ez_sfgabe_80_underglow/quantum/process_keycode/process_unicode_common.o
 .text.send_unicode_string
                0x0000000000000000      0x164 .build/obj_ergodox_ez_sfgabe_80_underglow/quantum/process_keycode/process_unicode_common.o
 .text          0x0000000000000000        0x0 .build/obj_ergodox_ez_sfgabe_80_underglow/quantum/process_keycode/process_space_cadet.o
 .data          0x0000000000000000        0x0 .build/obj_ergodox_ez_sfgabe_80_underglow/quantum/process_keycode/process_space_cadet.o
 .bss           0x0000000000000000        0x0 .build/obj_ergodox_ez_sfgabe_80_underglow/quantum/process_keycode/process_space_cadet.o
 .text          0x0000000000000000        0x0 .build/obj_ergodox_ez_sfgabe_80_underglow/quantum/process_keycode/process_magic.o
 .data          0x0000000000000000        0x0 .build/obj_ergodox_ez_sfgabe_80_underglow/quantum/process_keycode/process_magic.o
 .bss           0x0000000000000000        0x0 .build/obj_ergodox_ez_sfgabe_80_underglow/quantum/process_keycode/process_magic.o
 .text          0x0000000000000000        0x0 .build/obj_ergodox_ez_sfgabe_80_underglow/quantum/process_keycode/process_grave_esc.o
 .data          0x0000000000000000        0x0 .build/obj_ergodox_ez_sfgabe_80_underglow/quantum/process_keycode/process_grave_esc.o
 .bss           0x0000000000000000        0x0 .build/obj_ergodox_ez_sfgabe_80_underglow/quantum/process_keycode/process_grave_esc.o
 .text          0x0000000000000000        0x0 .build/obj_ergodox_ez_sfgabe_80_underglow/quantum/process_keycode/process_auto_shift.o
 .data          0x0000000000000000        0x0 .build/obj_ergodox_ez_sfgabe_80_underglow/quantum/process_keycode/process_auto_shift.o
 .bss           0x0000000000000000        0x0 .build/obj_ergodox_ez_sfgabe_80_underglow/quantum/process_keycode/process_auto_shift.o
 .text.autoshift_enable
                0x0000000000000000        0x8 .build/obj_ergodox_ez_sfgabe_80_underglow/quantum/process_keycode/process_auto_shift.o
 .text.get_autoshift_state
                0x0000000000000000        0x6 .build/obj_ergodox_ez_sfgabe_80_underglow/quantum/process_keycode/process_auto_shift.o
 .text.get_autoshift_timeout
                0x0000000000000000        0xa .build/obj_ergodox_ez_sfgabe_80_underglow/quantum/process_keycode/process_auto_shift.o
 .text.set_autoshift_timeout
                0x0000000000000000        0xa .build/obj_ergodox_ez_sfgabe_80_underglow/quantum/process_keycode/process_auto_shift.o
 .text          0x0000000000000000        0x0 .build/obj_ergodox_ez_sfgabe_80_underglow/i2c_master.a(i2c_master.o)
 .data          0x0000000000000000        0x0 .build/obj_ergodox_ez_sfgabe_80_underglow/i2c_master.a(i2c_master.o)
 .bss           0x0000000000000000        0x0 .build/obj_ergodox_ez_sfgabe_80_underglow/i2c_master.a(i2c_master.o)
 .text.i2c_read_ack
                0x0000000000000000       0x48 .build/obj_ergodox_ez_sfgabe_80_underglow/i2c_master.a(i2c_master.o)
 .text.i2c_transmit
                0x0000000000000000       0x4e .build/obj_ergodox_ez_sfgabe_80_underglow/i2c_master.a(i2c_master.o)
 .text.i2c_receive
                0x0000000000000000       0x82 .build/obj_ergodox_ez_sfgabe_80_underglow/i2c_master.a(i2c_master.o)
 .text.i2c_writeReg
                0x0000000000000000       0x5a .build/obj_ergodox_ez_sfgabe_80_underglow/i2c_master.a(i2c_master.o)
 .text.i2c_readReg
                0x0000000000000000       0x9e .build/obj_ergodox_ez_sfgabe_80_underglow/i2c_master.a(i2c_master.o)
 .text          0x0000000000000000        0x0 .build/obj_ergodox_ez_sfgabe_80_underglow/common/host.o
 .data          0x0000000000000000        0x0 .build/obj_ergodox_ez_sfgabe_80_underglow/common/host.o
 .bss           0x0000000000000000        0x0 .build/obj_ergodox_ez_sfgabe_80_underglow/common/host.o
 .text.host_get_driver
                0x0000000000000000        0xa .build/obj_ergodox_ez_sfgabe_80_underglow/common/host.o
 .text.host_keyboard_led_state
                0x0000000000000000       0x1a .build/obj_ergodox_ez_sfgabe_80_underglow/common/host.o
 .text.host_last_system_report
                0x0000000000000000        0xa .build/obj_ergodox_ez_sfgabe_80_underglow/common/host.o
 .text.host_last_consumer_report
                0x0000000000000000        0xa .build/obj_ergodox_ez_sfgabe_80_underglow/common/host.o
 .text          0x0000000000000000        0x0 .build/obj_ergodox_ez_sfgabe_80_underglow/common/keyboard.o
 .data          0x0000000000000000        0x0 .build/obj_ergodox_ez_sfgabe_80_underglow/common/keyboard.o
 .bss           0x0000000000000000        0x0 .build/obj_ergodox_ez_sfgabe_80_underglow/common/keyboard.o
 .text.keyboard_set_leds
                0x0000000000000000        0x4 .build/obj_ergodox_ez_sfgabe_80_underglow/common/keyboard.o
 .text          0x0000000000000000        0x0 .build/obj_ergodox_ez_sfgabe_80_underglow/common/action.o
 .data          0x0000000000000000        0x0 .build/obj_ergodox_ez_sfgabe_80_underglow/common/action.o
 .bss           0x0000000000000000        0x0 .build/obj_ergodox_ez_sfgabe_80_underglow/common/action.o
 .text.process_record_quantum
                0x0000000000000000        0x4 .build/obj_ergodox_ez_sfgabe_80_underglow/common/action.o
 .text.post_process_record_quantum
                0x0000000000000000        0x2 .build/obj_ergodox_ez_sfgabe_80_underglow/common/action.o
 .text.process_record_nocache
                0x0000000000000000       0x10 .build/obj_ergodox_ez_sfgabe_80_underglow/common/action.o
 .text.debug_action
                0x0000000000000000        0x2 .build/obj_ergodox_ez_sfgabe_80_underglow/common/action.o
 COMMON         0x0000000000000000        0x2 .build/obj_ergodox_ez_sfgabe_80_underglow/common/action.o
 .text          0x0000000000000000        0x0 .build/obj_ergodox_ez_sfgabe_80_underglow/common/action_tapping.o
 .data          0x0000000000000000        0x0 .build/obj_ergodox_ez_sfgabe_80_underglow/common/action_tapping.o
 .bss           0x0000000000000000        0x0 .build/obj_ergodox_ez_sfgabe_80_underglow/common/action_tapping.o
 .text          0x0000000000000000        0x0 .build/obj_ergodox_ez_sfgabe_80_underglow/common/action_macro.o
 .data          0x0000000000000000        0x0 .build/obj_ergodox_ez_sfgabe_80_underglow/common/action_macro.o
 .bss           0x0000000000000000        0x0 .build/obj_ergodox_ez_sfgabe_80_underglow/common/action_macro.o
 .debug_info    0x0000000000000000      0x42d .build/obj_ergodox_ez_sfgabe_80_underglow/common/action_macro.o
 .debug_abbrev  0x0000000000000000      0x151 .build/obj_ergodox_ez_sfgabe_80_underglow/common/action_macro.o
 .debug_aranges
                0x0000000000000000       0x18 .build/obj_ergodox_ez_sfgabe_80_underglow/common/action_macro.o
 .debug_line    0x0000000000000000      0x147 .build/obj_ergodox_ez_sfgabe_80_underglow/common/action_macro.o
 .debug_str     0x0000000000000000      0x37b .build/obj_ergodox_ez_sfgabe_80_underglow/common/action_macro.o
 .comment       0x0000000000000000       0x25 .build/obj_ergodox_ez_sfgabe_80_underglow/common/action_macro.o
 .text          0x0000000000000000        0x0 .build/obj_ergodox_ez_sfgabe_80_underglow/common/action_layer.o
 .data          0x0000000000000000        0x0 .build/obj_ergodox_ez_sfgabe_80_underglow/common/action_layer.o
 .bss           0x0000000000000000        0x0 .build/obj_ergodox_ez_sfgabe_80_underglow/common/action_layer.o
 .text.layer_state_cmp
                0x0000000000000000       0x2a .build/obj_ergodox_ez_sfgabe_80_underglow/common/action_layer.o
 .text.layer_state_is
                0x0000000000000000       0x16 .build/obj_ergodox_ez_sfgabe_80_underglow/common/action_layer.o
 .text          0x0000000000000000        0x0 .build/obj_ergodox_ez_sfgabe_80_underglow/common/action_util.o
 .data          0x0000000000000000        0x0 .build/obj_ergodox_ez_sfgabe_80_underglow/common/action_util.o
 .bss           0x0000000000000000        0x0 .build/obj_ergodox_ez_sfgabe_80_underglow/common/action_util.o
 .text.get_oneshot_locked_mods
                0x0000000000000000        0x6 .build/obj_ergodox_ez_sfgabe_80_underglow/common/action_util.o
 .text.has_oneshot_mods_timed_out
                0x0000000000000000        0x4 .build/obj_ergodox_ez_sfgabe_80_underglow/common/action_util.o
 .text.get_weak_mods
                0x0000000000000000        0x6 .build/obj_ergodox_ez_sfgabe_80_underglow/common/action_util.o
 .text.set_weak_mods
                0x0000000000000000        0x6 .build/obj_ergodox_ez_sfgabe_80_underglow/common/action_util.o
 .text.get_macro_mods
                0x0000000000000000        0x6 .build/obj_ergodox_ez_sfgabe_80_underglow/common/action_util.o
 .text.add_macro_mods
                0x0000000000000000        0xc .build/obj_ergodox_ez_sfgabe_80_underglow/common/action_util.o
 .text.del_macro_mods
                0x0000000000000000        0xe .build/obj_ergodox_ez_sfgabe_80_underglow/common/action_util.o
 .text.set_macro_mods
                0x0000000000000000        0x6 .build/obj_ergodox_ez_sfgabe_80_underglow/common/action_util.o
 .text.oneshot_locked_mods_changed_user
                0x0000000000000000        0x2 .build/obj_ergodox_ez_sfgabe_80_underglow/common/action_util.o
 .text.oneshot_locked_mods_changed_kb
                0x0000000000000000        0x4 .build/obj_ergodox_ez_sfgabe_80_underglow/common/action_util.o
 .text.set_oneshot_locked_mods
                0x0000000000000000       0x12 .build/obj_ergodox_ez_sfgabe_80_underglow/common/action_util.o
 .text.clear_oneshot_locked_mods
                0x0000000000000000       0x14 .build/obj_ergodox_ez_sfgabe_80_underglow/common/action_util.o
 .text.has_anymod
                0x0000000000000000        0x8 .build/obj_ergodox_ez_sfgabe_80_underglow/common/action_util.o
 .bss.oneshot_locked_mods
                0x0000000000000000        0x1 .build/obj_ergodox_ez_sfgabe_80_underglow/common/action_util.o
 .text          0x0000000000000000        0x0 .build/obj_ergodox_ez_sfgabe_80_underglow/common/print.o
 .data          0x0000000000000000        0x0 .build/obj_ergodox_ez_sfgabe_80_underglow/common/print.o
 .bss           0x0000000000000000        0x0 .build/obj_ergodox_ez_sfgabe_80_underglow/common/print.o
 .debug_info    0x0000000000000000       0x56 .build/obj_ergodox_ez_sfgabe_80_underglow/common/print.o
 .debug_abbrev  0x0000000000000000       0x26 .build/obj_ergodox_ez_sfgabe_80_underglow/common/print.o
 .debug_aranges
                0x0000000000000000       0x18 .build/obj_ergodox_ez_sfgabe_80_underglow/common/print.o
 .debug_line    0x0000000000000000       0x1d .build/obj_ergodox_ez_sfgabe_80_underglow/common/print.o
 .debug_str     0x0000000000000000      0x17a .build/obj_ergodox_ez_sfgabe_80_underglow/common/print.o
 .comment       0x0000000000000000       0x25 .build/obj_ergodox_ez_sfgabe_80_underglow/common/print.o
 .text          0x0000000000000000        0x0 .build/obj_ergodox_ez_sfgabe_80_underglow/common/debug.o
 .data          0x0000000000000000        0x0 .build/obj_ergodox_ez_sfgabe_80_underglow/common/debug.o
 .bss           0x0000000000000000        0x0 .build/obj_ergodox_ez_sfgabe_80_underglow/common/debug.o
 .text          0x0000000000000000        0x0 .build/obj_ergodox_ez_sfgabe_80_underglow/common/sendchar_null.o
 .data          0x0000000000000000        0x0 .build/obj_ergodox_ez_sfgabe_80_underglow/common/sendchar_null.o
 .bss           0x0000000000000000        0x0 .build/obj_ergodox_ez_sfgabe_80_underglow/common/sendchar_null.o
 .text.sendchar
                0x0000000000000000        0x4 .build/obj_ergodox_ez_sfgabe_80_underglow/common/sendchar_null.o
 .debug_info    0x0000000000000000       0xa8 .build/obj_ergodox_ez_sfgabe_80_underglow/common/sendchar_null.o
 .debug_abbrev  0x0000000000000000       0x6b .build/obj_ergodox_ez_sfgabe_80_underglow/common/sendchar_null.o
 .debug_loc     0x0000000000000000       0x25 .build/obj_ergodox_ez_sfgabe_80_underglow/common/sendchar_null.o
 .debug_aranges
                0x0000000000000000       0x20 .build/obj_ergodox_ez_sfgabe_80_underglow/common/sendchar_null.o
 .debug_ranges  0x0000000000000000       0x10 .build/obj_ergodox_ez_sfgabe_80_underglow/common/sendchar_null.o
 .debug_line    0x0000000000000000       0xa3 .build/obj_ergodox_ez_sfgabe_80_underglow/common/sendchar_null.o
 .debug_str     0x0000000000000000      0x19a .build/obj_ergodox_ez_sfgabe_80_underglow/common/sendchar_null.o
 .comment       0x0000000000000000       0x25 .build/obj_ergodox_ez_sfgabe_80_underglow/common/sendchar_null.o
 .debug_frame   0x0000000000000000       0x24 .build/obj_ergodox_ez_sfgabe_80_underglow/common/sendchar_null.o
 .text          0x0000000000000000        0x0 .build/obj_ergodox_ez_sfgabe_80_underglow/common/util.o
 .data          0x0000000000000000        0x0 .build/obj_ergodox_ez_sfgabe_80_underglow/common/util.o
 .bss           0x0000000000000000        0x0 .build/obj_ergodox_ez_sfgabe_80_underglow/common/util.o
 .text.bitpop   0x0000000000000000       0x14 .build/obj_ergodox_ez_sfgabe_80_underglow/common/util.o
 .text.bitpop16
                0x0000000000000000       0x18 .build/obj_ergodox_ez_sfgabe_80_underglow/common/util.o
 .text.bitpop32
                0x0000000000000000       0x3a .build/obj_ergodox_ez_sfgabe_80_underglow/common/util.o
 .text.biton    0x0000000000000000       0x22 .build/obj_ergodox_ez_sfgabe_80_underglow/common/util.o
 .text.biton16  0x0000000000000000       0x48 .build/obj_ergodox_ez_sfgabe_80_underglow/common/util.o
 .text.bitrev   0x0000000000000000       0x30 .build/obj_ergodox_ez_sfgabe_80_underglow/common/util.o
 .text.bitrev16
                0x0000000000000000       0x1a .build/obj_ergodox_ez_sfgabe_80_underglow/common/util.o
 .text.bitrev32
                0x0000000000000000       0x4c .build/obj_ergodox_ez_sfgabe_80_underglow/common/util.o
 .text          0x0000000000000000        0x0 .build/obj_ergodox_ez_sfgabe_80_underglow/common/eeconfig.o
 .data          0x0000000000000000        0x0 .build/obj_ergodox_ez_sfgabe_80_underglow/common/eeconfig.o
 .bss           0x0000000000000000        0x0 .build/obj_ergodox_ez_sfgabe_80_underglow/common/eeconfig.o
 .text.eeconfig_enable
                0x0000000000000000        0xc .build/obj_ergodox_ez_sfgabe_80_underglow/common/eeconfig.o
 .text.eeconfig_disable
                0x0000000000000000        0xc .build/obj_ergodox_ez_sfgabe_80_underglow/common/eeconfig.o
 .text.eeconfig_is_disabled
                0x0000000000000000       0x14 .build/obj_ergodox_ez_sfgabe_80_underglow/common/eeconfig.o
 .text.eeconfig_update_debug
                0x0000000000000000        0xa .build/obj_ergodox_ez_sfgabe_80_underglow/common/eeconfig.o
 .text.eeconfig_update_default_layer
                0x0000000000000000        0xa .build/obj_ergodox_ez_sfgabe_80_underglow/common/eeconfig.o
 .text.eeconfig_read_backlight
                0x0000000000000000        0x8 .build/obj_ergodox_ez_sfgabe_80_underglow/common/eeconfig.o
 .text.eeconfig_update_backlight
                0x0000000000000000        0xa .build/obj_ergodox_ez_sfgabe_80_underglow/common/eeconfig.o
 .text.eeconfig_read_audio
                0x0000000000000000        0x8 .build/obj_ergodox_ez_sfgabe_80_underglow/common/eeconfig.o
 .text.eeconfig_update_audio
                0x0000000000000000        0xa .build/obj_ergodox_ez_sfgabe_80_underglow/common/eeconfig.o
 .text.eeconfig_read_user
                0x0000000000000000        0x8 .build/obj_ergodox_ez_sfgabe_80_underglow/common/eeconfig.o
 .text.eeconfig_init_kb
                0x0000000000000000        0xe .build/obj_ergodox_ez_sfgabe_80_underglow/common/eeconfig.o
 .text.eeconfig_read_haptic
                0x0000000000000000        0x8 .build/obj_ergodox_ez_sfgabe_80_underglow/common/eeconfig.o
 .text.eeconfig_update_haptic
                0x0000000000000000        0xc .build/obj_ergodox_ez_sfgabe_80_underglow/common/eeconfig.o
 .text.eeconfig_read_handedness
                0x0000000000000000       0x14 .build/obj_ergodox_ez_sfgabe_80_underglow/common/eeconfig.o
 .text          0x0000000000000000        0x0 .build/obj_ergodox_ez_sfgabe_80_underglow/common/report.o
 .data          0x0000000000000000        0x0 .build/obj_ergodox_ez_sfgabe_80_underglow/common/report.o
 .bss           0x0000000000000000        0x0 .build/obj_ergodox_ez_sfgabe_80_underglow/common/report.o
 .text.get_first_key
                0x0000000000000000       0x4a .build/obj_ergodox_ez_sfgabe_80_underglow/common/report.o
 .text          0x0000000000000000        0x0 .build/obj_ergodox_ez_sfgabe_80_underglow/common/avr/suspend.o
 .data          0x0000000000000000        0x0 .build/obj_ergodox_ez_sfgabe_80_underglow/common/avr/suspend.o
 .bss           0x0000000000000000        0x0 .build/obj_ergodox_ez_sfgabe_80_underglow/common/avr/suspend.o
 .text.suspend_idle
                0x0000000000000000       0x1a .build/obj_ergodox_ez_sfgabe_80_underglow/common/avr/suspend.o
 .text.matrix_power_up
                0x0000000000000000        0x2 .build/obj_ergodox_ez_sfgabe_80_underglow/common/avr/suspend.o
 .text          0x0000000000000000        0x0 .build/obj_ergodox_ez_sfgabe_80_underglow/common/avr/timer.o
 .data          0x0000000000000000        0x0 .build/obj_ergodox_ez_sfgabe_80_underglow/common/avr/timer.o
 .bss           0x0000000000000000        0x0 .build/obj_ergodox_ez_sfgabe_80_underglow/common/avr/timer.o
 .text.timer_clear
                0x0000000000000000       0x18 .build/obj_ergodox_ez_sfgabe_80_underglow/common/avr/timer.o
 .text.timer_read32
                0x0000000000000000       0x18 .build/obj_ergodox_ez_sfgabe_80_underglow/common/avr/timer.o
 .text.timer_elapsed32
                0x0000000000000000       0x38 .build/obj_ergodox_ez_sfgabe_80_underglow/common/avr/timer.o
 .text          0x0000000000000000        0x0 .build/obj_ergodox_ez_sfgabe_80_underglow/common/avr/bootloader.o
 .data          0x0000000000000000        0x0 .build/obj_ergodox_ez_sfgabe_80_underglow/common/avr/bootloader.o
 .bss           0x0000000000000000        0x0 .build/obj_ergodox_ez_sfgabe_80_underglow/common/avr/bootloader.o
 .noinit        0x0000000000000000        0x4 .build/obj_ergodox_ez_sfgabe_80_underglow/common/avr/bootloader.o
 .text          0x0000000000000000      0x15c .build/obj_ergodox_ez_sfgabe_80_underglow/common/avr/xprintf.o
 .data          0x0000000000000000        0x0 .build/obj_ergodox_ez_sfgabe_80_underglow/common/avr/xprintf.o
 .bss           0x0000000000000000        0x2 .build/obj_ergodox_ez_sfgabe_80_underglow/common/avr/xprintf.o
 .stab          0x0000000000000000      0x8b8 .build/obj_ergodox_ez_sfgabe_80_underglow/common/avr/xprintf.o
 .text          0x0000000000000000        0x0 .build/obj_ergodox_ez_sfgabe_80_underglow/common/magic.o
 .data          0x0000000000000000        0x0 .build/obj_ergodox_ez_sfgabe_80_underglow/common/magic.o
 .bss           0x0000000000000000        0x0 .build/obj_ergodox_ez_sfgabe_80_underglow/common/magic.o
 .text          0x0000000000000000        0x0 .build/obj_ergodox_ez_sfgabe_80_underglow/common/mousekey.o
 .data          0x0000000000000000        0x0 .build/obj_ergodox_ez_sfgabe_80_underglow/common/mousekey.o
 .bss           0x0000000000000000        0x0 .build/obj_ergodox_ez_sfgabe_80_underglow/common/mousekey.o
 .text          0x0000000000000000        0x0 .build/obj_ergodox_ez_sfgabe_80_underglow/common/command.o
 .data          0x0000000000000000        0x0 .build/obj_ergodox_ez_sfgabe_80_underglow/common/command.o
 .bss           0x0000000000000000        0x0 .build/obj_ergodox_ez_sfgabe_80_underglow/common/command.o
 .text          0x0000000000000000        0x0 .build/obj_ergodox_ez_sfgabe_80_underglow/lufa.o
 .data          0x0000000000000000        0x0 .build/obj_ergodox_ez_sfgabe_80_underglow/lufa.o
 .bss           0x0000000000000000        0x0 .build/obj_ergodox_ez_sfgabe_80_underglow/lufa.o
 .text          0x0000000000000000        0x0 .build/obj_ergodox_ez_sfgabe_80_underglow/usb_descriptor.o
 .data          0x0000000000000000        0x0 .build/obj_ergodox_ez_sfgabe_80_underglow/usb_descriptor.o
 .bss           0x0000000000000000        0x0 .build/obj_ergodox_ez_sfgabe_80_underglow/usb_descriptor.o
 .text          0x0000000000000000        0x0 .build/obj_ergodox_ez_sfgabe_80_underglow/lib/lufa/LUFA/Drivers/USB/Class/Common/HIDParser.o
 .data          0x0000000000000000        0x0 .build/obj_ergodox_ez_sfgabe_80_underglow/lib/lufa/LUFA/Drivers/USB/Class/Common/HIDParser.o
 .bss           0x0000000000000000        0x0 .build/obj_ergodox_ez_sfgabe_80_underglow/lib/lufa/LUFA/Drivers/USB/Class/Common/HIDParser.o
 .text.USB_ProcessHIDReport
                0x0000000000000000      0x6c4 .build/obj_ergodox_ez_sfgabe_80_underglow/lib/lufa/LUFA/Drivers/USB/Class/Common/HIDParser.o
 .text.USB_GetHIDReportItemInfo
                0x0000000000000000       0xc0 .build/obj_ergodox_ez_sfgabe_80_underglow/lib/lufa/LUFA/Drivers/USB/Class/Common/HIDParser.o
 .text.USB_SetHIDReportItemInfo
                0x0000000000000000       0xb6 .build/obj_ergodox_ez_sfgabe_80_underglow/lib/lufa/LUFA/Drivers/USB/Class/Common/HIDParser.o
 .text.USB_GetHIDReportSize
                0x0000000000000000       0x52 .build/obj_ergodox_ez_sfgabe_80_underglow/lib/lufa/LUFA/Drivers/USB/Class/Common/HIDParser.o
 .debug_info    0x0000000000000000      0x804 .build/obj_ergodox_ez_sfgabe_80_underglow/lib/lufa/LUFA/Drivers/USB/Class/Common/HIDParser.o
 .debug_abbrev  0x0000000000000000      0x253 .build/obj_ergodox_ez_sfgabe_80_underglow/lib/lufa/LUFA/Drivers/USB/Class/Common/HIDParser.o
 .debug_loc     0x0000000000000000      0xcd9 .build/obj_ergodox_ez_sfgabe_80_underglow/lib/lufa/LUFA/Drivers/USB/Class/Common/HIDParser.o
 .debug_aranges
                0x0000000000000000       0x38 .build/obj_ergodox_ez_sfgabe_80_underglow/lib/lufa/LUFA/Drivers/USB/Class/Common/HIDParser.o
 .debug_ranges  0x0000000000000000      0x100 .build/obj_ergodox_ez_sfgabe_80_underglow/lib/lufa/LUFA/Drivers/USB/Class/Common/HIDParser.o
 .debug_line    0x0000000000000000      0xe4f .build/obj_ergodox_ez_sfgabe_80_underglow/lib/lufa/LUFA/Drivers/USB/Class/Common/HIDParser.o
 .debug_str     0x0000000000000000      0x6ae .build/obj_ergodox_ez_sfgabe_80_underglow/lib/lufa/LUFA/Drivers/USB/Class/Common/HIDParser.o
 .comment       0x0000000000000000       0x25 .build/obj_ergodox_ez_sfgabe_80_underglow/lib/lufa/LUFA/Drivers/USB/Class/Common/HIDParser.o
 .debug_frame   0x0000000000000000      0x114 .build/obj_ergodox_ez_sfgabe_80_underglow/lib/lufa/LUFA/Drivers/USB/Class/Common/HIDParser.o
 .text          0x0000000000000000        0x0 .build/obj_ergodox_ez_sfgabe_80_underglow/lib/lufa/LUFA/Drivers/USB/Core/AVR8/Device_AVR8.o
 .data          0x0000000000000000        0x0 .build/obj_ergodox_ez_sfgabe_80_underglow/lib/lufa/LUFA/Drivers/USB/Core/AVR8/Device_AVR8.o
 .bss           0x0000000000000000        0x0 .build/obj_ergodox_ez_sfgabe_80_underglow/lib/lufa/LUFA/Drivers/USB/Core/AVR8/Device_AVR8.o
 .text          0x0000000000000000        0x0 .build/obj_ergodox_ez_sfgabe_80_underglow/lib/lufa/LUFA/Drivers/USB/Core/AVR8/EndpointStream_AVR8.o
 .data          0x0000000000000000        0x0 .build/obj_ergodox_ez_sfgabe_80_underglow/lib/lufa/LUFA/Drivers/USB/Core/AVR8/EndpointStream_AVR8.o
 .bss           0x0000000000000000        0x0 .build/obj_ergodox_ez_sfgabe_80_underglow/lib/lufa/LUFA/Drivers/USB/Core/AVR8/EndpointStream_AVR8.o
 .text.Endpoint_Discard_Stream
                0x0000000000000000       0x78 .build/obj_ergodox_ez_sfgabe_80_underglow/lib/lufa/LUFA/Drivers/USB/Core/AVR8/EndpointStream_AVR8.o
 .text.Endpoint_Null_Stream
                0x0000000000000000       0x78 .build/obj_ergodox_ez_sfgabe_80_underglow/lib/lufa/LUFA/Drivers/USB/Core/AVR8/EndpointStream_AVR8.o
 .text.Endpoint_Write_Stream_BE
                0x0000000000000000       0xa8 .build/obj_ergodox_ez_sfgabe_80_underglow/lib/lufa/LUFA/Drivers/USB/Core/AVR8/EndpointStream_AVR8.o
 .text.Endpoint_Read_Stream_LE
                0x0000000000000000       0x9e .build/obj_ergodox_ez_sfgabe_80_underglow/lib/lufa/LUFA/Drivers/USB/Core/AVR8/EndpointStream_AVR8.o
 .text.Endpoint_Read_Stream_BE
                0x0000000000000000       0xa8 .build/obj_ergodox_ez_sfgabe_80_underglow/lib/lufa/LUFA/Drivers/USB/Core/AVR8/EndpointStream_AVR8.o
 .text.Endpoint_Write_PStream_LE
                0x0000000000000000       0xa0 .build/obj_ergodox_ez_sfgabe_80_underglow/lib/lufa/LUFA/Drivers/USB/Core/AVR8/EndpointStream_AVR8.o
 .text.Endpoint_Write_PStream_BE
                0x0000000000000000       0xaa .build/obj_ergodox_ez_sfgabe_80_underglow/lib/lufa/LUFA/Drivers/USB/Core/AVR8/EndpointStream_AVR8.o
 .text.Endpoint_Write_EStream_LE
                0x0000000000000000       0xa2 .build/obj_ergodox_ez_sfgabe_80_underglow/lib/lufa/LUFA/Drivers/USB/Core/AVR8/EndpointStream_AVR8.o
 .text.Endpoint_Write_EStream_BE
                0x0000000000000000       0xac .build/obj_ergodox_ez_sfgabe_80_underglow/lib/lufa/LUFA/Drivers/USB/Core/AVR8/EndpointStream_AVR8.o
 .text.Endpoint_Read_EStream_LE
                0x0000000000000000       0xa2 .build/obj_ergodox_ez_sfgabe_80_underglow/lib/lufa/LUFA/Drivers/USB/Core/AVR8/EndpointStream_AVR8.o
 .text.Endpoint_Read_EStream_BE
                0x0000000000000000       0xac .build/obj_ergodox_ez_sfgabe_80_underglow/lib/lufa/LUFA/Drivers/USB/Core/AVR8/EndpointStream_AVR8.o
 .text.Endpoint_Write_Control_Stream_BE
                0x0000000000000000       0xc6 .build/obj_ergodox_ez_sfgabe_80_underglow/lib/lufa/LUFA/Drivers/USB/Core/AVR8/EndpointStream_AVR8.o
 .text.Endpoint_Read_Control_Stream_LE
                0x0000000000000000       0x74 .build/obj_ergodox_ez_sfgabe_80_underglow/lib/lufa/LUFA/Drivers/USB/Core/AVR8/EndpointStream_AVR8.o
 .text.Endpoint_Read_Control_Stream_BE
                0x0000000000000000       0x7e .build/obj_ergodox_ez_sfgabe_80_underglow/lib/lufa/LUFA/Drivers/USB/Core/AVR8/EndpointStream_AVR8.o
 .text.Endpoint_Write_Control_PStream_BE
                0x0000000000000000       0xc2 .build/obj_ergodox_ez_sfgabe_80_underglow/lib/lufa/LUFA/Drivers/USB/Core/AVR8/EndpointStream_AVR8.o
 .text.Endpoint_Write_Control_EStream_LE
                0x0000000000000000       0xd8 .build/obj_ergodox_ez_sfgabe_80_underglow/lib/lufa/LUFA/Drivers/USB/Core/AVR8/EndpointStream_AVR8.o
 .text.Endpoint_Write_Control_EStream_BE
                0x0000000000000000       0xe2 .build/obj_ergodox_ez_sfgabe_80_underglow/lib/lufa/LUFA/Drivers/USB/Core/AVR8/EndpointStream_AVR8.o
 .text.Endpoint_Read_Control_EStream_LE
                0x0000000000000000       0x86 .build/obj_ergodox_ez_sfgabe_80_underglow/lib/lufa/LUFA/Drivers/USB/Core/AVR8/EndpointStream_AVR8.o
 .text.Endpoint_Read_Control_EStream_BE
                0x0000000000000000       0x8e .build/obj_ergodox_ez_sfgabe_80_underglow/lib/lufa/LUFA/Drivers/USB/Core/AVR8/EndpointStream_AVR8.o
 .text          0x0000000000000000        0x0 .build/obj_ergodox_ez_sfgabe_80_underglow/lib/lufa/LUFA/Drivers/USB/Core/AVR8/Endpoint_AVR8.o
 .data          0x0000000000000000        0x0 .build/obj_ergodox_ez_sfgabe_80_underglow/lib/lufa/LUFA/Drivers/USB/Core/AVR8/Endpoint_AVR8.o
 .bss           0x0000000000000000        0x0 .build/obj_ergodox_ez_sfgabe_80_underglow/lib/lufa/LUFA/Drivers/USB/Core/AVR8/Endpoint_AVR8.o
 .text.Endpoint_ConfigureEndpointTable
                0x0000000000000000       0x7a .build/obj_ergodox_ez_sfgabe_80_underglow/lib/lufa/LUFA/Drivers/USB/Core/AVR8/Endpoint_AVR8.o
 .text.Endpoint_ClearEndpoints
                0x0000000000000000       0x28 .build/obj_ergodox_ez_sfgabe_80_underglow/lib/lufa/LUFA/Drivers/USB/Core/AVR8/Endpoint_AVR8.o
 .text          0x0000000000000000        0x0 .build/obj_ergodox_ez_sfgabe_80_underglow/lib/lufa/LUFA/Drivers/USB/Core/AVR8/Host_AVR8.o
 .data          0x0000000000000000        0x0 .build/obj_ergodox_ez_sfgabe_80_underglow/lib/lufa/LUFA/Drivers/USB/Core/AVR8/Host_AVR8.o
 .bss           0x0000000000000000        0x0 .build/obj_ergodox_ez_sfgabe_80_underglow/lib/lufa/LUFA/Drivers/USB/Core/AVR8/Host_AVR8.o
 .debug_info    0x0000000000000000       0x56 .build/obj_ergodox_ez_sfgabe_80_underglow/lib/lufa/LUFA/Drivers/USB/Core/AVR8/Host_AVR8.o
 .debug_abbrev  0x0000000000000000       0x26 .build/obj_ergodox_ez_sfgabe_80_underglow/lib/lufa/LUFA/Drivers/USB/Core/AVR8/Host_AVR8.o
 .debug_aranges
                0x0000000000000000       0x18 .build/obj_ergodox_ez_sfgabe_80_underglow/lib/lufa/LUFA/Drivers/USB/Core/AVR8/Host_AVR8.o
 .debug_line    0x0000000000000000       0x1d .build/obj_ergodox_ez_sfgabe_80_underglow/lib/lufa/LUFA/Drivers/USB/Core/AVR8/Host_AVR8.o
 .debug_str     0x0000000000000000      0x192 .build/obj_ergodox_ez_sfgabe_80_underglow/lib/lufa/LUFA/Drivers/USB/Core/AVR8/Host_AVR8.o
 .comment       0x0000000000000000       0x25 .build/obj_ergodox_ez_sfgabe_80_underglow/lib/lufa/LUFA/Drivers/USB/Core/AVR8/Host_AVR8.o
 .text          0x0000000000000000        0x0 .build/obj_ergodox_ez_sfgabe_80_underglow/lib/lufa/LUFA/Drivers/USB/Core/AVR8/PipeStream_AVR8.o
 .data          0x0000000000000000        0x0 .build/obj_ergodox_ez_sfgabe_80_underglow/lib/lufa/LUFA/Drivers/USB/Core/AVR8/PipeStream_AVR8.o
 .bss           0x0000000000000000        0x0 .build/obj_ergodox_ez_sfgabe_80_underglow/lib/lufa/LUFA/Drivers/USB/Core/AVR8/PipeStream_AVR8.o
 .debug_info    0x0000000000000000       0x56 .build/obj_ergodox_ez_sfgabe_80_underglow/lib/lufa/LUFA/Drivers/USB/Core/AVR8/PipeStream_AVR8.o
 .debug_abbrev  0x0000000000000000       0x26 .build/obj_ergodox_ez_sfgabe_80_underglow/lib/lufa/LUFA/Drivers/USB/Core/AVR8/PipeStream_AVR8.o
 .debug_aranges
                0x0000000000000000       0x18 .build/obj_ergodox_ez_sfgabe_80_underglow/lib/lufa/LUFA/Drivers/USB/Core/AVR8/PipeStream_AVR8.o
 .debug_line    0x0000000000000000       0x1d .build/obj_ergodox_ez_sfgabe_80_underglow/lib/lufa/LUFA/Drivers/USB/Core/AVR8/PipeStream_AVR8.o
 .debug_str     0x0000000000000000      0x198 .build/obj_ergodox_ez_sfgabe_80_underglow/lib/lufa/LUFA/Drivers/USB/Core/AVR8/PipeStream_AVR8.o
 .comment       0x0000000000000000       0x25 .build/obj_ergodox_ez_sfgabe_80_underglow/lib/lufa/LUFA/Drivers/USB/Core/AVR8/PipeStream_AVR8.o
 .text          0x0000000000000000        0x0 .build/obj_ergodox_ez_sfgabe_80_underglow/lib/lufa/LUFA/Drivers/USB/Core/AVR8/Pipe_AVR8.o
 .data          0x0000000000000000        0x0 .build/obj_ergodox_ez_sfgabe_80_underglow/lib/lufa/LUFA/Drivers/USB/Core/AVR8/Pipe_AVR8.o
 .bss           0x0000000000000000        0x0 .build/obj_ergodox_ez_sfgabe_80_underglow/lib/lufa/LUFA/Drivers/USB/Core/AVR8/Pipe_AVR8.o
 .debug_info    0x0000000000000000       0x56 .build/obj_ergodox_ez_sfgabe_80_underglow/lib/lufa/LUFA/Drivers/USB/Core/AVR8/Pipe_AVR8.o
 .debug_abbrev  0x0000000000000000       0x26 .build/obj_ergodox_ez_sfgabe_80_underglow/lib/lufa/LUFA/Drivers/USB/Core/AVR8/Pipe_AVR8.o
 .debug_aranges
                0x0000000000000000       0x18 .build/obj_ergodox_ez_sfgabe_80_underglow/lib/lufa/LUFA/Drivers/USB/Core/AVR8/Pipe_AVR8.o
 .debug_line    0x0000000000000000       0x1d .build/obj_ergodox_ez_sfgabe_80_underglow/lib/lufa/LUFA/Drivers/USB/Core/AVR8/Pipe_AVR8.o
 .debug_str     0x0000000000000000      0x192 .build/obj_ergodox_ez_sfgabe_80_underglow/lib/lufa/LUFA/Drivers/USB/Core/AVR8/Pipe_AVR8.o
 .comment       0x0000000000000000       0x25 .build/obj_ergodox_ez_sfgabe_80_underglow/lib/lufa/LUFA/Drivers/USB/Core/AVR8/Pipe_AVR8.o
 .text          0x0000000000000000        0x0 .build/obj_ergodox_ez_sfgabe_80_underglow/lib/lufa/LUFA/Drivers/USB/Core/AVR8/USBController_AVR8.o
 .data          0x0000000000000000        0x0 .build/obj_ergodox_ez_sfgabe_80_underglow/lib/lufa/LUFA/Drivers/USB/Core/AVR8/USBController_AVR8.o
 .bss           0x0000000000000000        0x0 .build/obj_ergodox_ez_sfgabe_80_underglow/lib/lufa/LUFA/Drivers/USB/Core/AVR8/USBController_AVR8.o
 .text          0x0000000000000000        0x0 .build/obj_ergodox_ez_sfgabe_80_underglow/lib/lufa/LUFA/Drivers/USB/Core/AVR8/USBInterrupt_AVR8.o
 .data          0x0000000000000000        0x0 .build/obj_ergodox_ez_sfgabe_80_underglow/lib/lufa/LUFA/Drivers/USB/Core/AVR8/USBInterrupt_AVR8.o
 .bss           0x0000000000000000        0x0 .build/obj_ergodox_ez_sfgabe_80_underglow/lib/lufa/LUFA/Drivers/USB/Core/AVR8/USBInterrupt_AVR8.o
 .text          0x0000000000000000        0x0 .build/obj_ergodox_ez_sfgabe_80_underglow/lib/lufa/LUFA/Drivers/USB/Core/ConfigDescriptors.o
 .data          0x0000000000000000        0x0 .build/obj_ergodox_ez_sfgabe_80_underglow/lib/lufa/LUFA/Drivers/USB/Core/ConfigDescriptors.o
 .bss           0x0000000000000000        0x0 .build/obj_ergodox_ez_sfgabe_80_underglow/lib/lufa/LUFA/Drivers/USB/Core/ConfigDescriptors.o
 .text.USB_GetNextDescriptor
                0x0000000000000000       0x3c .build/obj_ergodox_ez_sfgabe_80_underglow/lib/lufa/LUFA/Drivers/USB/Core/ConfigDescriptors.o
 .text.USB_GetNextDescriptorOfType
                0x0000000000000000       0x38 .build/obj_ergodox_ez_sfgabe_80_underglow/lib/lufa/LUFA/Drivers/USB/Core/ConfigDescriptors.o
 .text.USB_GetNextDescriptorOfTypeBefore
                0x0000000000000000       0x46 .build/obj_ergodox_ez_sfgabe_80_underglow/lib/lufa/LUFA/Drivers/USB/Core/ConfigDescriptors.o
 .text.USB_GetNextDescriptorOfTypeAfter
                0x0000000000000000       0x3e .build/obj_ergodox_ez_sfgabe_80_underglow/lib/lufa/LUFA/Drivers/USB/Core/ConfigDescriptors.o
 .text.USB_GetNextDescriptorComp
                0x0000000000000000       0x66 .build/obj_ergodox_ez_sfgabe_80_underglow/lib/lufa/LUFA/Drivers/USB/Core/ConfigDescriptors.o
 .debug_info    0x0000000000000000      0x50f .build/obj_ergodox_ez_sfgabe_80_underglow/lib/lufa/LUFA/Drivers/USB/Core/ConfigDescriptors.o
 .debug_abbrev  0x0000000000000000      0x1e5 .build/obj_ergodox_ez_sfgabe_80_underglow/lib/lufa/LUFA/Drivers/USB/Core/ConfigDescriptors.o
 .debug_loc     0x0000000000000000      0x611 .build/obj_ergodox_ez_sfgabe_80_underglow/lib/lufa/LUFA/Drivers/USB/Core/ConfigDescriptors.o
 .debug_aranges
                0x0000000000000000       0x40 .build/obj_ergodox_ez_sfgabe_80_underglow/lib/lufa/LUFA/Drivers/USB/Core/ConfigDescriptors.o
 .debug_ranges  0x0000000000000000       0x30 .build/obj_ergodox_ez_sfgabe_80_underglow/lib/lufa/LUFA/Drivers/USB/Core/ConfigDescriptors.o
 .debug_line    0x0000000000000000      0x3f6 .build/obj_ergodox_ez_sfgabe_80_underglow/lib/lufa/LUFA/Drivers/USB/Core/ConfigDescriptors.o
 .debug_str     0x0000000000000000      0x4ca .build/obj_ergodox_ez_sfgabe_80_underglow/lib/lufa/LUFA/Drivers/USB/Core/ConfigDescriptors.o
 .comment       0x0000000000000000       0x25 .build/obj_ergodox_ez_sfgabe_80_underglow/lib/lufa/LUFA/Drivers/USB/Core/ConfigDescriptors.o
 .debug_frame   0x0000000000000000       0xfc .build/obj_ergodox_ez_sfgabe_80_underglow/lib/lufa/LUFA/Drivers/USB/Core/ConfigDescriptors.o
 .text          0x0000000000000000        0x0 .build/obj_ergodox_ez_sfgabe_80_underglow/lib/lufa/LUFA/Drivers/USB/Core/DeviceStandardReq.o
 .data          0x0000000000000000        0x0 .build/obj_ergodox_ez_sfgabe_80_underglow/lib/lufa/LUFA/Drivers/USB/Core/DeviceStandardReq.o
 .bss           0x0000000000000000        0x0 .build/obj_ergodox_ez_sfgabe_80_underglow/lib/lufa/LUFA/Drivers/USB/Core/DeviceStandardReq.o
 .text          0x0000000000000000        0x0 .build/obj_ergodox_ez_sfgabe_80_underglow/lib/lufa/LUFA/Drivers/USB/Core/Events.o
 .data          0x0000000000000000        0x0 .build/obj_ergodox_ez_sfgabe_80_underglow/lib/lufa/LUFA/Drivers/USB/Core/Events.o
 .bss           0x0000000000000000        0x0 .build/obj_ergodox_ez_sfgabe_80_underglow/lib/lufa/LUFA/Drivers/USB/Core/Events.o
 .text.USB_Event_Stub_2
                0x0000000000000000        0x2 .build/obj_ergodox_ez_sfgabe_80_underglow/lib/lufa/LUFA/Drivers/USB/Core/Events.o
 .text.USB_Event_Stub_3
                0x0000000000000000        0x2 .build/obj_ergodox_ez_sfgabe_80_underglow/lib/lufa/LUFA/Drivers/USB/Core/Events.o
 .text          0x0000000000000000        0x0 .build/obj_ergodox_ez_sfgabe_80_underglow/lib/lufa/LUFA/Drivers/USB/Core/HostStandardReq.o
 .data          0x0000000000000000        0x0 .build/obj_ergodox_ez_sfgabe_80_underglow/lib/lufa/LUFA/Drivers/USB/Core/HostStandardReq.o
 .bss           0x0000000000000000        0x0 .build/obj_ergodox_ez_sfgabe_80_underglow/lib/lufa/LUFA/Drivers/USB/Core/HostStandardReq.o
 .debug_info    0x0000000000000000       0x56 .build/obj_ergodox_ez_sfgabe_80_underglow/lib/lufa/LUFA/Drivers/USB/Core/HostStandardReq.o
 .debug_abbrev  0x0000000000000000       0x26 .build/obj_ergodox_ez_sfgabe_80_underglow/lib/lufa/LUFA/Drivers/USB/Core/HostStandardReq.o
 .debug_aranges
                0x0000000000000000       0x18 .build/obj_ergodox_ez_sfgabe_80_underglow/lib/lufa/LUFA/Drivers/USB/Core/HostStandardReq.o
 .debug_line    0x0000000000000000       0x1d .build/obj_ergodox_ez_sfgabe_80_underglow/lib/lufa/LUFA/Drivers/USB/Core/HostStandardReq.o
 .debug_str     0x0000000000000000      0x193 .build/obj_ergodox_ez_sfgabe_80_underglow/lib/lufa/LUFA/Drivers/USB/Core/HostStandardReq.o
 .comment       0x0000000000000000       0x25 .build/obj_ergodox_ez_sfgabe_80_underglow/lib/lufa/LUFA/Drivers/USB/Core/HostStandardReq.o
 .text          0x0000000000000000        0x0 .build/obj_ergodox_ez_sfgabe_80_underglow/lib/lufa/LUFA/Drivers/USB/Core/USBTask.o
 .data          0x0000000000000000        0x0 .build/obj_ergodox_ez_sfgabe_80_underglow/lib/lufa/LUFA/Drivers/USB/Core/USBTask.o
 .bss           0x0000000000000000        0x0 .build/obj_ergodox_ez_sfgabe_80_underglow/lib/lufa/LUFA/Drivers/USB/Core/USBTask.o
 .text          0x0000000000000000        0x0 /usr/local/Cellar/avr-gcc@8/8.4.0/lib/avr-gcc/8/gcc/avr/8.4.0/avr5/libgcc.a(_udivmodqi4.o)
 .data          0x0000000000000000        0x0 /usr/local/Cellar/avr-gcc@8/8.4.0/lib/avr-gcc/8/gcc/avr/8.4.0/avr5/libgcc.a(_udivmodqi4.o)
 .bss           0x0000000000000000        0x0 /usr/local/Cellar/avr-gcc@8/8.4.0/lib/avr-gcc/8/gcc/avr/8.4.0/avr5/libgcc.a(_udivmodqi4.o)
 .text.libgcc.mul
                0x0000000000000000        0x0 /usr/local/Cellar/avr-gcc@8/8.4.0/lib/avr-gcc/8/gcc/avr/8.4.0/avr5/libgcc.a(_udivmodqi4.o)
 .text.libgcc   0x0000000000000000        0x0 /usr/local/Cellar/avr-gcc@8/8.4.0/lib/avr-gcc/8/gcc/avr/8.4.0/avr5/libgcc.a(_udivmodqi4.o)
 .text.libgcc.prologue
                0x0000000000000000        0x0 /usr/local/Cellar/avr-gcc@8/8.4.0/lib/avr-gcc/8/gcc/avr/8.4.0/avr5/libgcc.a(_udivmodqi4.o)
 .text.libgcc.builtins
                0x0000000000000000        0x0 /usr/local/Cellar/avr-gcc@8/8.4.0/lib/avr-gcc/8/gcc/avr/8.4.0/avr5/libgcc.a(_udivmodqi4.o)
 .text.libgcc.fmul
                0x0000000000000000        0x0 /usr/local/Cellar/avr-gcc@8/8.4.0/lib/avr-gcc/8/gcc/avr/8.4.0/avr5/libgcc.a(_udivmodqi4.o)
 .text.libgcc.fixed
                0x0000000000000000        0x0 /usr/local/Cellar/avr-gcc@8/8.4.0/lib/avr-gcc/8/gcc/avr/8.4.0/avr5/libgcc.a(_udivmodqi4.o)
 .text          0x0000000000000000        0x0 /usr/local/Cellar/avr-gcc@8/8.4.0/lib/avr-gcc/8/gcc/avr/8.4.0/avr5/libgcc.a(_divmodqi4.o)
 .data          0x0000000000000000        0x0 /usr/local/Cellar/avr-gcc@8/8.4.0/lib/avr-gcc/8/gcc/avr/8.4.0/avr5/libgcc.a(_divmodqi4.o)
 .bss           0x0000000000000000        0x0 /usr/local/Cellar/avr-gcc@8/8.4.0/lib/avr-gcc/8/gcc/avr/8.4.0/avr5/libgcc.a(_divmodqi4.o)
 .text.libgcc.mul
                0x0000000000000000        0x0 /usr/local/Cellar/avr-gcc@8/8.4.0/lib/avr-gcc/8/gcc/avr/8.4.0/avr5/libgcc.a(_divmodqi4.o)
 .text.libgcc   0x0000000000000000        0x0 /usr/local/Cellar/avr-gcc@8/8.4.0/lib/avr-gcc/8/gcc/avr/8.4.0/avr5/libgcc.a(_divmodqi4.o)
 .text.libgcc.prologue
                0x0000000000000000        0x0 /usr/local/Cellar/avr-gcc@8/8.4.0/lib/avr-gcc/8/gcc/avr/8.4.0/avr5/libgcc.a(_divmodqi4.o)
 .text.libgcc.builtins
                0x0000000000000000        0x0 /usr/local/Cellar/avr-gcc@8/8.4.0/lib/avr-gcc/8/gcc/avr/8.4.0/avr5/libgcc.a(_divmodqi4.o)
 .text.libgcc.fmul
                0x0000000000000000        0x0 /usr/local/Cellar/avr-gcc@8/8.4.0/lib/avr-gcc/8/gcc/avr/8.4.0/avr5/libgcc.a(_divmodqi4.o)
 .text.libgcc.fixed
                0x0000000000000000        0x0 /usr/local/Cellar/avr-gcc@8/8.4.0/lib/avr-gcc/8/gcc/avr/8.4.0/avr5/libgcc.a(_divmodqi4.o)
 .text          0x0000000000000000        0x0 /usr/local/Cellar/avr-gcc@8/8.4.0/lib/avr-gcc/8/gcc/avr/8.4.0/avr5/libgcc.a(_udivmodhi4.o)
 .data          0x0000000000000000        0x0 /usr/local/Cellar/avr-gcc@8/8.4.0/lib/avr-gcc/8/gcc/avr/8.4.0/avr5/libgcc.a(_udivmodhi4.o)
 .bss           0x0000000000000000        0x0 /usr/local/Cellar/avr-gcc@8/8.4.0/lib/avr-gcc/8/gcc/avr/8.4.0/avr5/libgcc.a(_udivmodhi4.o)
 .text.libgcc.mul
                0x0000000000000000        0x0 /usr/local/Cellar/avr-gcc@8/8.4.0/lib/avr-gcc/8/gcc/avr/8.4.0/avr5/libgcc.a(_udivmodhi4.o)
 .text.libgcc   0x0000000000000000        0x0 /usr/local/Cellar/avr-gcc@8/8.4.0/lib/avr-gcc/8/gcc/avr/8.4.0/avr5/libgcc.a(_udivmodhi4.o)
 .text.libgcc.prologue
                0x0000000000000000        0x0 /usr/local/Cellar/avr-gcc@8/8.4.0/lib/avr-gcc/8/gcc/avr/8.4.0/avr5/libgcc.a(_udivmodhi4.o)
 .text.libgcc.builtins
                0x0000000000000000        0x0 /usr/local/Cellar/avr-gcc@8/8.4.0/lib/avr-gcc/8/gcc/avr/8.4.0/avr5/libgcc.a(_udivmodhi4.o)
 .text.libgcc.fmul
                0x0000000000000000        0x0 /usr/local/Cellar/avr-gcc@8/8.4.0/lib/avr-gcc/8/gcc/avr/8.4.0/avr5/libgcc.a(_udivmodhi4.o)
 .text.libgcc.fixed
                0x0000000000000000        0x0 /usr/local/Cellar/avr-gcc@8/8.4.0/lib/avr-gcc/8/gcc/avr/8.4.0/avr5/libgcc.a(_udivmodhi4.o)
 .text          0x0000000000000000        0x0 /usr/local/Cellar/avr-gcc@8/8.4.0/lib/avr-gcc/8/gcc/avr/8.4.0/avr5/libgcc.a(_divmodhi4.o)
 .data          0x0000000000000000        0x0 /usr/local/Cellar/avr-gcc@8/8.4.0/lib/avr-gcc/8/gcc/avr/8.4.0/avr5/libgcc.a(_divmodhi4.o)
 .bss           0x0000000000000000        0x0 /usr/local/Cellar/avr-gcc@8/8.4.0/lib/avr-gcc/8/gcc/avr/8.4.0/avr5/libgcc.a(_divmodhi4.o)
 .text.libgcc.mul
                0x0000000000000000        0x0 /usr/local/Cellar/avr-gcc@8/8.4.0/lib/avr-gcc/8/gcc/avr/8.4.0/avr5/libgcc.a(_divmodhi4.o)
 .text.libgcc   0x0000000000000000        0x0 /usr/local/Cellar/avr-gcc@8/8.4.0/lib/avr-gcc/8/gcc/avr/8.4.0/avr5/libgcc.a(_divmodhi4.o)
 .text.libgcc.prologue
                0x0000000000000000        0x0 /usr/local/Cellar/avr-gcc@8/8.4.0/lib/avr-gcc/8/gcc/avr/8.4.0/avr5/libgcc.a(_divmodhi4.o)
 .text.libgcc.builtins
                0x0000000000000000        0x0 /usr/local/Cellar/avr-gcc@8/8.4.0/lib/avr-gcc/8/gcc/avr/8.4.0/avr5/libgcc.a(_divmodhi4.o)
 .text.libgcc.fmul
                0x0000000000000000        0x0 /usr/local/Cellar/avr-gcc@8/8.4.0/lib/avr-gcc/8/gcc/avr/8.4.0/avr5/libgcc.a(_divmodhi4.o)
 .text.libgcc.fixed
                0x0000000000000000        0x0 /usr/local/Cellar/avr-gcc@8/8.4.0/lib/avr-gcc/8/gcc/avr/8.4.0/avr5/libgcc.a(_divmodhi4.o)
 .text          0x0000000000000000        0x0 /usr/local/Cellar/avr-gcc@8/8.4.0/lib/avr-gcc/8/gcc/avr/8.4.0/avr5/libgcc.a(_udivmodsi4.o)
 .data          0x0000000000000000        0x0 /usr/local/Cellar/avr-gcc@8/8.4.0/lib/avr-gcc/8/gcc/avr/8.4.0/avr5/libgcc.a(_udivmodsi4.o)
 .bss           0x0000000000000000        0x0 /usr/local/Cellar/avr-gcc@8/8.4.0/lib/avr-gcc/8/gcc/avr/8.4.0/avr5/libgcc.a(_udivmodsi4.o)
 .text.libgcc.mul
                0x0000000000000000        0x0 /usr/local/Cellar/avr-gcc@8/8.4.0/lib/avr-gcc/8/gcc/avr/8.4.0/avr5/libgcc.a(_udivmodsi4.o)
 .text.libgcc   0x0000000000000000        0x0 /usr/local/Cellar/avr-gcc@8/8.4.0/lib/avr-gcc/8/gcc/avr/8.4.0/avr5/libgcc.a(_udivmodsi4.o)
 .text.libgcc.prologue
                0x0000000000000000        0x0 /usr/local/Cellar/avr-gcc@8/8.4.0/lib/avr-gcc/8/gcc/avr/8.4.0/avr5/libgcc.a(_udivmodsi4.o)
 .text.libgcc.builtins
                0x0000000000000000        0x0 /usr/local/Cellar/avr-gcc@8/8.4.0/lib/avr-gcc/8/gcc/avr/8.4.0/avr5/libgcc.a(_udivmodsi4.o)
 .text.libgcc.fmul
                0x0000000000000000        0x0 /usr/local/Cellar/avr-gcc@8/8.4.0/lib/avr-gcc/8/gcc/avr/8.4.0/avr5/libgcc.a(_udivmodsi4.o)
 .text.libgcc.fixed
                0x0000000000000000        0x0 /usr/local/Cellar/avr-gcc@8/8.4.0/lib/avr-gcc/8/gcc/avr/8.4.0/avr5/libgcc.a(_udivmodsi4.o)
 .text          0x0000000000000000        0x0 /usr/local/Cellar/avr-gcc@8/8.4.0/lib/avr-gcc/8/gcc/avr/8.4.0/avr5/libgcc.a(_exit.o)
 .data          0x0000000000000000        0x0 /usr/local/Cellar/avr-gcc@8/8.4.0/lib/avr-gcc/8/gcc/avr/8.4.0/avr5/libgcc.a(_exit.o)
 .bss           0x0000000000000000        0x0 /usr/local/Cellar/avr-gcc@8/8.4.0/lib/avr-gcc/8/gcc/avr/8.4.0/avr5/libgcc.a(_exit.o)
 .text.libgcc.mul
                0x0000000000000000        0x0 /usr/local/Cellar/avr-gcc@8/8.4.0/lib/avr-gcc/8/gcc/avr/8.4.0/avr5/libgcc.a(_exit.o)
 .text.libgcc.div
                0x0000000000000000        0x0 /usr/local/Cellar/avr-gcc@8/8.4.0/lib/avr-gcc/8/gcc/avr/8.4.0/avr5/libgcc.a(_exit.o)
 .text.libgcc   0x0000000000000000        0x0 /usr/local/Cellar/avr-gcc@8/8.4.0/lib/avr-gcc/8/gcc/avr/8.4.0/avr5/libgcc.a(_exit.o)
 .text.libgcc.prologue
                0x0000000000000000        0x0 /usr/local/Cellar/avr-gcc@8/8.4.0/lib/avr-gcc/8/gcc/avr/8.4.0/avr5/libgcc.a(_exit.o)
 .text.libgcc.builtins
                0x0000000000000000        0x0 /usr/local/Cellar/avr-gcc@8/8.4.0/lib/avr-gcc/8/gcc/avr/8.4.0/avr5/libgcc.a(_exit.o)
 .text.libgcc.fmul
                0x0000000000000000        0x0 /usr/local/Cellar/avr-gcc@8/8.4.0/lib/avr-gcc/8/gcc/avr/8.4.0/avr5/libgcc.a(_exit.o)
 .text.libgcc.fixed
                0x0000000000000000        0x0 /usr/local/Cellar/avr-gcc@8/8.4.0/lib/avr-gcc/8/gcc/avr/8.4.0/avr5/libgcc.a(_exit.o)
 .text          0x0000000000000000        0x0 /usr/local/Cellar/avr-gcc@8/8.4.0/lib/avr-gcc/8/gcc/avr/8.4.0/avr5/libgcc.a(_tablejump2.o)
 .data          0x0000000000000000        0x0 /usr/local/Cellar/avr-gcc@8/8.4.0/lib/avr-gcc/8/gcc/avr/8.4.0/avr5/libgcc.a(_tablejump2.o)
 .bss           0x0000000000000000        0x0 /usr/local/Cellar/avr-gcc@8/8.4.0/lib/avr-gcc/8/gcc/avr/8.4.0/avr5/libgcc.a(_tablejump2.o)
 .text.libgcc.mul
                0x0000000000000000        0x0 /usr/local/Cellar/avr-gcc@8/8.4.0/lib/avr-gcc/8/gcc/avr/8.4.0/avr5/libgcc.a(_tablejump2.o)
 .text.libgcc.div
                0x0000000000000000        0x0 /usr/local/Cellar/avr-gcc@8/8.4.0/lib/avr-gcc/8/gcc/avr/8.4.0/avr5/libgcc.a(_tablejump2.o)
 .text.libgcc.prologue
                0x0000000000000000        0x0 /usr/local/Cellar/avr-gcc@8/8.4.0/lib/avr-gcc/8/gcc/avr/8.4.0/avr5/libgcc.a(_tablejump2.o)
 .text.libgcc.builtins
                0x0000000000000000        0x0 /usr/local/Cellar/avr-gcc@8/8.4.0/lib/avr-gcc/8/gcc/avr/8.4.0/avr5/libgcc.a(_tablejump2.o)
 .text.libgcc.fmul
                0x0000000000000000        0x0 /usr/local/Cellar/avr-gcc@8/8.4.0/lib/avr-gcc/8/gcc/avr/8.4.0/avr5/libgcc.a(_tablejump2.o)
 .text.libgcc.fixed
                0x0000000000000000        0x0 /usr/local/Cellar/avr-gcc@8/8.4.0/lib/avr-gcc/8/gcc/avr/8.4.0/avr5/libgcc.a(_tablejump2.o)
 .text          0x0000000000000000        0x0 /usr/local/Cellar/avr-gcc@8/8.4.0/lib/avr-gcc/8/gcc/avr/8.4.0/avr5/libgcc.a(_copy_data.o)
 .data          0x0000000000000000        0x0 /usr/local/Cellar/avr-gcc@8/8.4.0/lib/avr-gcc/8/gcc/avr/8.4.0/avr5/libgcc.a(_copy_data.o)
 .bss           0x0000000000000000        0x0 /usr/local/Cellar/avr-gcc@8/8.4.0/lib/avr-gcc/8/gcc/avr/8.4.0/avr5/libgcc.a(_copy_data.o)
 .text.libgcc.mul
                0x0000000000000000        0x0 /usr/local/Cellar/avr-gcc@8/8.4.0/lib/avr-gcc/8/gcc/avr/8.4.0/avr5/libgcc.a(_copy_data.o)
 .text.libgcc.div
                0x0000000000000000        0x0 /usr/local/Cellar/avr-gcc@8/8.4.0/lib/avr-gcc/8/gcc/avr/8.4.0/avr5/libgcc.a(_copy_data.o)
 .text.libgcc   0x0000000000000000        0x0 /usr/local/Cellar/avr-gcc@8/8.4.0/lib/avr-gcc/8/gcc/avr/8.4.0/avr5/libgcc.a(_copy_data.o)
 .text.libgcc.prologue
                0x0000000000000000        0x0 /usr/local/Cellar/avr-gcc@8/8.4.0/lib/avr-gcc/8/gcc/avr/8.4.0/avr5/libgcc.a(_copy_data.o)
 .text.libgcc.builtins
                0x0000000000000000        0x0 /usr/local/Cellar/avr-gcc@8/8.4.0/lib/avr-gcc/8/gcc/avr/8.4.0/avr5/libgcc.a(_copy_data.o)
 .text.libgcc.fmul
                0x0000000000000000        0x0 /usr/local/Cellar/avr-gcc@8/8.4.0/lib/avr-gcc/8/gcc/avr/8.4.0/avr5/libgcc.a(_copy_data.o)
 .text.libgcc.fixed
                0x0000000000000000        0x0 /usr/local/Cellar/avr-gcc@8/8.4.0/lib/avr-gcc/8/gcc/avr/8.4.0/avr5/libgcc.a(_copy_data.o)
 .text          0x0000000000000000        0x0 /usr/local/Cellar/avr-gcc@8/8.4.0/lib/avr-gcc/8/gcc/avr/8.4.0/avr5/libgcc.a(_clear_bss.o)
 .data          0x0000000000000000        0x0 /usr/local/Cellar/avr-gcc@8/8.4.0/lib/avr-gcc/8/gcc/avr/8.4.0/avr5/libgcc.a(_clear_bss.o)
 .bss           0x0000000000000000        0x0 /usr/local/Cellar/avr-gcc@8/8.4.0/lib/avr-gcc/8/gcc/avr/8.4.0/avr5/libgcc.a(_clear_bss.o)
 .text.libgcc.mul
                0x0000000000000000        0x0 /usr/local/Cellar/avr-gcc@8/8.4.0/lib/avr-gcc/8/gcc/avr/8.4.0/avr5/libgcc.a(_clear_bss.o)
 .text.libgcc.div
                0x0000000000000000        0x0 /usr/local/Cellar/avr-gcc@8/8.4.0/lib/avr-gcc/8/gcc/avr/8.4.0/avr5/libgcc.a(_clear_bss.o)
 .text.libgcc   0x0000000000000000        0x0 /usr/local/Cellar/avr-gcc@8/8.4.0/lib/avr-gcc/8/gcc/avr/8.4.0/avr5/libgcc.a(_clear_bss.o)
 .text.libgcc.prologue
                0x0000000000000000        0x0 /usr/local/Cellar/avr-gcc@8/8.4.0/lib/avr-gcc/8/gcc/avr/8.4.0/avr5/libgcc.a(_clear_bss.o)
 .text.libgcc.builtins
                0x0000000000000000        0x0 /usr/local/Cellar/avr-gcc@8/8.4.0/lib/avr-gcc/8/gcc/avr/8.4.0/avr5/libgcc.a(_clear_bss.o)
 .text.libgcc.fmul
                0x0000000000000000        0x0 /usr/local/Cellar/avr-gcc@8/8.4.0/lib/avr-gcc/8/gcc/avr/8.4.0/avr5/libgcc.a(_clear_bss.o)
 .text.libgcc.fixed
                0x0000000000000000        0x0 /usr/local/Cellar/avr-gcc@8/8.4.0/lib/avr-gcc/8/gcc/avr/8.4.0/avr5/libgcc.a(_clear_bss.o)
 .text          0x0000000000000000        0x0 /usr/local/Cellar/avr-gcc@8/8.4.0/lib/avr-gcc/8/gcc/avr/8.4.0/avr5/libgcc.a(_mulhisi3.o)
 .data          0x0000000000000000        0x0 /usr/local/Cellar/avr-gcc@8/8.4.0/lib/avr-gcc/8/gcc/avr/8.4.0/avr5/libgcc.a(_mulhisi3.o)
 .bss           0x0000000000000000        0x0 /usr/local/Cellar/avr-gcc@8/8.4.0/lib/avr-gcc/8/gcc/avr/8.4.0/avr5/libgcc.a(_mulhisi3.o)
 .text.libgcc.div
                0x0000000000000000        0x0 /usr/local/Cellar/avr-gcc@8/8.4.0/lib/avr-gcc/8/gcc/avr/8.4.0/avr5/libgcc.a(_mulhisi3.o)
 .text.libgcc   0x0000000000000000        0x0 /usr/local/Cellar/avr-gcc@8/8.4.0/lib/avr-gcc/8/gcc/avr/8.4.0/avr5/libgcc.a(_mulhisi3.o)
 .text.libgcc.prologue
                0x0000000000000000        0x0 /usr/local/Cellar/avr-gcc@8/8.4.0/lib/avr-gcc/8/gcc/avr/8.4.0/avr5/libgcc.a(_mulhisi3.o)
 .text.libgcc.builtins
                0x0000000000000000        0x0 /usr/local/Cellar/avr-gcc@8/8.4.0/lib/avr-gcc/8/gcc/avr/8.4.0/avr5/libgcc.a(_mulhisi3.o)
 .text.libgcc.fmul
                0x0000000000000000        0x0 /usr/local/Cellar/avr-gcc@8/8.4.0/lib/avr-gcc/8/gcc/avr/8.4.0/avr5/libgcc.a(_mulhisi3.o)
 .text.libgcc.fixed
                0x0000000000000000        0x0 /usr/local/Cellar/avr-gcc@8/8.4.0/lib/avr-gcc/8/gcc/avr/8.4.0/avr5/libgcc.a(_mulhisi3.o)
 .text          0x0000000000000000        0x0 /usr/local/Cellar/avr-gcc@8/8.4.0/lib/avr-gcc/8/gcc/avr/8.4.0/avr5/libgcc.a(_umulhisi3.o)
 .data          0x0000000000000000        0x0 /usr/local/Cellar/avr-gcc@8/8.4.0/lib/avr-gcc/8/gcc/avr/8.4.0/avr5/libgcc.a(_umulhisi3.o)
 .bss           0x0000000000000000        0x0 /usr/local/Cellar/avr-gcc@8/8.4.0/lib/avr-gcc/8/gcc/avr/8.4.0/avr5/libgcc.a(_umulhisi3.o)
 .text.libgcc.div
                0x0000000000000000        0x0 /usr/local/Cellar/avr-gcc@8/8.4.0/lib/avr-gcc/8/gcc/avr/8.4.0/avr5/libgcc.a(_umulhisi3.o)
 .text.libgcc   0x0000000000000000        0x0 /usr/local/Cellar/avr-gcc@8/8.4.0/lib/avr-gcc/8/gcc/avr/8.4.0/avr5/libgcc.a(_umulhisi3.o)
 .text.libgcc.prologue
                0x0000000000000000        0x0 /usr/local/Cellar/avr-gcc@8/8.4.0/lib/avr-gcc/8/gcc/avr/8.4.0/avr5/libgcc.a(_umulhisi3.o)
 .text.libgcc.builtins
                0x0000000000000000        0x0 /usr/local/Cellar/avr-gcc@8/8.4.0/lib/avr-gcc/8/gcc/avr/8.4.0/avr5/libgcc.a(_umulhisi3.o)
 .text.libgcc.fmul
                0x0000000000000000        0x0 /usr/local/Cellar/avr-gcc@8/8.4.0/lib/avr-gcc/8/gcc/avr/8.4.0/avr5/libgcc.a(_umulhisi3.o)
 .text.libgcc.fixed
                0x0000000000000000        0x0 /usr/local/Cellar/avr-gcc@8/8.4.0/lib/avr-gcc/8/gcc/avr/8.4.0/avr5/libgcc.a(_umulhisi3.o)
 .text          0x0000000000000000        0x0 /usr/local/Cellar/avr-gcc@8/8.4.0/lib/avr-gcc/8/gcc/avr/8.4.0/avr5/libgcc.a(_usmulhisi3.o)
 .data          0x0000000000000000        0x0 /usr/local/Cellar/avr-gcc@8/8.4.0/lib/avr-gcc/8/gcc/avr/8.4.0/avr5/libgcc.a(_usmulhisi3.o)
 .bss           0x0000000000000000        0x0 /usr/local/Cellar/avr-gcc@8/8.4.0/lib/avr-gcc/8/gcc/avr/8.4.0/avr5/libgcc.a(_usmulhisi3.o)
 .text.libgcc.div
                0x0000000000000000        0x0 /usr/local/Cellar/avr-gcc@8/8.4.0/lib/avr-gcc/8/gcc/avr/8.4.0/avr5/libgcc.a(_usmulhisi3.o)
 .text.libgcc   0x0000000000000000        0x0 /usr/local/Cellar/avr-gcc@8/8.4.0/lib/avr-gcc/8/gcc/avr/8.4.0/avr5/libgcc.a(_usmulhisi3.o)
 .text.libgcc.prologue
                0x0000000000000000        0x0 /usr/local/Cellar/avr-gcc@8/8.4.0/lib/avr-gcc/8/gcc/avr/8.4.0/avr5/libgcc.a(_usmulhisi3.o)
 .text.libgcc.builtins
                0x0000000000000000        0x0 /usr/local/Cellar/avr-gcc@8/8.4.0/lib/avr-gcc/8/gcc/avr/8.4.0/avr5/libgcc.a(_usmulhisi3.o)
 .text.libgcc.fmul
                0x0000000000000000        0x0 /usr/local/Cellar/avr-gcc@8/8.4.0/lib/avr-gcc/8/gcc/avr/8.4.0/avr5/libgcc.a(_usmulhisi3.o)
 .text.libgcc.fixed
                0x0000000000000000        0x0 /usr/local/Cellar/avr-gcc@8/8.4.0/lib/avr-gcc/8/gcc/avr/8.4.0/avr5/libgcc.a(_usmulhisi3.o)
 .text          0x0000000000000000        0x0 /usr/local/Cellar/avr-gcc@8/8.4.0/lib/avr-gcc/8/gcc/avr/8.4.0/avr5/libgcc.a(_muluhisi3.o)
 .data          0x0000000000000000        0x0 /usr/local/Cellar/avr-gcc@8/8.4.0/lib/avr-gcc/8/gcc/avr/8.4.0/avr5/libgcc.a(_muluhisi3.o)
 .bss           0x0000000000000000        0x0 /usr/local/Cellar/avr-gcc@8/8.4.0/lib/avr-gcc/8/gcc/avr/8.4.0/avr5/libgcc.a(_muluhisi3.o)
 .text.libgcc.div
                0x0000000000000000        0x0 /usr/local/Cellar/avr-gcc@8/8.4.0/lib/avr-gcc/8/gcc/avr/8.4.0/avr5/libgcc.a(_muluhisi3.o)
 .text.libgcc   0x0000000000000000        0x0 /usr/local/Cellar/avr-gcc@8/8.4.0/lib/avr-gcc/8/gcc/avr/8.4.0/avr5/libgcc.a(_muluhisi3.o)
 .text.libgcc.prologue
                0x0000000000000000        0x0 /usr/local/Cellar/avr-gcc@8/8.4.0/lib/avr-gcc/8/gcc/avr/8.4.0/avr5/libgcc.a(_muluhisi3.o)
 .text.libgcc.builtins
                0x0000000000000000        0x0 /usr/local/Cellar/avr-gcc@8/8.4.0/lib/avr-gcc/8/gcc/avr/8.4.0/avr5/libgcc.a(_muluhisi3.o)
 .text.libgcc.fmul
                0x0000000000000000        0x0 /usr/local/Cellar/avr-gcc@8/8.4.0/lib/avr-gcc/8/gcc/avr/8.4.0/avr5/libgcc.a(_muluhisi3.o)
 .text.libgcc.fixed
                0x0000000000000000        0x0 /usr/local/Cellar/avr-gcc@8/8.4.0/lib/avr-gcc/8/gcc/avr/8.4.0/avr5/libgcc.a(_muluhisi3.o)
 .text          0x0000000000000000        0x0 /usr/local/Cellar/avr-gcc@8/8.4.0/lib/avr-gcc/8/gcc/avr/8.4.0/avr5/libgcc.a(_mulshisi3.o)
 .data          0x0000000000000000        0x0 /usr/local/Cellar/avr-gcc@8/8.4.0/lib/avr-gcc/8/gcc/avr/8.4.0/avr5/libgcc.a(_mulshisi3.o)
 .bss           0x0000000000000000        0x0 /usr/local/Cellar/avr-gcc@8/8.4.0/lib/avr-gcc/8/gcc/avr/8.4.0/avr5/libgcc.a(_mulshisi3.o)
 .text.libgcc.div
                0x0000000000000000        0x0 /usr/local/Cellar/avr-gcc@8/8.4.0/lib/avr-gcc/8/gcc/avr/8.4.0/avr5/libgcc.a(_mulshisi3.o)
 .text.libgcc   0x0000000000000000        0x0 /usr/local/Cellar/avr-gcc@8/8.4.0/lib/avr-gcc/8/gcc/avr/8.4.0/avr5/libgcc.a(_mulshisi3.o)
 .text.libgcc.prologue
                0x0000000000000000        0x0 /usr/local/Cellar/avr-gcc@8/8.4.0/lib/avr-gcc/8/gcc/avr/8.4.0/avr5/libgcc.a(_mulshisi3.o)
 .text.libgcc.builtins
                0x0000000000000000        0x0 /usr/local/Cellar/avr-gcc@8/8.4.0/lib/avr-gcc/8/gcc/avr/8.4.0/avr5/libgcc.a(_mulshisi3.o)
 .text.libgcc.fmul
                0x0000000000000000        0x0 /usr/local/Cellar/avr-gcc@8/8.4.0/lib/avr-gcc/8/gcc/avr/8.4.0/avr5/libgcc.a(_mulshisi3.o)
 .text.libgcc.fixed
                0x0000000000000000        0x0 /usr/local/Cellar/avr-gcc@8/8.4.0/lib/avr-gcc/8/gcc/avr/8.4.0/avr5/libgcc.a(_mulshisi3.o)
 .text          0x0000000000000000        0x0 /usr/local/Cellar/avr-gcc@8/8.4.0/lib/avr-gcc/8/gcc/avr/8.4.0/../../../../../../avr/lib/avr5/libc.a(malloc.o)
 .bss           0x0000000000000000        0x0 /usr/local/Cellar/avr-gcc@8/8.4.0/lib/avr-gcc/8/gcc/avr/8.4.0/../../../../../../avr/lib/avr5/libc.a(malloc.o)
 .text          0x0000000000000000        0x0 /usr/local/Cellar/avr-gcc@8/8.4.0/lib/avr-gcc/8/gcc/avr/8.4.0/../../../../../../avr/lib/avr5/libc.a(rand.o)
 .bss           0x0000000000000000        0x0 /usr/local/Cellar/avr-gcc@8/8.4.0/lib/avr-gcc/8/gcc/avr/8.4.0/../../../../../../avr/lib/avr5/libc.a(rand.o)
 .text          0x0000000000000000        0x0 /usr/local/Cellar/avr-gcc@8/8.4.0/lib/avr-gcc/8/gcc/avr/8.4.0/../../../../../../avr/lib/avr5/libc.a(tolower.o)
 .data          0x0000000000000000        0x0 /usr/local/Cellar/avr-gcc@8/8.4.0/lib/avr-gcc/8/gcc/avr/8.4.0/../../../../../../avr/lib/avr5/libc.a(tolower.o)
 .bss           0x0000000000000000        0x0 /usr/local/Cellar/avr-gcc@8/8.4.0/lib/avr-gcc/8/gcc/avr/8.4.0/../../../../../../avr/lib/avr5/libc.a(tolower.o)
 .text.avr-libc
                0x0000000000000000       0x10 /usr/local/Cellar/avr-gcc@8/8.4.0/lib/avr-gcc/8/gcc/avr/8.4.0/../../../../../../avr/lib/avr5/libc.a(tolower.o)
 .text          0x0000000000000000        0x0 /usr/local/Cellar/avr-gcc@8/8.4.0/lib/avr-gcc/8/gcc/avr/8.4.0/../../../../../../avr/lib/avr5/libc.a(memchr.o)
 .data          0x0000000000000000        0x0 /usr/local/Cellar/avr-gcc@8/8.4.0/lib/avr-gcc/8/gcc/avr/8.4.0/../../../../../../avr/lib/avr5/libc.a(memchr.o)
 .bss           0x0000000000000000        0x0 /usr/local/Cellar/avr-gcc@8/8.4.0/lib/avr-gcc/8/gcc/avr/8.4.0/../../../../../../avr/lib/avr5/libc.a(memchr.o)
 .text          0x0000000000000000        0x0 /usr/local/Cellar/avr-gcc@8/8.4.0/lib/avr-gcc/8/gcc/avr/8.4.0/../../../../../../avr/lib/avr5/libc.a(strcspn.o)
 .data          0x0000000000000000        0x0 /usr/local/Cellar/avr-gcc@8/8.4.0/lib/avr-gcc/8/gcc/avr/8.4.0/../../../../../../avr/lib/avr5/libc.a(strcspn.o)
 .bss           0x0000000000000000        0x0 /usr/local/Cellar/avr-gcc@8/8.4.0/lib/avr-gcc/8/gcc/avr/8.4.0/../../../../../../avr/lib/avr5/libc.a(strcspn.o)
 .text.avr-libc
                0x0000000000000000       0x1e /usr/local/Cellar/avr-gcc@8/8.4.0/lib/avr-gcc/8/gcc/avr/8.4.0/../../../../../../avr/lib/avr5/libc.a(strcspn.o)
 .text          0x0000000000000000        0x0 /usr/local/Cellar/avr-gcc@8/8.4.0/lib/avr-gcc/8/gcc/avr/8.4.0/../../../../../../avr/lib/avr5/libc.a(strncpy.o)
 .data          0x0000000000000000        0x0 /usr/local/Cellar/avr-gcc@8/8.4.0/lib/avr-gcc/8/gcc/avr/8.4.0/../../../../../../avr/lib/avr5/libc.a(strncpy.o)
 .bss           0x0000000000000000        0x0 /usr/local/Cellar/avr-gcc@8/8.4.0/lib/avr-gcc/8/gcc/avr/8.4.0/../../../../../../avr/lib/avr5/libc.a(strncpy.o)
 .text.avr-libc
                0x0000000000000000       0x1e /usr/local/Cellar/avr-gcc@8/8.4.0/lib/avr-gcc/8/gcc/avr/8.4.0/../../../../../../avr/lib/avr5/libc.a(strncpy.o)
 .text          0x0000000000000000        0x0 /usr/local/Cellar/avr-gcc@8/8.4.0/lib/avr-gcc/8/gcc/avr/8.4.0/../../../../../../avr/lib/avr5/libc.a(snprintf.o)
 .data          0x0000000000000000        0x0 /usr/local/Cellar/avr-gcc@8/8.4.0/lib/avr-gcc/8/gcc/avr/8.4.0/../../../../../../avr/lib/avr5/libc.a(snprintf.o)
 .bss           0x0000000000000000        0x0 /usr/local/Cellar/avr-gcc@8/8.4.0/lib/avr-gcc/8/gcc/avr/8.4.0/../../../../../../avr/lib/avr5/libc.a(snprintf.o)
 .text          0x0000000000000000        0x0 /usr/local/Cellar/avr-gcc@8/8.4.0/lib/avr-gcc/8/gcc/avr/8.4.0/../../../../../../avr/lib/avr5/libc.a(vfprintf_std.o)
 .data          0x0000000000000000        0x0 /usr/local/Cellar/avr-gcc@8/8.4.0/lib/avr-gcc/8/gcc/avr/8.4.0/../../../../../../avr/lib/avr5/libc.a(vfprintf_std.o)
 .bss           0x0000000000000000        0x0 /usr/local/Cellar/avr-gcc@8/8.4.0/lib/avr-gcc/8/gcc/avr/8.4.0/../../../../../../avr/lib/avr5/libc.a(vfprintf_std.o)
 .text          0x0000000000000000        0x0 /usr/local/Cellar/avr-gcc@8/8.4.0/lib/avr-gcc/8/gcc/avr/8.4.0/../../../../../../avr/lib/avr5/libc.a(strnlen_P.o)
 .data          0x0000000000000000        0x0 /usr/local/Cellar/avr-gcc@8/8.4.0/lib/avr-gcc/8/gcc/avr/8.4.0/../../../../../../avr/lib/avr5/libc.a(strnlen_P.o)
 .bss           0x0000000000000000        0x0 /usr/local/Cellar/avr-gcc@8/8.4.0/lib/avr-gcc/8/gcc/avr/8.4.0/../../../../../../avr/lib/avr5/libc.a(strnlen_P.o)
 .text          0x0000000000000000        0x0 /usr/local/Cellar/avr-gcc@8/8.4.0/lib/avr-gcc/8/gcc/avr/8.4.0/../../../../../../avr/lib/avr5/libc.a(strnlen.o)
 .data          0x0000000000000000        0x0 /usr/local/Cellar/avr-gcc@8/8.4.0/lib/avr-gcc/8/gcc/avr/8.4.0/../../../../../../avr/lib/avr5/libc.a(strnlen.o)
 .bss           0x0000000000000000        0x0 /usr/local/Cellar/avr-gcc@8/8.4.0/lib/avr-gcc/8/gcc/avr/8.4.0/../../../../../../avr/lib/avr5/libc.a(strnlen.o)
 .text          0x0000000000000000        0x0 /usr/local/Cellar/avr-gcc@8/8.4.0/lib/avr-gcc/8/gcc/avr/8.4.0/../../../../../../avr/lib/avr5/libc.a(fputc.o)
 .data          0x0000000000000000        0x0 /usr/local/Cellar/avr-gcc@8/8.4.0/lib/avr-gcc/8/gcc/avr/8.4.0/../../../../../../avr/lib/avr5/libc.a(fputc.o)
 .bss           0x0000000000000000        0x0 /usr/local/Cellar/avr-gcc@8/8.4.0/lib/avr-gcc/8/gcc/avr/8.4.0/../../../../../../avr/lib/avr5/libc.a(fputc.o)
 .text          0x0000000000000000        0x0 /usr/local/Cellar/avr-gcc@8/8.4.0/lib/avr-gcc/8/gcc/avr/8.4.0/../../../../../../avr/lib/avr5/libc.a(ultoa_invert.o)
 .data          0x0000000000000000        0x0 /usr/local/Cellar/avr-gcc@8/8.4.0/lib/avr-gcc/8/gcc/avr/8.4.0/../../../../../../avr/lib/avr5/libc.a(ultoa_invert.o)
 .bss           0x0000000000000000        0x0 /usr/local/Cellar/avr-gcc@8/8.4.0/lib/avr-gcc/8/gcc/avr/8.4.0/../../../../../../avr/lib/avr5/libc.a(ultoa_invert.o)
 .text          0x0000000000000000        0x0 /usr/local/Cellar/avr-gcc@8/8.4.0/lib/avr-gcc/8/gcc/avr/8.4.0/../../../../../../avr/lib/avr5/libatmega32u4.a(eerd_byte.o)
 .data          0x0000000000000000        0x0 /usr/local/Cellar/avr-gcc@8/8.4.0/lib/avr-gcc/8/gcc/avr/8.4.0/../../../../../../avr/lib/avr5/libatmega32u4.a(eerd_byte.o)
 .bss           0x0000000000000000        0x0 /usr/local/Cellar/avr-gcc@8/8.4.0/lib/avr-gcc/8/gcc/avr/8.4.0/../../../../../../avr/lib/avr5/libatmega32u4.a(eerd_byte.o)
 .text          0x0000000000000000        0x0 /usr/local/Cellar/avr-gcc@8/8.4.0/lib/avr-gcc/8/gcc/avr/8.4.0/../../../../../../avr/lib/avr5/libatmega32u4.a(eerd_dword.o)
 .data          0x0000000000000000        0x0 /usr/local/Cellar/avr-gcc@8/8.4.0/lib/avr-gcc/8/gcc/avr/8.4.0/../../../../../../avr/lib/avr5/libatmega32u4.a(eerd_dword.o)
 .bss           0x0000000000000000        0x0 /usr/local/Cellar/avr-gcc@8/8.4.0/lib/avr-gcc/8/gcc/avr/8.4.0/../../../../../../avr/lib/avr5/libatmega32u4.a(eerd_dword.o)
 .text          0x0000000000000000        0x0 /usr/local/Cellar/avr-gcc@8/8.4.0/lib/avr-gcc/8/gcc/avr/8.4.0/../../../../../../avr/lib/avr5/libatmega32u4.a(eerd_word.o)
 .data          0x0000000000000000        0x0 /usr/local/Cellar/avr-gcc@8/8.4.0/lib/avr-gcc/8/gcc/avr/8.4.0/../../../../../../avr/lib/avr5/libatmega32u4.a(eerd_word.o)
 .bss           0x0000000000000000        0x0 /usr/local/Cellar/avr-gcc@8/8.4.0/lib/avr-gcc/8/gcc/avr/8.4.0/../../../../../../avr/lib/avr5/libatmega32u4.a(eerd_word.o)
 .text          0x0000000000000000        0x0 /usr/local/Cellar/avr-gcc@8/8.4.0/lib/avr-gcc/8/gcc/avr/8.4.0/../../../../../../avr/lib/avr5/libatmega32u4.a(eeupd_byte.o)
 .data          0x0000000000000000        0x0 /usr/local/Cellar/avr-gcc@8/8.4.0/lib/avr-gcc/8/gcc/avr/8.4.0/../../../../../../avr/lib/avr5/libatmega32u4.a(eeupd_byte.o)
 .bss           0x0000000000000000        0x0 /usr/local/Cellar/avr-gcc@8/8.4.0/lib/avr-gcc/8/gcc/avr/8.4.0/../../../../../../avr/lib/avr5/libatmega32u4.a(eeupd_byte.o)
 .text          0x0000000000000000        0x0 /usr/local/Cellar/avr-gcc@8/8.4.0/lib/avr-gcc/8/gcc/avr/8.4.0/../../../../../../avr/lib/avr5/libatmega32u4.a(eeupd_dword.o)
 .data          0x0000000000000000        0x0 /usr/local/Cellar/avr-gcc@8/8.4.0/lib/avr-gcc/8/gcc/avr/8.4.0/../../../../../../avr/lib/avr5/libatmega32u4.a(eeupd_dword.o)
 .bss           0x0000000000000000        0x0 /usr/local/Cellar/avr-gcc@8/8.4.0/lib/avr-gcc/8/gcc/avr/8.4.0/../../../../../../avr/lib/avr5/libatmega32u4.a(eeupd_dword.o)
 .text          0x0000000000000000        0x0 /usr/local/Cellar/avr-gcc@8/8.4.0/lib/avr-gcc/8/gcc/avr/8.4.0/../../../../../../avr/lib/avr5/libatmega32u4.a(eeupd_word.o)
 .data          0x0000000000000000        0x0 /usr/local/Cellar/avr-gcc@8/8.4.0/lib/avr-gcc/8/gcc/avr/8.4.0/../../../../../../avr/lib/avr5/libatmega32u4.a(eeupd_word.o)
 .bss           0x0000000000000000        0x0 /usr/local/Cellar/avr-gcc@8/8.4.0/lib/avr-gcc/8/gcc/avr/8.4.0/../../../../../../avr/lib/avr5/libatmega32u4.a(eeupd_word.o)
 .text          0x0000000000000000        0x0 /usr/local/Cellar/avr-gcc@8/8.4.0/lib/avr-gcc/8/gcc/avr/8.4.0/../../../../../../avr/lib/avr5/libatmega32u4.a(eerd_block.o)
 .data          0x0000000000000000        0x0 /usr/local/Cellar/avr-gcc@8/8.4.0/lib/avr-gcc/8/gcc/avr/8.4.0/../../../../../../avr/lib/avr5/libatmega32u4.a(eerd_block.o)
 .bss           0x0000000000000000        0x0 /usr/local/Cellar/avr-gcc@8/8.4.0/lib/avr-gcc/8/gcc/avr/8.4.0/../../../../../../avr/lib/avr5/libatmega32u4.a(eerd_block.o)
 .text          0x0000000000000000        0x0 /usr/local/Cellar/avr-gcc@8/8.4.0/lib/avr-gcc/8/gcc/avr/8.4.0/avr5/libgcc.a(_divmodsi4.o)
 .data          0x0000000000000000        0x0 /usr/local/Cellar/avr-gcc@8/8.4.0/lib/avr-gcc/8/gcc/avr/8.4.0/avr5/libgcc.a(_divmodsi4.o)
 .bss           0x0000000000000000        0x0 /usr/local/Cellar/avr-gcc@8/8.4.0/lib/avr-gcc/8/gcc/avr/8.4.0/avr5/libgcc.a(_divmodsi4.o)
 .text.libgcc.mul
                0x0000000000000000        0x0 /usr/local/Cellar/avr-gcc@8/8.4.0/lib/avr-gcc/8/gcc/avr/8.4.0/avr5/libgcc.a(_divmodsi4.o)
 .text.libgcc   0x0000000000000000        0x0 /usr/local/Cellar/avr-gcc@8/8.4.0/lib/avr-gcc/8/gcc/avr/8.4.0/avr5/libgcc.a(_divmodsi4.o)
 .text.libgcc.prologue
                0x0000000000000000        0x0 /usr/local/Cellar/avr-gcc@8/8.4.0/lib/avr-gcc/8/gcc/avr/8.4.0/avr5/libgcc.a(_divmodsi4.o)
 .text.libgcc.builtins
                0x0000000000000000        0x0 /usr/local/Cellar/avr-gcc@8/8.4.0/lib/avr-gcc/8/gcc/avr/8.4.0/avr5/libgcc.a(_divmodsi4.o)
 .text.libgcc.fmul
                0x0000000000000000        0x0 /usr/local/Cellar/avr-gcc@8/8.4.0/lib/avr-gcc/8/gcc/avr/8.4.0/avr5/libgcc.a(_divmodsi4.o)
 .text.libgcc.fixed
                0x0000000000000000        0x0 /usr/local/Cellar/avr-gcc@8/8.4.0/lib/avr-gcc/8/gcc/avr/8.4.0/avr5/libgcc.a(_divmodsi4.o)
 .text          0x0000000000000000        0x0 /usr/local/Cellar/avr-gcc@8/8.4.0/lib/avr-gcc/8/gcc/avr/8.4.0/avr5/libgcc.a(_negsi2.o)
 .data          0x0000000000000000        0x0 /usr/local/Cellar/avr-gcc@8/8.4.0/lib/avr-gcc/8/gcc/avr/8.4.0/avr5/libgcc.a(_negsi2.o)
 .bss           0x0000000000000000        0x0 /usr/local/Cellar/avr-gcc@8/8.4.0/lib/avr-gcc/8/gcc/avr/8.4.0/avr5/libgcc.a(_negsi2.o)
 .text.libgcc.mul
                0x0000000000000000        0x0 /usr/local/Cellar/avr-gcc@8/8.4.0/lib/avr-gcc/8/gcc/avr/8.4.0/avr5/libgcc.a(_negsi2.o)
 .text.libgcc   0x0000000000000000        0x0 /usr/local/Cellar/avr-gcc@8/8.4.0/lib/avr-gcc/8/gcc/avr/8.4.0/avr5/libgcc.a(_negsi2.o)
 .text.libgcc.prologue
                0x0000000000000000        0x0 /usr/local/Cellar/avr-gcc@8/8.4.0/lib/avr-gcc/8/gcc/avr/8.4.0/avr5/libgcc.a(_negsi2.o)
 .text.libgcc.builtins
                0x0000000000000000        0x0 /usr/local/Cellar/avr-gcc@8/8.4.0/lib/avr-gcc/8/gcc/avr/8.4.0/avr5/libgcc.a(_negsi2.o)
 .text.libgcc.fmul
                0x0000000000000000        0x0 /usr/local/Cellar/avr-gcc@8/8.4.0/lib/avr-gcc/8/gcc/avr/8.4.0/avr5/libgcc.a(_negsi2.o)
 .text.libgcc.fixed
                0x0000000000000000        0x0 /usr/local/Cellar/avr-gcc@8/8.4.0/lib/avr-gcc/8/gcc/avr/8.4.0/avr5/libgcc.a(_negsi2.o)
 .text          0x0000000000000000        0x0 /usr/local/Cellar/avr-gcc@8/8.4.0/lib/avr-gcc/8/gcc/avr/8.4.0/avr5/libgcc.a(_prologue.o)
 .data          0x0000000000000000        0x0 /usr/local/Cellar/avr-gcc@8/8.4.0/lib/avr-gcc/8/gcc/avr/8.4.0/avr5/libgcc.a(_prologue.o)
 .bss           0x0000000000000000        0x0 /usr/local/Cellar/avr-gcc@8/8.4.0/lib/avr-gcc/8/gcc/avr/8.4.0/avr5/libgcc.a(_prologue.o)
 .text.libgcc.mul
                0x0000000000000000        0x0 /usr/local/Cellar/avr-gcc@8/8.4.0/lib/avr-gcc/8/gcc/avr/8.4.0/avr5/libgcc.a(_prologue.o)
 .text.libgcc.div
                0x0000000000000000        0x0 /usr/local/Cellar/avr-gcc@8/8.4.0/lib/avr-gcc/8/gcc/avr/8.4.0/avr5/libgcc.a(_prologue.o)
 .text.libgcc   0x0000000000000000        0x0 /usr/local/Cellar/avr-gcc@8/8.4.0/lib/avr-gcc/8/gcc/avr/8.4.0/avr5/libgcc.a(_prologue.o)
 .text.libgcc.builtins
                0x0000000000000000        0x0 /usr/local/Cellar/avr-gcc@8/8.4.0/lib/avr-gcc/8/gcc/avr/8.4.0/avr5/libgcc.a(_prologue.o)
 .text.libgcc.fmul
                0x0000000000000000        0x0 /usr/local/Cellar/avr-gcc@8/8.4.0/lib/avr-gcc/8/gcc/avr/8.4.0/avr5/libgcc.a(_prologue.o)
 .text.libgcc.fixed
                0x0000000000000000        0x0 /usr/local/Cellar/avr-gcc@8/8.4.0/lib/avr-gcc/8/gcc/avr/8.4.0/avr5/libgcc.a(_prologue.o)
 .text          0x0000000000000000        0x0 /usr/local/Cellar/avr-gcc@8/8.4.0/lib/avr-gcc/8/gcc/avr/8.4.0/avr5/libgcc.a(_epilogue.o)
 .data          0x0000000000000000        0x0 /usr/local/Cellar/avr-gcc@8/8.4.0/lib/avr-gcc/8/gcc/avr/8.4.0/avr5/libgcc.a(_epilogue.o)
 .bss           0x0000000000000000        0x0 /usr/local/Cellar/avr-gcc@8/8.4.0/lib/avr-gcc/8/gcc/avr/8.4.0/avr5/libgcc.a(_epilogue.o)
 .text.libgcc.mul
                0x0000000000000000        0x0 /usr/local/Cellar/avr-gcc@8/8.4.0/lib/avr-gcc/8/gcc/avr/8.4.0/avr5/libgcc.a(_epilogue.o)
 .text.libgcc.div
                0x0000000000000000        0x0 /usr/local/Cellar/avr-gcc@8/8.4.0/lib/avr-gcc/8/gcc/avr/8.4.0/avr5/libgcc.a(_epilogue.o)
 .text.libgcc   0x0000000000000000        0x0 /usr/local/Cellar/avr-gcc@8/8.4.0/lib/avr-gcc/8/gcc/avr/8.4.0/avr5/libgcc.a(_epilogue.o)
 .text.libgcc.builtins
                0x0000000000000000        0x0 /usr/local/Cellar/avr-gcc@8/8.4.0/lib/avr-gcc/8/gcc/avr/8.4.0/avr5/libgcc.a(_epilogue.o)
 .text.libgcc.fmul
                0x0000000000000000        0x0 /usr/local/Cellar/avr-gcc@8/8.4.0/lib/avr-gcc/8/gcc/avr/8.4.0/avr5/libgcc.a(_epilogue.o)
 .text.libgcc.fixed
                0x0000000000000000        0x0 /usr/local/Cellar/avr-gcc@8/8.4.0/lib/avr-gcc/8/gcc/avr/8.4.0/avr5/libgcc.a(_epilogue.o)

Memory Configuration

Name             Origin             Length             Attributes
text             0x0000000000000000 0x0000000000020000 xr
data             0x0000000000800060 0x000000000000ffa0 rw !x
eeprom           0x0000000000810000 0x0000000000010000 rw !x
fuse             0x0000000000820000 0x0000000000000400 rw !x
lock             0x0000000000830000 0x0000000000000400 rw !x
signature        0x0000000000840000 0x0000000000000400 rw !x
user_signatures  0x0000000000850000 0x0000000000000400 rw !x
*default*        0x0000000000000000 0xffffffffffffffff

Linker script and memory map

Address of section .data set to 0x800100
LOAD /usr/local/Cellar/avr-gcc@8/8.4.0/lib/avr-gcc/8/gcc/avr/8.4.0/../../../../../../avr/lib/avr5/crtatmega32u4.o
LOAD .build/obj_ergodox_ez_sfgabe_80_underglow/matrix.o
LOAD .build/obj_ergodox_ez_sfgabe_80_underglow/led_i2c.o
LOAD .build/obj_ergodox_ez_sfgabe_80_underglow/keyboards/ergodox_ez/ergodox_ez.o
LOAD .build/obj_ergodox_ez_sfgabe_80_underglow/keyboards/ergodox_ez/keymaps/sfgabe_80_underglow/keymap.o
LOAD .build/obj_ergodox_ez_sfgabe_80_underglow/quantum/quantum.o
LOAD .build/obj_ergodox_ez_sfgabe_80_underglow/quantum/keymap_common.o
LOAD .build/obj_ergodox_ez_sfgabe_80_underglow/quantum/keycode_config.o
LOAD .build/obj_ergodox_ez_sfgabe_80_underglow/quantum/matrix_common.o
LOAD .build/obj_ergodox_ez_sfgabe_80_underglow/quantum/debounce/sym_eager_pr.o
LOAD .build/obj_ergodox_ez_sfgabe_80_underglow/quantum/color.o
LOAD .build/obj_ergodox_ez_sfgabe_80_underglow/quantum/rgblight.o
LOAD .build/obj_ergodox_ez_sfgabe_80_underglow/quantum/process_keycode/process_rgb.o
LOAD .build/obj_ergodox_ez_sfgabe_80_underglow/ws2812.o
LOAD .build/obj_ergodox_ez_sfgabe_80_underglow/quantum/led_tables.o
LOAD .build/obj_ergodox_ez_sfgabe_80_underglow/quantum/encoder.o
LOAD .build/obj_ergodox_ez_sfgabe_80_underglow/quantum/process_keycode/process_unicode.o
LOAD .build/obj_ergodox_ez_sfgabe_80_underglow/quantum/process_keycode/process_unicode_common.o
LOAD .build/obj_ergodox_ez_sfgabe_80_underglow/quantum/process_keycode/process_space_cadet.o
LOAD .build/obj_ergodox_ez_sfgabe_80_underglow/quantum/process_keycode/process_magic.o
LOAD .build/obj_ergodox_ez_sfgabe_80_underglow/quantum/process_keycode/process_grave_esc.o
LOAD .build/obj_ergodox_ez_sfgabe_80_underglow/quantum/process_keycode/process_auto_shift.o
LOAD .build/obj_ergodox_ez_sfgabe_80_underglow/i2c_master.a
LOAD .build/obj_ergodox_ez_sfgabe_80_underglow/common/host.o
LOAD .build/obj_ergodox_ez_sfgabe_80_underglow/common/keyboard.o
LOAD .build/obj_ergodox_ez_sfgabe_80_underglow/common/action.o
LOAD .build/obj_ergodox_ez_sfgabe_80_underglow/common/action_tapping.o
LOAD .build/obj_ergodox_ez_sfgabe_80_underglow/common/action_macro.o
LOAD .build/obj_ergodox_ez_sfgabe_80_underglow/common/action_layer.o
LOAD .build/obj_ergodox_ez_sfgabe_80_underglow/common/action_util.o
LOAD .build/obj_ergodox_ez_sfgabe_80_underglow/common/print.o
LOAD .build/obj_ergodox_ez_sfgabe_80_underglow/common/debug.o
LOAD .build/obj_ergodox_ez_sfgabe_80_underglow/common/sendchar_null.o
LOAD .build/obj_ergodox_ez_sfgabe_80_underglow/common/util.o
LOAD .build/obj_ergodox_ez_sfgabe_80_underglow/common/eeconfig.o
LOAD .build/obj_ergodox_ez_sfgabe_80_underglow/common/report.o
LOAD .build/obj_ergodox_ez_sfgabe_80_underglow/common/avr/suspend.o
LOAD .build/obj_ergodox_ez_sfgabe_80_underglow/common/avr/timer.o
LOAD .build/obj_ergodox_ez_sfgabe_80_underglow/common/avr/bootloader.o
LOAD .build/obj_ergodox_ez_sfgabe_80_underglow/common/avr/xprintf.o
LOAD .build/obj_ergodox_ez_sfgabe_80_underglow/common/magic.o
LOAD .build/obj_ergodox_ez_sfgabe_80_underglow/common/mousekey.o
LOAD .build/obj_ergodox_ez_sfgabe_80_underglow/common/command.o
LOAD .build/obj_ergodox_ez_sfgabe_80_underglow/lufa.o
LOAD .build/obj_ergodox_ez_sfgabe_80_underglow/usb_descriptor.o
LOAD .build/obj_ergodox_ez_sfgabe_80_underglow/lib/lufa/LUFA/Drivers/USB/Class/Common/HIDParser.o
LOAD .build/obj_ergodox_ez_sfgabe_80_underglow/lib/lufa/LUFA/Drivers/USB/Core/AVR8/Device_AVR8.o
LOAD .build/obj_ergodox_ez_sfgabe_80_underglow/lib/lufa/LUFA/Drivers/USB/Core/AVR8/EndpointStream_AVR8.o
LOAD .build/obj_ergodox_ez_sfgabe_80_underglow/lib/lufa/LUFA/Drivers/USB/Core/AVR8/Endpoint_AVR8.o
LOAD .build/obj_ergodox_ez_sfgabe_80_underglow/lib/lufa/LUFA/Drivers/USB/Core/AVR8/Host_AVR8.o
LOAD .build/obj_ergodox_ez_sfgabe_80_underglow/lib/lufa/LUFA/Drivers/USB/Core/AVR8/PipeStream_AVR8.o
LOAD .build/obj_ergodox_ez_sfgabe_80_underglow/lib/lufa/LUFA/Drivers/USB/Core/AVR8/Pipe_AVR8.o
LOAD .build/obj_ergodox_ez_sfgabe_80_underglow/lib/lufa/LUFA/Drivers/USB/Core/AVR8/USBController_AVR8.o
LOAD .build/obj_ergodox_ez_sfgabe_80_underglow/lib/lufa/LUFA/Drivers/USB/Core/AVR8/USBInterrupt_AVR8.o
LOAD .build/obj_ergodox_ez_sfgabe_80_underglow/lib/lufa/LUFA/Drivers/USB/Core/ConfigDescriptors.o
LOAD .build/obj_ergodox_ez_sfgabe_80_underglow/lib/lufa/LUFA/Drivers/USB/Core/DeviceStandardReq.o
LOAD .build/obj_ergodox_ez_sfgabe_80_underglow/lib/lufa/LUFA/Drivers/USB/Core/Events.o
LOAD .build/obj_ergodox_ez_sfgabe_80_underglow/lib/lufa/LUFA/Drivers/USB/Core/HostStandardReq.o
LOAD .build/obj_ergodox_ez_sfgabe_80_underglow/lib/lufa/LUFA/Drivers/USB/Core/USBTask.o
LOAD /usr/local/Cellar/avr-gcc@8/8.4.0/lib/avr-gcc/8/gcc/avr/8.4.0/../../../../../../avr/lib/avr5/libm.a
START GROUP
LOAD /usr/local/Cellar/avr-gcc@8/8.4.0/lib/avr-gcc/8/gcc/avr/8.4.0/avr5/libgcc.a
LOAD /usr/local/Cellar/avr-gcc@8/8.4.0/lib/avr-gcc/8/gcc/avr/8.4.0/../../../../../../avr/lib/avr5/libm.a
LOAD /usr/local/Cellar/avr-gcc@8/8.4.0/lib/avr-gcc/8/gcc/avr/8.4.0/../../../../../../avr/lib/avr5/libc.a
LOAD /usr/local/Cellar/avr-gcc@8/8.4.0/lib/avr-gcc/8/gcc/avr/8.4.0/../../../../../../avr/lib/avr5/libatmega32u4.a
END GROUP
                0x0000000000020000                __TEXT_REGION_LENGTH__ = DEFINED (__TEXT_REGION_LENGTH__)?__TEXT_REGION_LENGTH__:0x20000
                0x000000000000ffa0                __DATA_REGION_LENGTH__ = DEFINED (__DATA_REGION_LENGTH__)?__DATA_REGION_LENGTH__:0xffa0
                0x0000000000010000                __EEPROM_REGION_LENGTH__ = DEFINED (__EEPROM_REGION_LENGTH__)?__EEPROM_REGION_LENGTH__:0x10000
                0x0000000000000400                __FUSE_REGION_LENGTH__ = DEFINED (__FUSE_REGION_LENGTH__)?__FUSE_REGION_LENGTH__:0x400
                0x0000000000000400                __LOCK_REGION_LENGTH__ = DEFINED (__LOCK_REGION_LENGTH__)?__LOCK_REGION_LENGTH__:0x400
                0x0000000000000400                __SIGNATURE_REGION_LENGTH__ = DEFINED (__SIGNATURE_REGION_LENGTH__)?__SIGNATURE_REGION_LENGTH__:0x400
                0x0000000000000400                __USER_SIGNATURE_REGION_LENGTH__ = DEFINED (__USER_SIGNATURE_REGION_LENGTH__)?__USER_SIGNATURE_REGION_LENGTH__:0x400

.hash
 *(.hash)

.dynsym
 *(.dynsym)

.dynstr
 *(.dynstr)

.gnu.version
 *(.gnu.version)

.gnu.version_d
 *(.gnu.version_d)

.gnu.version_r
 *(.gnu.version_r)

.rel.init
 *(.rel.init)

.rela.init
 *(.rela.init)

.rel.text
 *(.rel.text)
 *(.rel.text.*)
 *(.rel.gnu.linkonce.t*)

.rela.text
 *(.rela.text)
 *(.rela.text.*)
 *(.rela.gnu.linkonce.t*)

.rel.fini
 *(.rel.fini)

.rela.fini
 *(.rela.fini)

.rel.rodata
 *(.rel.rodata)
 *(.rel.rodata.*)
 *(.rel.gnu.linkonce.r*)

.rela.rodata
 *(.rela.rodata)
 *(.rela.rodata.*)
 *(.rela.gnu.linkonce.r*)

.rel.data
 *(.rel.data)
 *(.rel.data.*)
 *(.rel.gnu.linkonce.d*)

.rela.data
 *(.rela.data)
 *(.rela.data.*)
 *(.rela.gnu.linkonce.d*)

.rel.ctors
 *(.rel.ctors)

.rela.ctors
 *(.rela.ctors)

.rel.dtors
 *(.rel.dtors)

.rela.dtors
 *(.rela.dtors)

.rel.got
 *(.rel.got)

.rela.got
 *(.rela.got)

.rel.bss
 *(.rel.bss)

.rela.bss
 *(.rela.bss)

.rel.plt
 *(.rel.plt)

.rela.plt
 *(.rela.plt)

.text           0x0000000000000000     0x6ef4
 *(.vectors)
 .vectors       0x0000000000000000       0xac /usr/local/Cellar/avr-gcc@8/8.4.0/lib/avr-gcc/8/gcc/avr/8.4.0/../../../../../../avr/lib/avr5/crtatmega32u4.o
                0x0000000000000000                __vectors
                0x0000000000000000                __vector_default
 *(.vectors)
 *(.progmem.gcc*)
                0x00000000000000ac                . = ALIGN (0x2)
                0x00000000000000ac                __trampolines_start = .
 *(.trampolines)
 .trampolines   0x00000000000000ac        0x0 linker stubs
 *(.trampolines*)
                0x00000000000000ac                __trampolines_end = .
 *libprintf_flt.a:*(.progmem.data)
 *libc.a:*(.progmem.data)
 *(.progmem.*)
 .progmem.data.keymaps
                0x00000000000000ac      0x2a0 .build/obj_ergodox_ez_sfgabe_80_underglow/keyboards/ergodox_ez/keymaps/sfgabe_80_underglow/keymap.o
                0x00000000000000ac                keymaps
 .progmem.data.ascii_to_keycode_lut
                0x000000000000034c       0x80 .build/obj_ergodox_ez_sfgabe_80_underglow/quantum/quantum.o
                0x000000000000034c                ascii_to_keycode_lut
 .progmem.data.ascii_to_altgr_lut
                0x00000000000003cc       0x10 .build/obj_ergodox_ez_sfgabe_80_underglow/quantum/quantum.o
                0x00000000000003cc                ascii_to_altgr_lut
 .progmem.data.ascii_to_shift_lut
                0x00000000000003dc       0x10 .build/obj_ergodox_ez_sfgabe_80_underglow/quantum/quantum.o
                0x00000000000003dc                ascii_to_shift_lut
 .progmem.data.RGBLED_TWINKLE_INTERVALS
                0x00000000000003ec        0x3 .build/obj_ergodox_ez_sfgabe_80_underglow/quantum/rgblight.o
                0x00000000000003ec                RGBLED_TWINKLE_INTERVALS
 .progmem.data.RGBLED_RGBTEST_INTERVALS
                0x00000000000003ef        0x2 .build/obj_ergodox_ez_sfgabe_80_underglow/quantum/rgblight.o
                0x00000000000003ef                RGBLED_RGBTEST_INTERVALS
 .progmem.data.RGBLED_KNIGHT_INTERVALS
                0x00000000000003f1        0x3 .build/obj_ergodox_ez_sfgabe_80_underglow/quantum/rgblight.o
                0x00000000000003f1                RGBLED_KNIGHT_INTERVALS
 .progmem.data.RGBLED_SNAKE_INTERVALS
                0x00000000000003f4        0x3 .build/obj_ergodox_ez_sfgabe_80_underglow/quantum/rgblight.o
                0x00000000000003f4                RGBLED_SNAKE_INTERVALS
 .progmem.data.RGBLED_RAINBOW_SWIRL_INTERVALS
                0x00000000000003f7        0x3 .build/obj_ergodox_ez_sfgabe_80_underglow/quantum/rgblight.o
                0x00000000000003f7                RGBLED_RAINBOW_SWIRL_INTERVALS
 .progmem.data.RGBLED_RAINBOW_MOOD_INTERVALS
                0x00000000000003fa        0x3 .build/obj_ergodox_ez_sfgabe_80_underglow/quantum/rgblight.o
                0x00000000000003fa                RGBLED_RAINBOW_MOOD_INTERVALS
 .progmem.data.RGBLED_BREATHING_INTERVALS
                0x00000000000003fd        0x4 .build/obj_ergodox_ez_sfgabe_80_underglow/quantum/rgblight.o
                0x00000000000003fd                RGBLED_BREATHING_INTERVALS
 .progmem.data.rgblight_effect_breathe_table
                0x0000000000000401      0x100 .build/obj_ergodox_ez_sfgabe_80_underglow/quantum/rgblight.o
                0x0000000000000401                rgblight_effect_breathe_table
 .progmem.data.RGBLED_GRADIENT_RANGES
                0x0000000000000501        0x5 .build/obj_ergodox_ez_sfgabe_80_underglow/quantum/rgblight.o
                0x0000000000000501                RGBLED_GRADIENT_RANGES
 .progmem.data.CIE1931_CURVE
                0x0000000000000506      0x100 .build/obj_ergodox_ez_sfgabe_80_underglow/quantum/led_tables.o
                0x0000000000000506                CIE1931_CURVE
 .progmem.data.SerialNumberString
                0x0000000000000606        0x6 .build/obj_ergodox_ez_sfgabe_80_underglow/usb_descriptor.o
                0x0000000000000606                SerialNumberString
 .progmem.data.ProductString
                0x000000000000060c       0x18 .build/obj_ergodox_ez_sfgabe_80_underglow/usb_descriptor.o
                0x000000000000060c                ProductString
 .progmem.data.ManufacturerString
                0x0000000000000624       0x2a .build/obj_ergodox_ez_sfgabe_80_underglow/usb_descriptor.o
                0x0000000000000624                ManufacturerString
 .progmem.data.LanguageString
                0x000000000000064e        0x4 .build/obj_ergodox_ez_sfgabe_80_underglow/usb_descriptor.o
                0x000000000000064e                LanguageString
 .progmem.data.ConfigurationDescriptor
                0x0000000000000652       0x3b .build/obj_ergodox_ez_sfgabe_80_underglow/usb_descriptor.o
                0x0000000000000652                ConfigurationDescriptor
 .progmem.data.DeviceDescriptor
                0x000000000000068d       0x12 .build/obj_ergodox_ez_sfgabe_80_underglow/usb_descriptor.o
                0x000000000000068d                DeviceDescriptor
 .progmem.data.SharedReport
                0x000000000000069f       0xbc .build/obj_ergodox_ez_sfgabe_80_underglow/usb_descriptor.o
                0x000000000000069f                SharedReport
 .progmem.data.KeyboardReport
                0x000000000000075b       0x40 .build/obj_ergodox_ez_sfgabe_80_underglow/usb_descriptor.o
                0x000000000000075b                KeyboardReport
                0x000000000000079c                . = ALIGN (0x2)
 *fill*         0x000000000000079b        0x1 
 *(.lowtext)
 *(.lowtext*)
                0x000000000000079c                __ctors_start = .
 *(.ctors)
                0x000000000000079c                __ctors_end = .
                0x000000000000079c                __dtors_start = .
 *(.dtors)
                0x000000000000079c                __dtors_end = .
 SORT_BY_NAME(*)(.ctors)
 SORT_BY_NAME(*)(.dtors)
 *(.init0)
 .init0         0x000000000000079c        0x0 /usr/local/Cellar/avr-gcc@8/8.4.0/lib/avr-gcc/8/gcc/avr/8.4.0/../../../../../../avr/lib/avr5/crtatmega32u4.o
                0x000000000000079c                __init
 *(.init0)
 *(.init1)
 *(.init1)
 *(.init2)
 .init2         0x000000000000079c        0xc /usr/local/Cellar/avr-gcc@8/8.4.0/lib/avr-gcc/8/gcc/avr/8.4.0/../../../../../../avr/lib/avr5/crtatmega32u4.o
 *(.init2)
 *(.init3)
 .init3         0x00000000000007a8        0x0 .build/obj_ergodox_ez_sfgabe_80_underglow/common/avr/bootloader.o
                0x00000000000007a8                bootloader_jump_after_watchdog_reset
 *(.init3)
 *(.init4)
 .init4         0x00000000000007a8       0x16 /usr/local/Cellar/avr-gcc@8/8.4.0/lib/avr-gcc/8/gcc/avr/8.4.0/avr5/libgcc.a(_copy_data.o)
                0x00000000000007a8                __do_copy_data
 .init4         0x00000000000007be       0x10 /usr/local/Cellar/avr-gcc@8/8.4.0/lib/avr-gcc/8/gcc/avr/8.4.0/avr5/libgcc.a(_clear_bss.o)
                0x00000000000007be                __do_clear_bss
 *(.init4)
 *(.init5)
 *(.init5)
 *(.init6)
 *(.init6)
 *(.init7)
 *(.init7)
 *(.init8)
 *(.init8)
 *(.init9)
 .init9         0x00000000000007ce        0x8 /usr/local/Cellar/avr-gcc@8/8.4.0/lib/avr-gcc/8/gcc/avr/8.4.0/../../../../../../avr/lib/avr5/crtatmega32u4.o
 *(.init9)
 *(.text)
 .text          0x00000000000007d6        0x4 /usr/local/Cellar/avr-gcc@8/8.4.0/lib/avr-gcc/8/gcc/avr/8.4.0/../../../../../../avr/lib/avr5/crtatmega32u4.o
                0x00000000000007d6                __vector_42
                0x00000000000007d6                __vector_22
                0x00000000000007d6                __vector_28
                0x00000000000007d6                __vector_1
                0x00000000000007d6                __vector_32
                0x00000000000007d6                __vector_34
                0x00000000000007d6                __vector_24
                0x00000000000007d6                __bad_interrupt
                0x00000000000007d6                __vector_6
                0x00000000000007d6                __vector_31
                0x00000000000007d6                __vector_35
                0x00000000000007d6                __vector_39
                0x00000000000007d6                __vector_3
                0x00000000000007d6                __vector_23
                0x00000000000007d6                __vector_30
                0x00000000000007d6                __vector_25
                0x00000000000007d6                __vector_13
                0x00000000000007d6                __vector_17
                0x00000000000007d6                __vector_19
                0x00000000000007d6                __vector_7
                0x00000000000007d6                __vector_41
                0x00000000000007d6                __vector_27
                0x00000000000007d6                __vector_5
                0x00000000000007d6                __vector_33
                0x00000000000007d6                __vector_37
                0x00000000000007d6                __vector_4
                0x00000000000007d6                __vector_9
                0x00000000000007d6                __vector_2
                0x00000000000007d6                __vector_15
                0x00000000000007d6                __vector_36
                0x00000000000007d6                __vector_29
                0x00000000000007d6                __vector_40
                0x00000000000007d6                __vector_8
                0x00000000000007d6                __vector_26
                0x00000000000007d6                __vector_14
                0x00000000000007d6                __vector_16
                0x00000000000007d6                __vector_18
                0x00000000000007d6                __vector_20
                0x00000000000007d6                __vector_38
                0x00000000000007da                . = ALIGN (0x2)
 *(.text.*)
 .text.init_cols
                0x00000000000007da       0x1a .build/obj_ergodox_ez_sfgabe_80_underglow/matrix.o
 .text.unselect_rows
                0x00000000000007f4       0x1e .build/obj_ergodox_ez_sfgabe_80_underglow/matrix.o
 .text.select_row
                0x0000000000000812       0xa8 .build/obj_ergodox_ez_sfgabe_80_underglow/matrix.o
 .text.read_cols
                0x00000000000008ba       0x6e .build/obj_ergodox_ez_sfgabe_80_underglow/matrix.o
 .text.matrix_init_custom
                0x0000000000000928       0x16 .build/obj_ergodox_ez_sfgabe_80_underglow/matrix.o
                0x0000000000000928                matrix_init_custom
 .text.matrix_scan_custom
                0x000000000000093e       0xa4 .build/obj_ergodox_ez_sfgabe_80_underglow/matrix.o
                0x000000000000093e                matrix_scan_custom
 .text.matrix_power_up
                0x00000000000009e2       0x26 .build/obj_ergodox_ez_sfgabe_80_underglow/matrix.o
                0x00000000000009e2                matrix_power_up
 .text.rgblight_call_driver
                0x0000000000000a08       0x70 .build/obj_ergodox_ez_sfgabe_80_underglow/led_i2c.o
                0x0000000000000a08                rgblight_call_driver
 .text.ergodox_right_led_1_on
                0x0000000000000a78        0x6 .build/obj_ergodox_ez_sfgabe_80_underglow/keyboards/ergodox_ez/ergodox_ez.o
                0x0000000000000a78                ergodox_right_led_1_on
 .text.ergodox_right_led_2_on
                0x0000000000000a7e        0x6 .build/obj_ergodox_ez_sfgabe_80_underglow/keyboards/ergodox_ez/ergodox_ez.o
                0x0000000000000a7e                ergodox_right_led_2_on
 .text.ergodox_right_led_3_on
                0x0000000000000a84        0x6 .build/obj_ergodox_ez_sfgabe_80_underglow/keyboards/ergodox_ez/ergodox_ez.o
                0x0000000000000a84                ergodox_right_led_3_on
 .text.ergodox_board_led_off
                0x0000000000000a8a        0x6 .build/obj_ergodox_ez_sfgabe_80_underglow/keyboards/ergodox_ez/ergodox_ez.o
                0x0000000000000a8a                ergodox_board_led_off
 .text.ergodox_right_led_1_off
                0x0000000000000a90        0x6 .build/obj_ergodox_ez_sfgabe_80_underglow/keyboards/ergodox_ez/ergodox_ez.o
                0x0000000000000a90                ergodox_right_led_1_off
 .text.ergodox_right_led_2_off
                0x0000000000000a96        0x6 .build/obj_ergodox_ez_sfgabe_80_underglow/keyboards/ergodox_ez/ergodox_ez.o
                0x0000000000000a96                ergodox_right_led_2_off
 .text.ergodox_right_led_3_off
                0x0000000000000a9c        0x6 .build/obj_ergodox_ez_sfgabe_80_underglow/keyboards/ergodox_ez/ergodox_ez.o
                0x0000000000000a9c                ergodox_right_led_3_off
 .text.ergodox_led_all_off
                0x0000000000000aa2       0x10 .build/obj_ergodox_ez_sfgabe_80_underglow/keyboards/ergodox_ez/ergodox_ez.o
                0x0000000000000aa2                ergodox_led_all_off
 .text.ergodox_led_all_set
                0x0000000000000ab2       0x1c .build/obj_ergodox_ez_sfgabe_80_underglow/keyboards/ergodox_ez/ergodox_ez.o
                0x0000000000000ab2                ergodox_led_all_set
 .text.ergodox_blink_all_leds
                0x0000000000000ace       0x80 .build/obj_ergodox_ez_sfgabe_80_underglow/keyboards/ergodox_ez/ergodox_ez.o
                0x0000000000000ace                ergodox_blink_all_leds
 .text.matrix_init_kb
                0x0000000000000b4e       0x56 .build/obj_ergodox_ez_sfgabe_80_underglow/keyboards/ergodox_ez/ergodox_ez.o
                0x0000000000000b4e                matrix_init_kb
 .text.init_mcp23018
                0x0000000000000ba4       0xee .build/obj_ergodox_ez_sfgabe_80_underglow/keyboards/ergodox_ez/ergodox_ez.o
                0x0000000000000ba4                init_mcp23018
 .text.eeconfig_init_kb
                0x0000000000000c92       0x30 .build/obj_ergodox_ez_sfgabe_80_underglow/keyboards/ergodox_ez/ergodox_ez.o
                0x0000000000000c92                eeconfig_init_kb
 .text.matrix_init_user
                0x0000000000000cc2        0x2 .build/obj_ergodox_ez_sfgabe_80_underglow/keyboards/ergodox_ez/keymaps/sfgabe_80_underglow/keymap.o
                0x0000000000000cc2                matrix_init_user
 .text.matrix_scan_user
                0x0000000000000cc4       0x5e .build/obj_ergodox_ez_sfgabe_80_underglow/keyboards/ergodox_ez/keymaps/sfgabe_80_underglow/keymap.o
                0x0000000000000cc4                matrix_scan_user
 .text.encoder_update_user
                0x0000000000000d22       0x20 .build/obj_ergodox_ez_sfgabe_80_underglow/keyboards/ergodox_ez/keymaps/sfgabe_80_underglow/keymap.o
                0x0000000000000d22                encoder_update_user
 .text.do_code16
                0x0000000000000d42       0x6e .build/obj_ergodox_ez_sfgabe_80_underglow/quantum/quantum.o
 .text.register_code16
                0x0000000000000db0       0x2a .build/obj_ergodox_ez_sfgabe_80_underglow/quantum/quantum.o
                0x0000000000000db0                register_code16
 .text.unregister_code16
                0x0000000000000dda       0x2a .build/obj_ergodox_ez_sfgabe_80_underglow/quantum/quantum.o
                0x0000000000000dda                unregister_code16
 .text.tap_code16
                0x0000000000000e04       0x14 .build/obj_ergodox_ez_sfgabe_80_underglow/quantum/quantum.o
                0x0000000000000e04                tap_code16
 .text.process_action_kb
                0x0000000000000e18        0x4 .build/obj_ergodox_ez_sfgabe_80_underglow/quantum/quantum.o
                0x0000000000000e18                process_action_kb
 .text.process_record_user
                0x0000000000000e1c        0x4 .build/obj_ergodox_ez_sfgabe_80_underglow/quantum/quantum.o
                0x0000000000000e1c                process_record_user
 .text.process_record_kb
                0x0000000000000e20        0x4 .build/obj_ergodox_ez_sfgabe_80_underglow/quantum/quantum.o
                0x0000000000000e20                process_record_kb
 .text.post_process_record_user
                0x0000000000000e24        0x2 .build/obj_ergodox_ez_sfgabe_80_underglow/quantum/quantum.o
                0x0000000000000e24                post_process_record_user
 .text.post_process_record_kb
                0x0000000000000e26        0x4 .build/obj_ergodox_ez_sfgabe_80_underglow/quantum/quantum.o
                0x0000000000000e26                post_process_record_kb
 .text.get_event_keycode
                0x0000000000000e2a       0x66 .build/obj_ergodox_ez_sfgabe_80_underglow/quantum/quantum.o
                0x0000000000000e2a                get_event_keycode
 .text.get_record_keycode
                0x0000000000000e90       0x12 .build/obj_ergodox_ez_sfgabe_80_underglow/quantum/quantum.o
                0x0000000000000e90                get_record_keycode
 .text.post_process_record_quantum
                0x0000000000000ea2       0x16 .build/obj_ergodox_ez_sfgabe_80_underglow/quantum/quantum.o
                0x0000000000000ea2                post_process_record_quantum
 .text.send_char
                0x0000000000000eb8       0x98 .build/obj_ergodox_ez_sfgabe_80_underglow/quantum/quantum.o
                0x0000000000000eb8                send_char
 .text.send_string_with_delay
                0x0000000000000f50       0xd0 .build/obj_ergodox_ez_sfgabe_80_underglow/quantum/quantum.o
                0x0000000000000f50                send_string_with_delay
 .text.send_string
                0x0000000000001020        0x6 .build/obj_ergodox_ez_sfgabe_80_underglow/quantum/quantum.o
                0x0000000000001020                send_string
 .text.matrix_init_quantum
                0x0000000000001026       0x14 .build/obj_ergodox_ez_sfgabe_80_underglow/quantum/quantum.o
                0x0000000000001026                matrix_init_quantum
 .text.matrix_scan_quantum
                0x000000000000103a        0x4 .build/obj_ergodox_ez_sfgabe_80_underglow/quantum/quantum.o
                0x000000000000103a                matrix_scan_quantum
 .text.hex_to_keycode
                0x000000000000103e       0x1c .build/obj_ergodox_ez_sfgabe_80_underglow/quantum/quantum.o
                0x000000000000103e                hex_to_keycode
 .text.led_set_user
                0x000000000000105a        0x2 .build/obj_ergodox_ez_sfgabe_80_underglow/quantum/quantum.o
                0x000000000000105a                led_set_user
 .text.led_set_kb
                0x000000000000105c        0x4 .build/obj_ergodox_ez_sfgabe_80_underglow/quantum/quantum.o
                0x000000000000105c                led_set_kb
 .text.led_update_user
                0x0000000000001060        0x4 .build/obj_ergodox_ez_sfgabe_80_underglow/quantum/quantum.o
                0x0000000000001060                led_update_user
 .text.led_update_kb
                0x0000000000001064        0x4 .build/obj_ergodox_ez_sfgabe_80_underglow/quantum/quantum.o
                0x0000000000001064                led_update_kb
 .text.led_set  0x0000000000001068       0x10 .build/obj_ergodox_ez_sfgabe_80_underglow/quantum/quantum.o
                0x0000000000001068                led_set
 .text.shutdown_user
                0x0000000000001078        0x2 .build/obj_ergodox_ez_sfgabe_80_underglow/quantum/quantum.o
                0x0000000000001078                shutdown_user
 .text.reset_keyboard
                0x000000000000107a       0x1e .build/obj_ergodox_ez_sfgabe_80_underglow/quantum/quantum.o
                0x000000000000107a                reset_keyboard
 .text.process_record_quantum
                0x0000000000001098       0x9c .build/obj_ergodox_ez_sfgabe_80_underglow/quantum/quantum.o
                0x0000000000001098                process_record_quantum
 .text.keymap_key_to_keycode
                0x0000000000001134       0x28 .build/obj_ergodox_ez_sfgabe_80_underglow/quantum/keymap_common.o
                0x0000000000001134                keymap_key_to_keycode
 .text.action_for_key
                0x000000000000115c      0x20a .build/obj_ergodox_ez_sfgabe_80_underglow/quantum/keymap_common.o
                0x000000000000115c                action_for_key
 .text.keycode_config
                0x0000000000001366      0x12e .build/obj_ergodox_ez_sfgabe_80_underglow/quantum/keycode_config.o
                0x0000000000001366                keycode_config
 .text.mod_config
                0x0000000000001494       0x86 .build/obj_ergodox_ez_sfgabe_80_underglow/quantum/keycode_config.o
                0x0000000000001494                mod_config
 .text.matrix_scan_kb
                0x000000000000151a        0x4 .build/obj_ergodox_ez_sfgabe_80_underglow/quantum/matrix_common.o
                0x000000000000151a                matrix_scan_kb
 .text.matrix_get_row
                0x000000000000151e        0xc .build/obj_ergodox_ez_sfgabe_80_underglow/quantum/matrix_common.o
                0x000000000000151e                matrix_get_row
 .text.matrix_print
                0x000000000000152a        0x2 .build/obj_ergodox_ez_sfgabe_80_underglow/quantum/matrix_common.o
                0x000000000000152a                matrix_print
 .text.matrix_init
                0x000000000000152c       0x22 .build/obj_ergodox_ez_sfgabe_80_underglow/quantum/matrix_common.o
                0x000000000000152c                matrix_init
 .text.matrix_scan
                0x000000000000154e       0x26 .build/obj_ergodox_ez_sfgabe_80_underglow/quantum/matrix_common.o
                0x000000000000154e                matrix_scan
 .text.debounce_init
                0x0000000000001574       0x28 .build/obj_ergodox_ez_sfgabe_80_underglow/quantum/debounce/sym_eager_pr.o
                0x0000000000001574                debounce_init
 .text.update_debounce_counters
                0x000000000000159c       0x88 .build/obj_ergodox_ez_sfgabe_80_underglow/quantum/debounce/sym_eager_pr.o
                0x000000000000159c                update_debounce_counters
 .text.transfer_matrix_values
                0x0000000000001624       0x62 .build/obj_ergodox_ez_sfgabe_80_underglow/quantum/debounce/sym_eager_pr.o
                0x0000000000001624                transfer_matrix_values
 .text.debounce
                0x0000000000001686       0x9a .build/obj_ergodox_ez_sfgabe_80_underglow/quantum/debounce/sym_eager_pr.o
                0x0000000000001686                debounce
 .text.hsv_to_rgb_impl
                0x0000000000001720      0x12a .build/obj_ergodox_ez_sfgabe_80_underglow/quantum/color.o
                0x0000000000001720                hsv_to_rgb_impl
 .text.hsv_to_rgb
                0x000000000000184a        0x6 .build/obj_ergodox_ez_sfgabe_80_underglow/quantum/color.o
                0x000000000000184a                hsv_to_rgb
 .text.rgblight_effect_dummy
                0x0000000000001850        0x2 .build/obj_ergodox_ez_sfgabe_80_underglow/quantum/rgblight.o
 .text.sethsv_raw
                0x0000000000001852       0x1c .build/obj_ergodox_ez_sfgabe_80_underglow/quantum/rgblight.o
                0x0000000000001852                sethsv_raw
 .text.rgblight_check_config
                0x000000000000186e       0x1e .build/obj_ergodox_ez_sfgabe_80_underglow/quantum/rgblight.o
                0x000000000000186e                rgblight_check_config
 .text.eeconfig_read_rgblight
                0x000000000000188c        0x8 .build/obj_ergodox_ez_sfgabe_80_underglow/quantum/rgblight.o
                0x000000000000188c                eeconfig_read_rgblight
 .text.eeconfig_update_rgblight
                0x0000000000001894       0x24 .build/obj_ergodox_ez_sfgabe_80_underglow/quantum/rgblight.o
                0x0000000000001894                eeconfig_update_rgblight
 .text.eeconfig_update_rgblight_default
                0x00000000000018b8       0x1e .build/obj_ergodox_ez_sfgabe_80_underglow/quantum/rgblight.o
                0x00000000000018b8                eeconfig_update_rgblight_default
 .text.rgblight_get_mode
                0x00000000000018d6       0x10 .build/obj_ergodox_ez_sfgabe_80_underglow/quantum/rgblight.o
                0x00000000000018d6                rgblight_get_mode
 .text.rgblight_increase_speed_helper
                0x00000000000018e6       0x28 .build/obj_ergodox_ez_sfgabe_80_underglow/quantum/rgblight.o
                0x00000000000018e6                rgblight_increase_speed_helper
 .text.rgblight_increase_speed
                0x000000000000190e        0x6 .build/obj_ergodox_ez_sfgabe_80_underglow/quantum/rgblight.o
                0x000000000000190e                rgblight_increase_speed
 .text.rgblight_decrease_speed_helper
                0x0000000000001914       0x28 .build/obj_ergodox_ez_sfgabe_80_underglow/quantum/rgblight.o
                0x0000000000001914                rgblight_decrease_speed_helper
 .text.rgblight_decrease_speed
                0x000000000000193c        0x6 .build/obj_ergodox_ez_sfgabe_80_underglow/quantum/rgblight.o
                0x000000000000193c                rgblight_decrease_speed
 .text.rgblight_set
                0x0000000000001942       0x44 .build/obj_ergodox_ez_sfgabe_80_underglow/quantum/rgblight.o
                0x0000000000001942                rgblight_set
 .text.rgblight_setrgb
                0x0000000000001986       0x32 .build/obj_ergodox_ez_sfgabe_80_underglow/quantum/rgblight.o
                0x0000000000001986                rgblight_setrgb
 .text.rgblight_sethsv_noeeprom_old
                0x00000000000019b8       0x34 .build/obj_ergodox_ez_sfgabe_80_underglow/quantum/rgblight.o
                0x00000000000019b8                rgblight_sethsv_noeeprom_old
 .text.rgblight_effect_breathing
                0x00000000000019ec       0x28 .build/obj_ergodox_ez_sfgabe_80_underglow/quantum/rgblight.o
                0x00000000000019ec                rgblight_effect_breathing
 .text.rgblight_effect_rainbow_mood
                0x0000000000001a14       0x20 .build/obj_ergodox_ez_sfgabe_80_underglow/quantum/rgblight.o
                0x0000000000001a14                rgblight_effect_rainbow_mood
 .text.rgblight_effect_rgbtest
                0x0000000000001a34       0x7e .build/obj_ergodox_ez_sfgabe_80_underglow/quantum/rgblight.o
                0x0000000000001a34                rgblight_effect_rgbtest
 .text.rgblight_sethsv_eeprom_helper
                0x0000000000001ab2      0x124 .build/obj_ergodox_ez_sfgabe_80_underglow/quantum/rgblight.o
                0x0000000000001ab2                rgblight_sethsv_eeprom_helper
 .text.rgblight_increase_hue_helper
                0x0000000000001bd6       0x14 .build/obj_ergodox_ez_sfgabe_80_underglow/quantum/rgblight.o
                0x0000000000001bd6                rgblight_increase_hue_helper
 .text.rgblight_increase_hue
                0x0000000000001bea        0x6 .build/obj_ergodox_ez_sfgabe_80_underglow/quantum/rgblight.o
                0x0000000000001bea                rgblight_increase_hue
 .text.rgblight_decrease_hue_helper
                0x0000000000001bf0       0x14 .build/obj_ergodox_ez_sfgabe_80_underglow/quantum/rgblight.o
                0x0000000000001bf0                rgblight_decrease_hue_helper
 .text.rgblight_decrease_hue
                0x0000000000001c04        0x6 .build/obj_ergodox_ez_sfgabe_80_underglow/quantum/rgblight.o
                0x0000000000001c04                rgblight_decrease_hue
 .text.rgblight_increase_sat_helper
                0x0000000000001c0a       0x18 .build/obj_ergodox_ez_sfgabe_80_underglow/quantum/rgblight.o
                0x0000000000001c0a                rgblight_increase_sat_helper
 .text.rgblight_increase_sat
                0x0000000000001c22        0x6 .build/obj_ergodox_ez_sfgabe_80_underglow/quantum/rgblight.o
                0x0000000000001c22                rgblight_increase_sat
 .text.rgblight_decrease_sat_helper
                0x0000000000001c28       0x18 .build/obj_ergodox_ez_sfgabe_80_underglow/quantum/rgblight.o
                0x0000000000001c28                rgblight_decrease_sat_helper
 .text.rgblight_decrease_sat
                0x0000000000001c40        0x6 .build/obj_ergodox_ez_sfgabe_80_underglow/quantum/rgblight.o
                0x0000000000001c40                rgblight_decrease_sat
 .text.rgblight_increase_val_helper
                0x0000000000001c46       0x18 .build/obj_ergodox_ez_sfgabe_80_underglow/quantum/rgblight.o
                0x0000000000001c46                rgblight_increase_val_helper
 .text.rgblight_increase_val
                0x0000000000001c5e        0x6 .build/obj_ergodox_ez_sfgabe_80_underglow/quantum/rgblight.o
                0x0000000000001c5e                rgblight_increase_val
 .text.rgblight_decrease_val_helper
                0x0000000000001c64       0x18 .build/obj_ergodox_ez_sfgabe_80_underglow/quantum/rgblight.o
                0x0000000000001c64                rgblight_decrease_val_helper
 .text.rgblight_decrease_val
                0x0000000000001c7c        0x6 .build/obj_ergodox_ez_sfgabe_80_underglow/quantum/rgblight.o
                0x0000000000001c7c                rgblight_decrease_val
 .text.rgblight_sethsv_noeeprom
                0x0000000000001c82        0x6 .build/obj_ergodox_ez_sfgabe_80_underglow/quantum/rgblight.o
                0x0000000000001c82                rgblight_sethsv_noeeprom
 .text.rgblight_effect_rainbow_swirl
                0x0000000000001c88       0x7a .build/obj_ergodox_ez_sfgabe_80_underglow/quantum/rgblight.o
                0x0000000000001c88                rgblight_effect_rainbow_swirl
 .text.rgblight_effect_snake
                0x0000000000001d02       0xf4 .build/obj_ergodox_ez_sfgabe_80_underglow/quantum/rgblight.o
                0x0000000000001d02                rgblight_effect_snake
 .text.rgblight_effect_knight
                0x0000000000001df6       0xe6 .build/obj_ergodox_ez_sfgabe_80_underglow/quantum/rgblight.o
                0x0000000000001df6                rgblight_effect_knight
 .text.rgblight_effect_christmas
                0x0000000000001edc      0x120 .build/obj_ergodox_ez_sfgabe_80_underglow/quantum/rgblight.o
                0x0000000000001edc                rgblight_effect_christmas
 .text.rgblight_effect_alternating
                0x0000000000001ffc       0x7a .build/obj_ergodox_ez_sfgabe_80_underglow/quantum/rgblight.o
                0x0000000000001ffc                rgblight_effect_alternating
 .text.rgblight_effect_twinkle
                0x0000000000002076      0x17a .build/obj_ergodox_ez_sfgabe_80_underglow/quantum/rgblight.o
                0x0000000000002076                rgblight_effect_twinkle
 .text.rgblight_disable
                0x00000000000021f0       0x30 .build/obj_ergodox_ez_sfgabe_80_underglow/quantum/rgblight.o
                0x00000000000021f0                rgblight_disable
 .text.rgblight_disable_noeeprom
                0x0000000000002220       0x24 .build/obj_ergodox_ez_sfgabe_80_underglow/quantum/rgblight.o
                0x0000000000002220                rgblight_disable_noeeprom
 .text.rgblight_timer_enable
                0x0000000000002244       0x2c .build/obj_ergodox_ez_sfgabe_80_underglow/quantum/rgblight.o
                0x0000000000002244                rgblight_timer_enable
 .text.rgblight_mode_eeprom_helper
                0x0000000000002270       0x74 .build/obj_ergodox_ez_sfgabe_80_underglow/quantum/rgblight.o
                0x0000000000002270                rgblight_mode_eeprom_helper
 .text.rgblight_step_helper
                0x00000000000022e4       0x16 .build/obj_ergodox_ez_sfgabe_80_underglow/quantum/rgblight.o
                0x00000000000022e4                rgblight_step_helper
 .text.rgblight_step
                0x00000000000022fa        0x6 .build/obj_ergodox_ez_sfgabe_80_underglow/quantum/rgblight.o
                0x00000000000022fa                rgblight_step
 .text.rgblight_step_reverse_helper
                0x0000000000002300       0x14 .build/obj_ergodox_ez_sfgabe_80_underglow/quantum/rgblight.o
                0x0000000000002300                rgblight_step_reverse_helper
 .text.rgblight_step_reverse
                0x0000000000002314        0x6 .build/obj_ergodox_ez_sfgabe_80_underglow/quantum/rgblight.o
                0x0000000000002314                rgblight_step_reverse
 .text.rgblight_mode
                0x000000000000231a        0x6 .build/obj_ergodox_ez_sfgabe_80_underglow/quantum/rgblight.o
                0x000000000000231a                rgblight_mode
 .text.rgblight_enable
                0x0000000000002320       0x10 .build/obj_ergodox_ez_sfgabe_80_underglow/quantum/rgblight.o
                0x0000000000002320                rgblight_enable
 .text.rgblight_toggle
                0x0000000000002330        0xe .build/obj_ergodox_ez_sfgabe_80_underglow/quantum/rgblight.o
                0x0000000000002330                rgblight_toggle
 .text.rgblight_mode_noeeprom
                0x000000000000233e        0x6 .build/obj_ergodox_ez_sfgabe_80_underglow/quantum/rgblight.o
                0x000000000000233e                rgblight_mode_noeeprom
 .text.rgblight_init
                0x0000000000002344       0x66 .build/obj_ergodox_ez_sfgabe_80_underglow/quantum/rgblight.o
                0x0000000000002344                rgblight_init
 .text.rgblight_enable_noeeprom
                0x00000000000023aa       0x10 .build/obj_ergodox_ez_sfgabe_80_underglow/quantum/rgblight.o
                0x00000000000023aa                rgblight_enable_noeeprom
 .text.rgblight_timer_disable
                0x00000000000023ba        0x6 .build/obj_ergodox_ez_sfgabe_80_underglow/quantum/rgblight.o
                0x00000000000023ba                rgblight_timer_disable
 .text.rgblight_task
                0x00000000000023c0      0x156 .build/obj_ergodox_ez_sfgabe_80_underglow/quantum/rgblight.o
                0x00000000000023c0                rgblight_task
 .text.handleKeycodeRGB
                0x0000000000002516        0xa .build/obj_ergodox_ez_sfgabe_80_underglow/quantum/process_keycode/process_rgb.o
 .text.handleKeycodeRGBMode
                0x0000000000002520       0x2a .build/obj_ergodox_ez_sfgabe_80_underglow/quantum/process_keycode/process_rgb.o
 .text.process_rgb
                0x000000000000254a       0xe0 .build/obj_ergodox_ez_sfgabe_80_underglow/quantum/process_keycode/process_rgb.o
                0x000000000000254a                process_rgb
 .text.ws2812_setleds
                0x000000000000262a       0x58 .build/obj_ergodox_ez_sfgabe_80_underglow/ws2812.o
                0x000000000000262a                ws2812_setleds
 .text.encoder_update_kb
                0x0000000000002682        0x4 .build/obj_ergodox_ez_sfgabe_80_underglow/quantum/encoder.o
                0x0000000000002682                encoder_update_kb
 .text.encoder_init
                0x0000000000002686       0x26 .build/obj_ergodox_ez_sfgabe_80_underglow/quantum/encoder.o
                0x0000000000002686                encoder_init
 .text.encoder_read
                0x00000000000026ac       0x8a .build/obj_ergodox_ez_sfgabe_80_underglow/quantum/encoder.o
                0x00000000000026ac                encoder_read
 .text.process_unicode
                0x0000000000002736       0x2a .build/obj_ergodox_ez_sfgabe_80_underglow/quantum/process_keycode/process_unicode.o
                0x0000000000002736                process_unicode
 .text.unicode_input_mode_init
                0x0000000000002760       0x20 .build/obj_ergodox_ez_sfgabe_80_underglow/quantum/process_keycode/process_unicode_common.o
                0x0000000000002760                unicode_input_mode_init
 .text.persist_unicode_input_mode
                0x0000000000002780        0xc .build/obj_ergodox_ez_sfgabe_80_underglow/quantum/process_keycode/process_unicode_common.o
                0x0000000000002780                persist_unicode_input_mode
 .text.unicode_input_start
                0x000000000000278c       0x58 .build/obj_ergodox_ez_sfgabe_80_underglow/quantum/process_keycode/process_unicode_common.o
                0x000000000000278c                unicode_input_start
 .text.unicode_input_finish
                0x00000000000027e4       0x30 .build/obj_ergodox_ez_sfgabe_80_underglow/quantum/process_keycode/process_unicode_common.o
                0x00000000000027e4                unicode_input_finish
 .text.register_hex
                0x0000000000002814       0x3a .build/obj_ergodox_ez_sfgabe_80_underglow/quantum/process_keycode/process_unicode_common.o
                0x0000000000002814                register_hex
 .text.process_unicode_common
                0x000000000000284e       0x3c .build/obj_ergodox_ez_sfgabe_80_underglow/quantum/process_keycode/process_unicode_common.o
                0x000000000000284e                process_unicode_common
 .text.perform_space_cadet
                0x000000000000288a      0x116 .build/obj_ergodox_ez_sfgabe_80_underglow/quantum/process_keycode/process_space_cadet.o
                0x000000000000288a                perform_space_cadet
 .text.process_space_cadet
                0x00000000000029a0       0xa4 .build/obj_ergodox_ez_sfgabe_80_underglow/quantum/process_keycode/process_space_cadet.o
                0x00000000000029a0                process_space_cadet
 .text.process_magic
                0x0000000000002a44      0x246 .build/obj_ergodox_ez_sfgabe_80_underglow/quantum/process_keycode/process_magic.o
                0x0000000000002a44                process_magic
 .text.process_grave_esc
                0x0000000000002c8a       0x54 .build/obj_ergodox_ez_sfgabe_80_underglow/quantum/process_keycode/process_grave_esc.o
                0x0000000000002c8a                process_grave_esc
 .text.autoshift_flush
                0x0000000000002cde       0x50 .build/obj_ergodox_ez_sfgabe_80_underglow/quantum/process_keycode/process_auto_shift.o
                0x0000000000002cde                autoshift_flush
 .text.autoshift_on
                0x0000000000002d2e       0x20 .build/obj_ergodox_ez_sfgabe_80_underglow/quantum/process_keycode/process_auto_shift.o
                0x0000000000002d2e                autoshift_on
 .text.autoshift_toggle
                0x0000000000002d4e       0x18 .build/obj_ergodox_ez_sfgabe_80_underglow/quantum/process_keycode/process_auto_shift.o
                0x0000000000002d4e                autoshift_toggle
 .text.autoshift_disable
                0x0000000000002d66        0x8 .build/obj_ergodox_ez_sfgabe_80_underglow/quantum/process_keycode/process_auto_shift.o
                0x0000000000002d66                autoshift_disable
 .text.autoshift_timer_report
                0x0000000000002d6e       0x66 .build/obj_ergodox_ez_sfgabe_80_underglow/quantum/process_keycode/process_auto_shift.o
                0x0000000000002d6e                autoshift_timer_report
 .text.process_auto_shift
                0x0000000000002dd4       0xce .build/obj_ergodox_ez_sfgabe_80_underglow/quantum/process_keycode/process_auto_shift.o
                0x0000000000002dd4                process_auto_shift
 .text.i2c_init
                0x0000000000002ea2        0xc .build/obj_ergodox_ez_sfgabe_80_underglow/i2c_master.a(i2c_master.o)
                0x0000000000002ea2                i2c_init
 .text.i2c_start
                0x0000000000002eae       0xb8 .build/obj_ergodox_ez_sfgabe_80_underglow/i2c_master.a(i2c_master.o)
                0x0000000000002eae                i2c_start
 .text.i2c_write
                0x0000000000002f66       0x5e .build/obj_ergodox_ez_sfgabe_80_underglow/i2c_master.a(i2c_master.o)
                0x0000000000002f66                i2c_write
 .text.i2c_read_nack
                0x0000000000002fc4       0x48 .build/obj_ergodox_ez_sfgabe_80_underglow/i2c_master.a(i2c_master.o)
                0x0000000000002fc4                i2c_read_nack
 .text.i2c_stop
                0x000000000000300c        0x8 .build/obj_ergodox_ez_sfgabe_80_underglow/i2c_master.a(i2c_master.o)
                0x000000000000300c                i2c_stop
 .text.host_set_driver
                0x0000000000003014        0xa .build/obj_ergodox_ez_sfgabe_80_underglow/common/host.o
                0x0000000000003014                host_set_driver
 .text.host_keyboard_leds
                0x000000000000301e       0x18 .build/obj_ergodox_ez_sfgabe_80_underglow/common/host.o
                0x000000000000301e                host_keyboard_leds
 .text.host_keyboard_send
                0x0000000000003036       0x34 .build/obj_ergodox_ez_sfgabe_80_underglow/common/host.o
                0x0000000000003036                host_keyboard_send
 .text.host_mouse_send
                0x000000000000306a       0x1c .build/obj_ergodox_ez_sfgabe_80_underglow/common/host.o
                0x000000000000306a                host_mouse_send
 .text.host_system_send
                0x0000000000003086       0x2c .build/obj_ergodox_ez_sfgabe_80_underglow/common/host.o
                0x0000000000003086                host_system_send
 .text.host_consumer_send
                0x00000000000030b2       0x2c .build/obj_ergodox_ez_sfgabe_80_underglow/common/host.o
                0x00000000000030b2                host_consumer_send
 .text.disable_jtag
                0x00000000000030de        0xe .build/obj_ergodox_ez_sfgabe_80_underglow/common/keyboard.o
                0x00000000000030de                disable_jtag
 .text.keyboard_pre_init_user
                0x00000000000030ec        0x2 .build/obj_ergodox_ez_sfgabe_80_underglow/common/keyboard.o
                0x00000000000030ec                keyboard_pre_init_user
 .text.matrix_setup
                0x00000000000030ee        0x2 .build/obj_ergodox_ez_sfgabe_80_underglow/common/keyboard.o
                0x00000000000030ee                matrix_setup
 .text.keyboard_pre_init_kb
                0x00000000000030f0        0x4 .build/obj_ergodox_ez_sfgabe_80_underglow/common/keyboard.o
                0x00000000000030f0                keyboard_pre_init_kb
 .text.keyboard_post_init_user
                0x00000000000030f4        0x2 .build/obj_ergodox_ez_sfgabe_80_underglow/common/keyboard.o
                0x00000000000030f4                keyboard_post_init_user
 .text.keyboard_post_init_kb
                0x00000000000030f6        0x4 .build/obj_ergodox_ez_sfgabe_80_underglow/common/keyboard.o
                0x00000000000030f6                keyboard_post_init_kb
 .text.keyboard_setup
                0x00000000000030fa        0xc .build/obj_ergodox_ez_sfgabe_80_underglow/common/keyboard.o
                0x00000000000030fa                keyboard_setup
 .text.is_keyboard_master
                0x0000000000003106        0x4 .build/obj_ergodox_ez_sfgabe_80_underglow/common/keyboard.o
                0x0000000000003106                is_keyboard_master
 .text.should_process_keypress
                0x000000000000310a        0x4 .build/obj_ergodox_ez_sfgabe_80_underglow/common/keyboard.o
                0x000000000000310a                should_process_keypress
 .text.keyboard_init
                0x000000000000310e       0x18 .build/obj_ergodox_ez_sfgabe_80_underglow/common/keyboard.o
                0x000000000000310e                keyboard_init
 .text.keyboard_task
                0x0000000000003126      0x138 .build/obj_ergodox_ez_sfgabe_80_underglow/common/keyboard.o
                0x0000000000003126                keyboard_task
 .text.process_hand_swap
                0x000000000000325e       0x70 .build/obj_ergodox_ez_sfgabe_80_underglow/common/action.o
                0x000000000000325e                process_hand_swap
 .text.action_exec
                0x00000000000032ce       0x70 .build/obj_ergodox_ez_sfgabe_80_underglow/common/action.o
                0x00000000000032ce                action_exec
 .text.process_record_tap_hint
                0x000000000000333e       0x28 .build/obj_ergodox_ez_sfgabe_80_underglow/common/action.o
                0x000000000000333e                process_record_tap_hint
 .text.register_code
                0x0000000000003366      0x12e .build/obj_ergodox_ez_sfgabe_80_underglow/common/action.o
                0x0000000000003366                register_code
 .text.unregister_code
                0x0000000000003494       0xac .build/obj_ergodox_ez_sfgabe_80_underglow/common/action.o
                0x0000000000003494                unregister_code
 .text.tap_code
                0x0000000000003540       0x26 .build/obj_ergodox_ez_sfgabe_80_underglow/common/action.o
                0x0000000000003540                tap_code
 .text.register_mods
                0x0000000000003566        0xe .build/obj_ergodox_ez_sfgabe_80_underglow/common/action.o
                0x0000000000003566                register_mods
 .text.unregister_mods
                0x0000000000003574        0xe .build/obj_ergodox_ez_sfgabe_80_underglow/common/action.o
                0x0000000000003574                unregister_mods
 .text.process_action
                0x0000000000003582      0x4fa .build/obj_ergodox_ez_sfgabe_80_underglow/common/action.o
                0x0000000000003582                process_action
 .text.process_record_handler
                0x0000000000003a7c       0x2e .build/obj_ergodox_ez_sfgabe_80_underglow/common/action.o
                0x0000000000003a7c                process_record_handler
 .text.process_record
                0x0000000000003aaa       0x50 .build/obj_ergodox_ez_sfgabe_80_underglow/common/action.o
                0x0000000000003aaa                process_record
 .text.register_weak_mods
                0x0000000000003afa        0xe .build/obj_ergodox_ez_sfgabe_80_underglow/common/action.o
                0x0000000000003afa                register_weak_mods
 .text.unregister_weak_mods
                0x0000000000003b08        0xe .build/obj_ergodox_ez_sfgabe_80_underglow/common/action.o
                0x0000000000003b08                unregister_weak_mods
 .text.clear_keyboard_but_mods_and_keys
                0x0000000000003b16       0x24 .build/obj_ergodox_ez_sfgabe_80_underglow/common/action.o
                0x0000000000003b16                clear_keyboard_but_mods_and_keys
 .text.clear_keyboard_but_mods
                0x0000000000003b3a        0x8 .build/obj_ergodox_ez_sfgabe_80_underglow/common/action.o
                0x0000000000003b3a                clear_keyboard_but_mods
 .text.clear_keyboard
                0x0000000000003b42        0x8 .build/obj_ergodox_ez_sfgabe_80_underglow/common/action.o
                0x0000000000003b42                clear_keyboard
 .text.is_tap_action
                0x0000000000003b4a       0x3e .build/obj_ergodox_ez_sfgabe_80_underglow/common/action.o
                0x0000000000003b4a                is_tap_action
 .text.is_tap_key
                0x0000000000003b88        0x8 .build/obj_ergodox_ez_sfgabe_80_underglow/common/action.o
                0x0000000000003b88                is_tap_key
 .text.debug_event
                0x0000000000003b90       0x1e .build/obj_ergodox_ez_sfgabe_80_underglow/common/action.o
                0x0000000000003b90                debug_event
 .text.debug_record
                0x0000000000003bae       0x20 .build/obj_ergodox_ez_sfgabe_80_underglow/common/action.o
                0x0000000000003bae                debug_record
 .text.debug_waiting_buffer
                0x0000000000003bce       0x42 .build/obj_ergodox_ez_sfgabe_80_underglow/common/action_tapping.o
 .text.debug_tapping_key
                0x0000000000003c10       0x1c .build/obj_ergodox_ez_sfgabe_80_underglow/common/action_tapping.o
 .text.waiting_buffer_scan_tap
                0x0000000000003c2c       0xac .build/obj_ergodox_ez_sfgabe_80_underglow/common/action_tapping.o
 .text.process_tapping
                0x0000000000003cd8      0x356 .build/obj_ergodox_ez_sfgabe_80_underglow/common/action_tapping.o
 .text.get_tapping_term
                0x000000000000402e        0x6 .build/obj_ergodox_ez_sfgabe_80_underglow/common/action_tapping.o
                0x000000000000402e                get_tapping_term
 .text.action_tapping_process
                0x0000000000004034      0x134 .build/obj_ergodox_ez_sfgabe_80_underglow/common/action_tapping.o
                0x0000000000004034                action_tapping_process
 .text.default_layer_state_set_user
                0x0000000000004168        0x2 .build/obj_ergodox_ez_sfgabe_80_underglow/common/action_layer.o
                0x0000000000004168                default_layer_state_set_user
 .text.default_layer_state_set_kb
                0x000000000000416a        0x4 .build/obj_ergodox_ez_sfgabe_80_underglow/common/action_layer.o
                0x000000000000416a                default_layer_state_set_kb
 .text.default_layer_state_set
                0x000000000000416e       0x18 .build/obj_ergodox_ez_sfgabe_80_underglow/common/action_layer.o
 .text.default_layer_debug
                0x0000000000004186        0x2 .build/obj_ergodox_ez_sfgabe_80_underglow/common/action_layer.o
                0x0000000000004186                default_layer_debug
 .text.default_layer_set
                0x0000000000004188        0x4 .build/obj_ergodox_ez_sfgabe_80_underglow/common/action_layer.o
                0x0000000000004188                default_layer_set
 .text.default_layer_or
                0x000000000000418c       0x24 .build/obj_ergodox_ez_sfgabe_80_underglow/common/action_layer.o
                0x000000000000418c                default_layer_or
 .text.default_layer_and
                0x00000000000041b0       0x24 .build/obj_ergodox_ez_sfgabe_80_underglow/common/action_layer.o
                0x00000000000041b0                default_layer_and
 .text.default_layer_xor
                0x00000000000041d4       0x24 .build/obj_ergodox_ez_sfgabe_80_underglow/common/action_layer.o
                0x00000000000041d4                default_layer_xor
 .text.layer_state_set_user
                0x00000000000041f8        0x4 .build/obj_ergodox_ez_sfgabe_80_underglow/common/action_layer.o
                0x00000000000041f8                layer_state_set_user
 .text.layer_state_set_kb
                0x00000000000041fc        0x4 .build/obj_ergodox_ez_sfgabe_80_underglow/common/action_layer.o
                0x00000000000041fc                layer_state_set_kb
 .text.layer_state_set
                0x0000000000004200       0x18 .build/obj_ergodox_ez_sfgabe_80_underglow/common/action_layer.o
                0x0000000000004200                layer_state_set
 .text.layer_clear
                0x0000000000004218        0xa .build/obj_ergodox_ez_sfgabe_80_underglow/common/action_layer.o
                0x0000000000004218                layer_clear
 .text.layer_move
                0x0000000000004222       0x2a .build/obj_ergodox_ez_sfgabe_80_underglow/common/action_layer.o
                0x0000000000004222                layer_move
 .text.layer_on
                0x000000000000424c       0x42 .build/obj_ergodox_ez_sfgabe_80_underglow/common/action_layer.o
                0x000000000000424c                layer_on
 .text.layer_off
                0x000000000000428e       0x46 .build/obj_ergodox_ez_sfgabe_80_underglow/common/action_layer.o
                0x000000000000428e                layer_off
 .text.layer_invert
                0x00000000000042d4       0x42 .build/obj_ergodox_ez_sfgabe_80_underglow/common/action_layer.o
                0x00000000000042d4                layer_invert
 .text.layer_or
                0x0000000000004316       0x24 .build/obj_ergodox_ez_sfgabe_80_underglow/common/action_layer.o
                0x0000000000004316                layer_or
 .text.layer_and
                0x000000000000433a       0x24 .build/obj_ergodox_ez_sfgabe_80_underglow/common/action_layer.o
                0x000000000000433a                layer_and
 .text.layer_xor
                0x000000000000435e       0x24 .build/obj_ergodox_ez_sfgabe_80_underglow/common/action_layer.o
                0x000000000000435e                layer_xor
 .text.layer_debug
                0x0000000000004382        0x2 .build/obj_ergodox_ez_sfgabe_80_underglow/common/action_layer.o
                0x0000000000004382                layer_debug
 .text.update_source_layers_cache
                0x0000000000004384       0x5c .build/obj_ergodox_ez_sfgabe_80_underglow/common/action_layer.o
                0x0000000000004384                update_source_layers_cache
 .text.read_source_layers_cache
                0x00000000000043e0       0x52 .build/obj_ergodox_ez_sfgabe_80_underglow/common/action_layer.o
                0x00000000000043e0                read_source_layers_cache
 .text.layer_switch_get_layer
                0x0000000000004432       0x84 .build/obj_ergodox_ez_sfgabe_80_underglow/common/action_layer.o
                0x0000000000004432                layer_switch_get_layer
 .text.layer_switch_get_action
                0x00000000000044b6       0x14 .build/obj_ergodox_ez_sfgabe_80_underglow/common/action_layer.o
                0x00000000000044b6                layer_switch_get_action
 .text.store_or_get_action
                0x00000000000044ca       0x48 .build/obj_ergodox_ez_sfgabe_80_underglow/common/action_layer.o
                0x00000000000044ca                store_or_get_action
 .text.add_key  0x0000000000004512        0xe .build/obj_ergodox_ez_sfgabe_80_underglow/common/action_util.o
                0x0000000000004512                add_key
 .text.del_key  0x0000000000004520        0xe .build/obj_ergodox_ez_sfgabe_80_underglow/common/action_util.o
                0x0000000000004520                del_key
 .text.clear_keys
                0x000000000000452e        0xc .build/obj_ergodox_ez_sfgabe_80_underglow/common/action_util.o
                0x000000000000452e                clear_keys
 .text.get_oneshot_layer
                0x000000000000453a        0xc .build/obj_ergodox_ez_sfgabe_80_underglow/common/action_util.o
                0x000000000000453a                get_oneshot_layer
 .text.get_oneshot_layer_state
                0x0000000000004546        0x8 .build/obj_ergodox_ez_sfgabe_80_underglow/common/action_util.o
                0x0000000000004546                get_oneshot_layer_state
 .text.set_oneshot_swaphands
                0x000000000000454e        0xe .build/obj_ergodox_ez_sfgabe_80_underglow/common/action_util.o
                0x000000000000454e                set_oneshot_swaphands
 .text.clear_oneshot_swaphands
                0x000000000000455c        0xa .build/obj_ergodox_ez_sfgabe_80_underglow/common/action_util.o
                0x000000000000455c                clear_oneshot_swaphands
 .text.release_oneshot_swaphands
                0x0000000000004566       0x1a .build/obj_ergodox_ez_sfgabe_80_underglow/common/action_util.o
                0x0000000000004566                release_oneshot_swaphands
 .text.use_oneshot_swaphands
                0x0000000000004580       0x1a .build/obj_ergodox_ez_sfgabe_80_underglow/common/action_util.o
                0x0000000000004580                use_oneshot_swaphands
 .text.is_oneshot_layer_active
                0x000000000000459a        0xe .build/obj_ergodox_ez_sfgabe_80_underglow/common/action_util.o
                0x000000000000459a                is_oneshot_layer_active
 .text.get_mods
                0x00000000000045a8        0x6 .build/obj_ergodox_ez_sfgabe_80_underglow/common/action_util.o
                0x00000000000045a8                get_mods
 .text.add_mods
                0x00000000000045ae        0xc .build/obj_ergodox_ez_sfgabe_80_underglow/common/action_util.o
                0x00000000000045ae                add_mods
 .text.del_mods
                0x00000000000045ba        0xe .build/obj_ergodox_ez_sfgabe_80_underglow/common/action_util.o
                0x00000000000045ba                del_mods
 .text.set_mods
                0x00000000000045c8        0x6 .build/obj_ergodox_ez_sfgabe_80_underglow/common/action_util.o
                0x00000000000045c8                set_mods
 .text.clear_mods
                0x00000000000045ce        0x6 .build/obj_ergodox_ez_sfgabe_80_underglow/common/action_util.o
                0x00000000000045ce                clear_mods
 .text.add_weak_mods
                0x00000000000045d4        0xc .build/obj_ergodox_ez_sfgabe_80_underglow/common/action_util.o
                0x00000000000045d4                add_weak_mods
 .text.del_weak_mods
                0x00000000000045e0        0xe .build/obj_ergodox_ez_sfgabe_80_underglow/common/action_util.o
                0x00000000000045e0                del_weak_mods
 .text.clear_weak_mods
                0x00000000000045ee        0x6 .build/obj_ergodox_ez_sfgabe_80_underglow/common/action_util.o
                0x00000000000045ee                clear_weak_mods
 .text.clear_macro_mods
                0x00000000000045f4        0x6 .build/obj_ergodox_ez_sfgabe_80_underglow/common/action_util.o
                0x00000000000045f4                clear_macro_mods
 .text.get_oneshot_mods
                0x00000000000045fa        0x6 .build/obj_ergodox_ez_sfgabe_80_underglow/common/action_util.o
                0x00000000000045fa                get_oneshot_mods
 .text.oneshot_mods_changed_user
                0x0000000000004600        0x2 .build/obj_ergodox_ez_sfgabe_80_underglow/common/action_util.o
                0x0000000000004600                oneshot_mods_changed_user
 .text.oneshot_mods_changed_kb
                0x0000000000004602        0x4 .build/obj_ergodox_ez_sfgabe_80_underglow/common/action_util.o
                0x0000000000004602                oneshot_mods_changed_kb
 .text.set_oneshot_mods
                0x0000000000004606       0x12 .build/obj_ergodox_ez_sfgabe_80_underglow/common/action_util.o
                0x0000000000004606                set_oneshot_mods
 .text.clear_oneshot_mods
                0x0000000000004618       0x14 .build/obj_ergodox_ez_sfgabe_80_underglow/common/action_util.o
                0x0000000000004618                clear_oneshot_mods
 .text.send_keyboard_report
                0x000000000000462c       0x66 .build/obj_ergodox_ez_sfgabe_80_underglow/common/action_util.o
                0x000000000000462c                send_keyboard_report
 .text.oneshot_layer_changed_user
                0x0000000000004692        0x2 .build/obj_ergodox_ez_sfgabe_80_underglow/common/action_util.o
                0x0000000000004692                oneshot_layer_changed_user
 .text.oneshot_layer_changed_kb
                0x0000000000004694        0x4 .build/obj_ergodox_ez_sfgabe_80_underglow/common/action_util.o
                0x0000000000004694                oneshot_layer_changed_kb
 .text.set_oneshot_layer
                0x0000000000004698       0x20 .build/obj_ergodox_ez_sfgabe_80_underglow/common/action_util.o
                0x0000000000004698                set_oneshot_layer
 .text.reset_oneshot_layer
                0x00000000000046b8        0xa .build/obj_ergodox_ez_sfgabe_80_underglow/common/action_util.o
                0x00000000000046b8                reset_oneshot_layer
 .text.clear_oneshot_layer_state
                0x00000000000046c2       0x30 .build/obj_ergodox_ez_sfgabe_80_underglow/common/action_util.o
                0x00000000000046c2                clear_oneshot_layer_state
 .text.biton32  0x00000000000046f2       0x9a .build/obj_ergodox_ez_sfgabe_80_underglow/common/util.o
                0x00000000000046f2                biton32
 .text.eeconfig_is_enabled
                0x000000000000478c       0x16 .build/obj_ergodox_ez_sfgabe_80_underglow/common/eeconfig.o
                0x000000000000478c                eeconfig_is_enabled
 .text.eeconfig_read_debug
                0x00000000000047a2        0x8 .build/obj_ergodox_ez_sfgabe_80_underglow/common/eeconfig.o
                0x00000000000047a2                eeconfig_read_debug
 .text.eeconfig_read_default_layer
                0x00000000000047aa        0x8 .build/obj_ergodox_ez_sfgabe_80_underglow/common/eeconfig.o
                0x00000000000047aa                eeconfig_read_default_layer
 .text.eeconfig_read_keymap
                0x00000000000047b2       0x1c .build/obj_ergodox_ez_sfgabe_80_underglow/common/eeconfig.o
                0x00000000000047b2                eeconfig_read_keymap
 .text.eeconfig_update_keymap
                0x00000000000047ce       0x1a .build/obj_ergodox_ez_sfgabe_80_underglow/common/eeconfig.o
                0x00000000000047ce                eeconfig_update_keymap
 .text.eeconfig_read_kb
                0x00000000000047e8        0x8 .build/obj_ergodox_ez_sfgabe_80_underglow/common/eeconfig.o
                0x00000000000047e8                eeconfig_read_kb
 .text.eeconfig_update_kb
                0x00000000000047f0        0xc .build/obj_ergodox_ez_sfgabe_80_underglow/common/eeconfig.o
                0x00000000000047f0                eeconfig_update_kb
 .text.eeconfig_update_user
                0x00000000000047fc        0xc .build/obj_ergodox_ez_sfgabe_80_underglow/common/eeconfig.o
                0x00000000000047fc                eeconfig_update_user
 .text.eeconfig_init_user
                0x0000000000004808        0xa .build/obj_ergodox_ez_sfgabe_80_underglow/common/eeconfig.o
                0x0000000000004808                eeconfig_init_user
 .text.eeconfig_init_quantum
                0x0000000000004812       0xae .build/obj_ergodox_ez_sfgabe_80_underglow/common/eeconfig.o
                0x0000000000004812                eeconfig_init_quantum
 .text.eeconfig_init
                0x00000000000048c0        0x4 .build/obj_ergodox_ez_sfgabe_80_underglow/common/eeconfig.o
                0x00000000000048c0                eeconfig_init
 .text.eeconfig_update_handedness
                0x00000000000048c4        0xa .build/obj_ergodox_ez_sfgabe_80_underglow/common/eeconfig.o
                0x00000000000048c4                eeconfig_update_handedness
 .text.has_anykey
                0x00000000000048ce       0x28 .build/obj_ergodox_ez_sfgabe_80_underglow/common/report.o
                0x00000000000048ce                has_anykey
 .text.is_key_pressed
                0x00000000000048f6       0x60 .build/obj_ergodox_ez_sfgabe_80_underglow/common/report.o
                0x00000000000048f6                is_key_pressed
 .text.add_key_byte
                0x0000000000004956       0x34 .build/obj_ergodox_ez_sfgabe_80_underglow/common/report.o
                0x0000000000004956                add_key_byte
 .text.del_key_byte
                0x000000000000498a       0x1a .build/obj_ergodox_ez_sfgabe_80_underglow/common/report.o
                0x000000000000498a                del_key_byte
 .text.add_key_bit
                0x00000000000049a4       0x28 .build/obj_ergodox_ez_sfgabe_80_underglow/common/report.o
                0x00000000000049a4                add_key_bit
 .text.del_key_bit
                0x00000000000049cc       0x2a .build/obj_ergodox_ez_sfgabe_80_underglow/common/report.o
                0x00000000000049cc                del_key_bit
 .text.add_key_to_report
                0x00000000000049f6       0x16 .build/obj_ergodox_ez_sfgabe_80_underglow/common/report.o
                0x00000000000049f6                add_key_to_report
 .text.del_key_from_report
                0x0000000000004a0c       0x16 .build/obj_ergodox_ez_sfgabe_80_underglow/common/report.o
                0x0000000000004a0c                del_key_from_report
 .text.clear_keys_from_report
                0x0000000000004a22       0x24 .build/obj_ergodox_ez_sfgabe_80_underglow/common/report.o
                0x0000000000004a22                clear_keys_from_report
 .text.suspend_power_down_user
                0x0000000000004a46        0x2 .build/obj_ergodox_ez_sfgabe_80_underglow/common/avr/suspend.o
                0x0000000000004a46                suspend_power_down_user
 .text.suspend_power_down_kb
                0x0000000000004a48        0x4 .build/obj_ergodox_ez_sfgabe_80_underglow/common/avr/suspend.o
                0x0000000000004a48                suspend_power_down_kb
 .text.suspend_power_down
                0x0000000000004a4c       0x82 .build/obj_ergodox_ez_sfgabe_80_underglow/common/avr/suspend.o
                0x0000000000004a4c                suspend_power_down
 .text.matrix_power_down
                0x0000000000004ace        0x2 .build/obj_ergodox_ez_sfgabe_80_underglow/common/avr/suspend.o
                0x0000000000004ace                matrix_power_down
 .text.suspend_wakeup_condition
                0x0000000000004ad0       0x28 .build/obj_ergodox_ez_sfgabe_80_underglow/common/avr/suspend.o
                0x0000000000004ad0                suspend_wakeup_condition
 .text.suspend_wakeup_init_user
                0x0000000000004af8        0x2 .build/obj_ergodox_ez_sfgabe_80_underglow/common/avr/suspend.o
                0x0000000000004af8                suspend_wakeup_init_user
 .text.suspend_wakeup_init_kb
                0x0000000000004afa        0x4 .build/obj_ergodox_ez_sfgabe_80_underglow/common/avr/suspend.o
                0x0000000000004afa                suspend_wakeup_init_kb
 .text.suspend_wakeup_init
                0x0000000000004afe       0x22 .build/obj_ergodox_ez_sfgabe_80_underglow/common/avr/suspend.o
                0x0000000000004afe                suspend_wakeup_init
 .text.__vector_12
                0x0000000000004b20       0x4e .build/obj_ergodox_ez_sfgabe_80_underglow/common/avr/suspend.o
                0x0000000000004b20                __vector_12
 .text.timer_init
                0x0000000000004b6e       0x12 .build/obj_ergodox_ez_sfgabe_80_underglow/common/avr/timer.o
                0x0000000000004b6e                timer_init
 .text.timer_read
                0x0000000000004b80       0x18 .build/obj_ergodox_ez_sfgabe_80_underglow/common/avr/timer.o
                0x0000000000004b80                timer_read
 .text.timer_elapsed
                0x0000000000004b98       0x1e .build/obj_ergodox_ez_sfgabe_80_underglow/common/avr/timer.o
                0x0000000000004b98                timer_elapsed
 .text.__vector_21
                0x0000000000004bb6       0x48 .build/obj_ergodox_ez_sfgabe_80_underglow/common/avr/timer.o
                0x0000000000004bb6                __vector_21
 .text.bootloader_jump
                0x0000000000004bfe       0x64 .build/obj_ergodox_ez_sfgabe_80_underglow/common/avr/bootloader.o
                0x0000000000004bfe                bootloader_jump
 .text.magic    0x0000000000004c62       0x44 .build/obj_ergodox_ez_sfgabe_80_underglow/common/magic.o
                0x0000000000004c62                magic
 .text.move_unit
                0x0000000000004ca6       0x94 .build/obj_ergodox_ez_sfgabe_80_underglow/common/mousekey.o
 .text.wheel_unit
                0x0000000000004d3a       0x72 .build/obj_ergodox_ez_sfgabe_80_underglow/common/mousekey.o
 .text.mousekey_on
                0x0000000000004dac       0xd0 .build/obj_ergodox_ez_sfgabe_80_underglow/common/mousekey.o
                0x0000000000004dac                mousekey_on
 .text.mousekey_off
                0x0000000000004e7c      0x106 .build/obj_ergodox_ez_sfgabe_80_underglow/common/mousekey.o
                0x0000000000004e7c                mousekey_off
 .text.mousekey_send
                0x0000000000004f82       0x36 .build/obj_ergodox_ez_sfgabe_80_underglow/common/mousekey.o
                0x0000000000004f82                mousekey_send
 .text.mousekey_task
                0x0000000000004fb8      0x218 .build/obj_ergodox_ez_sfgabe_80_underglow/common/mousekey.o
                0x0000000000004fb8                mousekey_task
 .text.mousekey_clear
                0x00000000000051d0       0x1c .build/obj_ergodox_ez_sfgabe_80_underglow/common/mousekey.o
                0x00000000000051d0                mousekey_clear
 .text.mousekey_param_inc
                0x00000000000051ec       0xec .build/obj_ergodox_ez_sfgabe_80_underglow/common/command.o
 .text.mousekey_param_dec
                0x00000000000052d8       0xa0 .build/obj_ergodox_ez_sfgabe_80_underglow/common/command.o
 .text.switch_default_layer
                0x0000000000005378       0x2e .build/obj_ergodox_ez_sfgabe_80_underglow/common/command.o
 .text.command_common
                0x00000000000053a6       0xc2 .build/obj_ergodox_ez_sfgabe_80_underglow/common/command.o
 .text.command_extra
                0x0000000000005468        0x4 .build/obj_ergodox_ez_sfgabe_80_underglow/common/command.o
                0x0000000000005468                command_extra
 .text.command_console_extra
                0x000000000000546c        0x4 .build/obj_ergodox_ez_sfgabe_80_underglow/common/command.o
                0x000000000000546c                command_console_extra
 .text.numkey2num
                0x0000000000005470       0x16 .build/obj_ergodox_ez_sfgabe_80_underglow/common/command.o
                0x0000000000005470                numkey2num
 .text.command_proc
                0x0000000000005486      0x120 .build/obj_ergodox_ez_sfgabe_80_underglow/common/command.o
                0x0000000000005486                command_proc
 .text.keyboard_leds
                0x00000000000055a6        0x6 .build/obj_ergodox_ez_sfgabe_80_underglow/lufa.o
 .text.send_extra
                0x00000000000055ac       0x66 .build/obj_ergodox_ez_sfgabe_80_underglow/lufa.o
 .text.send_consumer
                0x0000000000005612        0x8 .build/obj_ergodox_ez_sfgabe_80_underglow/lufa.o
 .text.send_system
                0x000000000000561a        0x8 .build/obj_ergodox_ez_sfgabe_80_underglow/lufa.o
 .text.send_mouse
                0x0000000000005622       0x42 .build/obj_ergodox_ez_sfgabe_80_underglow/lufa.o
 .text.send_keyboard
                0x0000000000005664       0x80 .build/obj_ergodox_ez_sfgabe_80_underglow/lufa.o
 .text.EVENT_USB_Device_Connect
                0x00000000000056e4       0x1c .build/obj_ergodox_ez_sfgabe_80_underglow/lufa.o
                0x00000000000056e4                EVENT_USB_Device_Connect
 .text.EVENT_USB_Device_Disconnect
                0x0000000000005700        0x6 .build/obj_ergodox_ez_sfgabe_80_underglow/lufa.o
                0x0000000000005700                EVENT_USB_Device_Disconnect
 .text.EVENT_USB_Device_Reset
                0x0000000000005706        0x2 .build/obj_ergodox_ez_sfgabe_80_underglow/lufa.o
                0x0000000000005706                EVENT_USB_Device_Reset
 .text.EVENT_USB_Device_Suspend
                0x0000000000005708        0x2 .build/obj_ergodox_ez_sfgabe_80_underglow/lufa.o
                0x0000000000005708                EVENT_USB_Device_Suspend
 .text.EVENT_USB_Device_WakeUp
                0x000000000000570a        0x4 .build/obj_ergodox_ez_sfgabe_80_underglow/lufa.o
                0x000000000000570a                EVENT_USB_Device_WakeUp
 .text.EVENT_USB_Device_ConfigurationChanged
                0x000000000000570e       0x14 .build/obj_ergodox_ez_sfgabe_80_underglow/lufa.o
                0x000000000000570e                EVENT_USB_Device_ConfigurationChanged
 .text.EVENT_USB_Device_ControlRequest
                0x0000000000005722      0x16e .build/obj_ergodox_ez_sfgabe_80_underglow/lufa.o
                0x0000000000005722                EVENT_USB_Device_ControlRequest
 .text.startup.main
                0x0000000000005890       0x7e .build/obj_ergodox_ez_sfgabe_80_underglow/lufa.o
                0x0000000000005890                main
 .text.CALLBACK_USB_GetDescriptor
                0x000000000000590e        0x4 .build/obj_ergodox_ez_sfgabe_80_underglow/lufa.o
                0x000000000000590e                CALLBACK_USB_GetDescriptor
 .text.get_usb_descriptor
                0x0000000000005912       0xbc .build/obj_ergodox_ez_sfgabe_80_underglow/usb_descriptor.o
                0x0000000000005912                get_usb_descriptor
 .text.USB_Device_SendRemoteWakeup
                0x00000000000059ce       0x2c .build/obj_ergodox_ez_sfgabe_80_underglow/lib/lufa/LUFA/Drivers/USB/Core/AVR8/Device_AVR8.o
                0x00000000000059ce                USB_Device_SendRemoteWakeup
 .text.Endpoint_Write_Stream_LE
                0x00000000000059fa       0x9e .build/obj_ergodox_ez_sfgabe_80_underglow/lib/lufa/LUFA/Drivers/USB/Core/AVR8/EndpointStream_AVR8.o
                0x00000000000059fa                Endpoint_Write_Stream_LE
 .text.Endpoint_Write_Control_Stream_LE
                0x0000000000005a98       0xbc .build/obj_ergodox_ez_sfgabe_80_underglow/lib/lufa/LUFA/Drivers/USB/Core/AVR8/EndpointStream_AVR8.o
                0x0000000000005a98                Endpoint_Write_Control_Stream_LE
 .text.Endpoint_Write_Control_PStream_LE
                0x0000000000005b54       0xbe .build/obj_ergodox_ez_sfgabe_80_underglow/lib/lufa/LUFA/Drivers/USB/Core/AVR8/EndpointStream_AVR8.o
                0x0000000000005b54                Endpoint_Write_Control_PStream_LE
 .text.Endpoint_ConfigureEndpoint_Prv
                0x0000000000005c12       0x68 .build/obj_ergodox_ez_sfgabe_80_underglow/lib/lufa/LUFA/Drivers/USB/Core/AVR8/Endpoint_AVR8.o
                0x0000000000005c12                Endpoint_ConfigureEndpoint_Prv
 .text.Endpoint_ClearStatusStage
                0x0000000000005c7a       0x3e .build/obj_ergodox_ez_sfgabe_80_underglow/lib/lufa/LUFA/Drivers/USB/Core/AVR8/Endpoint_AVR8.o
                0x0000000000005c7a                Endpoint_ClearStatusStage
 .text.Endpoint_WaitUntilReady
                0x0000000000005cb8       0x62 .build/obj_ergodox_ez_sfgabe_80_underglow/lib/lufa/LUFA/Drivers/USB/Core/AVR8/Endpoint_AVR8.o
                0x0000000000005cb8                Endpoint_WaitUntilReady
 .text.USB_Disable
                0x0000000000005d1a       0x34 .build/obj_ergodox_ez_sfgabe_80_underglow/lib/lufa/LUFA/Drivers/USB/Core/AVR8/USBController_AVR8.o
                0x0000000000005d1a                USB_Disable
 .text.USB_ResetInterface
                0x0000000000005d4e       0x86 .build/obj_ergodox_ez_sfgabe_80_underglow/lib/lufa/LUFA/Drivers/USB/Core/AVR8/USBController_AVR8.o
                0x0000000000005d4e                USB_ResetInterface
 .text.USB_Init
                0x0000000000005dd4       0x22 .build/obj_ergodox_ez_sfgabe_80_underglow/lib/lufa/LUFA/Drivers/USB/Core/AVR8/USBController_AVR8.o
                0x0000000000005dd4                USB_Init
 .text.USB_INT_DisableAllInterrupts
                0x0000000000005df6       0x10 .build/obj_ergodox_ez_sfgabe_80_underglow/lib/lufa/LUFA/Drivers/USB/Core/AVR8/USBInterrupt_AVR8.o
                0x0000000000005df6                USB_INT_DisableAllInterrupts
 .text.USB_INT_ClearAllInterrupts
                0x0000000000005e06        0xa .build/obj_ergodox_ez_sfgabe_80_underglow/lib/lufa/LUFA/Drivers/USB/Core/AVR8/USBInterrupt_AVR8.o
                0x0000000000005e06                USB_INT_ClearAllInterrupts
 .text.__vector_10
                0x0000000000005e10      0x1a8 .build/obj_ergodox_ez_sfgabe_80_underglow/lib/lufa/LUFA/Drivers/USB/Core/AVR8/USBInterrupt_AVR8.o
                0x0000000000005e10                __vector_10
 .text.__vector_11
                0x0000000000005fb8       0x88 .build/obj_ergodox_ez_sfgabe_80_underglow/lib/lufa/LUFA/Drivers/USB/Core/AVR8/USBInterrupt_AVR8.o
                0x0000000000005fb8                __vector_11
 .text.USB_Device_ProcessControlRequest
                0x0000000000006040      0x2a4 .build/obj_ergodox_ez_sfgabe_80_underglow/lib/lufa/LUFA/Drivers/USB/Core/DeviceStandardReq.o
                0x0000000000006040                USB_Device_ProcessControlRequest
 .text.USB_Event_Stub
                0x00000000000062e4        0x2 .build/obj_ergodox_ez_sfgabe_80_underglow/lib/lufa/LUFA/Drivers/USB/Core/Events.o
                0x00000000000062e4                USB_Event_Stub
                0x00000000000062e4                EVENT_USB_Device_StartOfFrame
 .text.USB_USBTask
                0x00000000000062e6       0x36 .build/obj_ergodox_ez_sfgabe_80_underglow/lib/lufa/LUFA/Drivers/USB/Core/USBTask.o
                0x00000000000062e6                USB_USBTask
 .text.libgcc.div
                0x000000000000631c       0x18 /usr/local/Cellar/avr-gcc@8/8.4.0/lib/avr-gcc/8/gcc/avr/8.4.0/avr5/libgcc.a(_udivmodqi4.o)
                0x000000000000631c                __udivmodqi4
 .text.libgcc.div
                0x0000000000006334       0x1c /usr/local/Cellar/avr-gcc@8/8.4.0/lib/avr-gcc/8/gcc/avr/8.4.0/avr5/libgcc.a(_divmodqi4.o)
                0x0000000000006334                __divmodqi4
 .text.libgcc.div
                0x0000000000006350       0x28 /usr/local/Cellar/avr-gcc@8/8.4.0/lib/avr-gcc/8/gcc/avr/8.4.0/avr5/libgcc.a(_udivmodhi4.o)
                0x0000000000006350                __udivmodhi4
 .text.libgcc.div
                0x0000000000006378       0x28 /usr/local/Cellar/avr-gcc@8/8.4.0/lib/avr-gcc/8/gcc/avr/8.4.0/avr5/libgcc.a(_divmodhi4.o)
                0x0000000000006378                __divmodhi4
                0x0000000000006378                _div
 .text.libgcc.div
                0x00000000000063a0       0x44 /usr/local/Cellar/avr-gcc@8/8.4.0/lib/avr-gcc/8/gcc/avr/8.4.0/avr5/libgcc.a(_udivmodsi4.o)
                0x00000000000063a0                __udivmodsi4
 .text.libgcc   0x00000000000063e4        0xc /usr/local/Cellar/avr-gcc@8/8.4.0/lib/avr-gcc/8/gcc/avr/8.4.0/avr5/libgcc.a(_tablejump2.o)
                0x00000000000063e4                __tablejump2__
 .text.libgcc.mul
                0x00000000000063f0       0x10 /usr/local/Cellar/avr-gcc@8/8.4.0/lib/avr-gcc/8/gcc/avr/8.4.0/avr5/libgcc.a(_mulhisi3.o)
                0x00000000000063f0                __mulhisi3
 .text.libgcc.mul
                0x0000000000006400       0x1e /usr/local/Cellar/avr-gcc@8/8.4.0/lib/avr-gcc/8/gcc/avr/8.4.0/avr5/libgcc.a(_umulhisi3.o)
                0x0000000000006400                __umulhisi3
 .text.libgcc.mul
                0x000000000000641e        0xe /usr/local/Cellar/avr-gcc@8/8.4.0/lib/avr-gcc/8/gcc/avr/8.4.0/avr5/libgcc.a(_usmulhisi3.o)
                0x000000000000641e                __usmulhisi3
                0x0000000000006422                __usmulhisi3_tail
 .text.libgcc.mul
                0x000000000000642c       0x16 /usr/local/Cellar/avr-gcc@8/8.4.0/lib/avr-gcc/8/gcc/avr/8.4.0/avr5/libgcc.a(_muluhisi3.o)
                0x000000000000642c                __muluhisi3
 .text.libgcc.mul
                0x0000000000006442       0x10 /usr/local/Cellar/avr-gcc@8/8.4.0/lib/avr-gcc/8/gcc/avr/8.4.0/avr5/libgcc.a(_mulshisi3.o)
                0x0000000000006442                __mulshisi3
                0x0000000000006448                __mulohisi3
 .text.avr-libc
                0x0000000000006452      0x256 /usr/local/Cellar/avr-gcc@8/8.4.0/lib/avr-gcc/8/gcc/avr/8.4.0/../../../../../../avr/lib/avr5/libc.a(malloc.o)
                0x0000000000006452                malloc
                0x0000000000006586                free
 .text.avr-libc
                0x00000000000066a8       0xb8 /usr/local/Cellar/avr-gcc@8/8.4.0/lib/avr-gcc/8/gcc/avr/8.4.0/../../../../../../avr/lib/avr5/libc.a(rand.o)
                0x000000000000673a                rand_r
                0x0000000000006740                rand
                0x000000000000674a                srand
 .text.avr-libc
                0x0000000000006760       0x1a /usr/local/Cellar/avr-gcc@8/8.4.0/lib/avr-gcc/8/gcc/avr/8.4.0/../../../../../../avr/lib/avr5/libc.a(memchr.o)
                0x0000000000006760                memchr
 .text.avr-libc
                0x000000000000677a       0x60 /usr/local/Cellar/avr-gcc@8/8.4.0/lib/avr-gcc/8/gcc/avr/8.4.0/../../../../../../avr/lib/avr5/libc.a(snprintf.o)
                0x000000000000677a                snprintf
 .text.avr-libc
                0x00000000000067da      0x396 /usr/local/Cellar/avr-gcc@8/8.4.0/lib/avr-gcc/8/gcc/avr/8.4.0/../../../../../../avr/lib/avr5/libc.a(vfprintf_std.o)
                0x00000000000067da                vfprintf
 .text.avr-libc
                0x0000000000006b70       0x16 /usr/local/Cellar/avr-gcc@8/8.4.0/lib/avr-gcc/8/gcc/avr/8.4.0/../../../../../../avr/lib/avr5/libc.a(strnlen_P.o)
                0x0000000000006b70                strnlen_P
 .text.avr-libc
                0x0000000000006b86       0x16 /usr/local/Cellar/avr-gcc@8/8.4.0/lib/avr-gcc/8/gcc/avr/8.4.0/../../../../../../avr/lib/avr5/libc.a(strnlen.o)
                0x0000000000006b86                strnlen
 .text.avr-libc
                0x0000000000006b9c       0x60 /usr/local/Cellar/avr-gcc@8/8.4.0/lib/avr-gcc/8/gcc/avr/8.4.0/../../../../../../avr/lib/avr5/libc.a(fputc.o)
                0x0000000000006b9c                fputc
 .text.avr-libc
                0x0000000000006bfc       0xbc /usr/local/Cellar/avr-gcc@8/8.4.0/lib/avr-gcc/8/gcc/avr/8.4.0/../../../../../../avr/lib/avr5/libc.a(ultoa_invert.o)
                0x0000000000006bfc                __ultoa_invert
 .text.avr-libc
                0x0000000000006cb8       0x10 /usr/local/Cellar/avr-gcc@8/8.4.0/lib/avr-gcc/8/gcc/avr/8.4.0/../../../../../../avr/lib/avr5/libatmega32u4.a(eerd_byte.o)
                0x0000000000006cb8                eeprom_read_byte
 .text.avr-libc
                0x0000000000006cc8        0xc /usr/local/Cellar/avr-gcc@8/8.4.0/lib/avr-gcc/8/gcc/avr/8.4.0/../../../../../../avr/lib/avr5/libatmega32u4.a(eerd_dword.o)
                0x0000000000006cc8                eeprom_read_dword
                0x0000000000006cc8                eeprom_read_float
 .text.avr-libc
                0x0000000000006cd4        0xc /usr/local/Cellar/avr-gcc@8/8.4.0/lib/avr-gcc/8/gcc/avr/8.4.0/../../../../../../avr/lib/avr5/libatmega32u4.a(eerd_word.o)
                0x0000000000006cd4                eeprom_read_word
 .text.avr-libc
                0x0000000000006ce0       0x24 /usr/local/Cellar/avr-gcc@8/8.4.0/lib/avr-gcc/8/gcc/avr/8.4.0/../../../../../../avr/lib/avr5/libatmega32u4.a(eeupd_byte.o)
                0x0000000000006ce0                eeprom_update_byte
                0x0000000000006ce2                eeprom_update_r18
 .text.avr-libc
                0x0000000000006d04       0x18 /usr/local/Cellar/avr-gcc@8/8.4.0/lib/avr-gcc/8/gcc/avr/8.4.0/../../../../../../avr/lib/avr5/libatmega32u4.a(eeupd_dword.o)
                0x0000000000006d04                eeprom_update_dword
                0x0000000000006d04                eeprom_update_float
 .text.avr-libc
                0x0000000000006d1c        0xc /usr/local/Cellar/avr-gcc@8/8.4.0/lib/avr-gcc/8/gcc/avr/8.4.0/../../../../../../avr/lib/avr5/libatmega32u4.a(eeupd_word.o)
                0x0000000000006d1c                eeprom_update_word
 .text.avr-libc
                0x0000000000006d28       0x20 /usr/local/Cellar/avr-gcc@8/8.4.0/lib/avr-gcc/8/gcc/avr/8.4.0/../../../../../../avr/lib/avr5/libatmega32u4.a(eerd_block.o)
                0x0000000000006d28                eeprom_read_block
                0x0000000000006d2c                eeprom_read_blraw
 .text.libgcc.div
                0x0000000000006d48       0x2e /usr/local/Cellar/avr-gcc@8/8.4.0/lib/avr-gcc/8/gcc/avr/8.4.0/avr5/libgcc.a(_divmodsi4.o)
                0x0000000000006d48                __divmodsi4
 .text.libgcc.div
                0x0000000000006d76       0x10 /usr/local/Cellar/avr-gcc@8/8.4.0/lib/avr-gcc/8/gcc/avr/8.4.0/avr5/libgcc.a(_negsi2.o)
                0x0000000000006d76                __negsi2
 .text.libgcc.prologue
                0x0000000000006d86       0x38 /usr/local/Cellar/avr-gcc@8/8.4.0/lib/avr-gcc/8/gcc/avr/8.4.0/avr5/libgcc.a(_prologue.o)
                0x0000000000006d86                __prologue_saves__
 .text.libgcc.prologue
                0x0000000000006dbe       0x36 /usr/local/Cellar/avr-gcc@8/8.4.0/lib/avr-gcc/8/gcc/avr/8.4.0/avr5/libgcc.a(_epilogue.o)
                0x0000000000006dbe                __epilogue_restores__
                0x0000000000006df4                . = ALIGN (0x2)
 *(.fini9)
 .fini9         0x0000000000006df4        0x0 /usr/local/Cellar/avr-gcc@8/8.4.0/lib/avr-gcc/8/gcc/avr/8.4.0/avr5/libgcc.a(_exit.o)
                0x0000000000006df4                exit
                0x0000000000006df4                _exit
 *(.fini9)
 *(.fini8)
 *(.fini8)
 *(.fini7)
 *(.fini7)
 *(.fini6)
 *(.fini6)
 *(.fini5)
 *(.fini5)
 *(.fini4)
 *(.fini4)
 *(.fini3)
 *(.fini3)
 *(.fini2)
 *(.fini2)
 *(.fini1)
 *(.fini1)
 *(.fini0)
 .fini0         0x0000000000006df4        0x4 /usr/local/Cellar/avr-gcc@8/8.4.0/lib/avr-gcc/8/gcc/avr/8.4.0/avr5/libgcc.a(_exit.o)
 *(.fini0)
 *(.hightext)
 *(.hightext*)
 *(.progmemx.*)
                0x0000000000006df8                . = ALIGN (0x2)
 *(.jumptables)
 *(.jumptables*)
 .jumptables.gcc.process_rgb
                0x0000000000006df8       0x28 .build/obj_ergodox_ez_sfgabe_80_underglow/quantum/process_keycode/process_rgb.o
 .jumptables.gcc.process_action
                0x0000000000006e20       0x26 .build/obj_ergodox_ez_sfgabe_80_underglow/common/action.o
 .jumptables.gcc.is_tap_action
                0x0000000000006e46       0x1c .build/obj_ergodox_ez_sfgabe_80_underglow/common/action.o
 .jumptables.gcc.command_common
                0x0000000000006e62       0x7e .build/obj_ergodox_ez_sfgabe_80_underglow/common/command.o
 .jumptables.gcc.USB_Device_ProcessControlRequest
                0x0000000000006ee0       0x14 .build/obj_ergodox_ez_sfgabe_80_underglow/lib/lufa/LUFA/Drivers/USB/Core/DeviceStandardReq.o
                0x0000000000006ef4                _etext = .

.data           0x0000000000800100      0x18a load address 0x0000000000006ef4
                0x0000000000800100                PROVIDE (__data_start = .)
 *(.data)
 .data          0x0000000000800100        0x6 /usr/local/Cellar/avr-gcc@8/8.4.0/lib/avr-gcc/8/gcc/avr/8.4.0/../../../../../../avr/lib/avr5/libc.a(malloc.o)
                0x0000000000800100                __malloc_heap_end
                0x0000000000800102                __malloc_heap_start
                0x0000000000800104                __malloc_margin
 .data          0x0000000000800106        0x4 /usr/local/Cellar/avr-gcc@8/8.4.0/lib/avr-gcc/8/gcc/avr/8.4.0/../../../../../../avr/lib/avr5/libc.a(rand.o)
 *(.data*)
 .data.mcp23018_status
                0x000000000080010a        0x2 .build/obj_ergodox_ez_sfgabe_80_underglow/keyboards/ergodox_ez/ergodox_ez.o
                0x000000000080010a                mcp23018_status
 .data.increment.3432
                0x000000000080010c        0x1 .build/obj_ergodox_ez_sfgabe_80_underglow/quantum/rgblight.o
 .data.increment.3420
                0x000000000080010d        0x1 .build/obj_ergodox_ez_sfgabe_80_underglow/quantum/rgblight.o
 .data.high_bound.3419
                0x000000000080010e        0x1 .build/obj_ergodox_ez_sfgabe_80_underglow/quantum/rgblight.o
 .data.rgblight_ranges
                0x000000000080010f        0x5 .build/obj_ergodox_ez_sfgabe_80_underglow/quantum/rgblight.o
                0x000000000080010f                rgblight_ranges
 .data.static_effect_table
                0x0000000000800114        0xb .build/obj_ergodox_ez_sfgabe_80_underglow/quantum/rgblight.o
 .data.autoshift_timeout
                0x000000000080011f        0x2 .build/obj_ergodox_ez_sfgabe_80_underglow/quantum/process_keycode/process_auto_shift.o
 .data.autoshift_enabled
                0x0000000000800121        0x1 .build/obj_ergodox_ez_sfgabe_80_underglow/quantum/process_keycode/process_auto_shift.o
 .data.keyboard_report
                0x0000000000800122        0x2 .build/obj_ergodox_ez_sfgabe_80_underglow/common/action_util.o
                0x0000000000800122                keyboard_report
 .data.mk_wheel_time_to_max
                0x0000000000800124        0x1 .build/obj_ergodox_ez_sfgabe_80_underglow/common/mousekey.o
                0x0000000000800124                mk_wheel_time_to_max
 .data.mk_wheel_max_speed
                0x0000000000800125        0x1 .build/obj_ergodox_ez_sfgabe_80_underglow/common/mousekey.o
                0x0000000000800125                mk_wheel_max_speed
 .data.mk_wheel_interval
                0x0000000000800126        0x1 .build/obj_ergodox_ez_sfgabe_80_underglow/common/mousekey.o
                0x0000000000800126                mk_wheel_interval
 .data.mk_time_to_max
                0x0000000000800127        0x1 .build/obj_ergodox_ez_sfgabe_80_underglow/common/mousekey.o
                0x0000000000800127                mk_time_to_max
 .data.mk_max_speed
                0x0000000000800128        0x1 .build/obj_ergodox_ez_sfgabe_80_underglow/common/mousekey.o
                0x0000000000800128                mk_max_speed
 .data.mk_interval
                0x0000000000800129        0x1 .build/obj_ergodox_ez_sfgabe_80_underglow/common/mousekey.o
                0x0000000000800129                mk_interval
 .data.lufa_driver
                0x000000000080012a        0xa .build/obj_ergodox_ez_sfgabe_80_underglow/lufa.o
                0x000000000080012a                lufa_driver
 .data.keyboard_protocol
                0x0000000000800134        0x1 .build/obj_ergodox_ez_sfgabe_80_underglow/lufa.o
                0x0000000000800134                keyboard_protocol
 *(.gnu.linkonce.d*)
 *(.rodata)
 *(.rodata*)
 .rodata.hand_swap_config
                0x0000000000800135       0xa8 .build/obj_ergodox_ez_sfgabe_80_underglow/keyboards/ergodox_ez/ergodox_ez.o
                0x0000000000800135                hand_swap_config
 .rodata.CSWTCH.1
                0x00000000008001dd       0x2e .build/obj_ergodox_ez_sfgabe_80_underglow/quantum/keymap_common.o
 .rodata.CSWTCH.0
                0x000000000080020b        0x3 .build/obj_ergodox_ez_sfgabe_80_underglow/quantum/keymap_common.o
 .rodata.mode_base_table
                0x000000000080020e       0x2b .build/obj_ergodox_ez_sfgabe_80_underglow/quantum/rgblight.o
 .rodata.encoder_LUT
                0x0000000000800239       0x10 .build/obj_ergodox_ez_sfgabe_80_underglow/quantum/encoder.o
 .rodata.autoshift_timer_report.str1.1
                0x0000000000800249        0x5 .build/obj_ergodox_ez_sfgabe_80_underglow/quantum/process_keycode/process_auto_shift.o
 .rodata.CSWTCH.23
                0x000000000080024e       0x2e .build/obj_ergodox_ez_sfgabe_80_underglow/common/action.o
 .rodata.CSWTCH.22
                0x000000000080027c        0x3 .build/obj_ergodox_ez_sfgabe_80_underglow/common/action.o
 .rodata.CSWTCH.34
                0x000000000080027f        0xa .build/obj_ergodox_ez_sfgabe_80_underglow/common/command.o
 *(.gnu.linkonce.r*)
                0x000000000080028a                . = ALIGN (0x2)
 *fill*         0x0000000000800289        0x1 
                0x000000000080028a                _edata = .
                0x000000000080028a                PROVIDE (__data_end = .)

.bss            0x000000000080028a      0x24b
                0x000000000080028a                PROVIDE (__bss_start = .)
 *(.bss)
 *(.bss*)
 .bss.mcp23018_reset_loop
                0x000000000080028a        0x1 .build/obj_ergodox_ez_sfgabe_80_underglow/matrix.o
 .bss.i2c_initialized
                0x000000000080028b        0x1 .build/obj_ergodox_ez_sfgabe_80_underglow/keyboards/ergodox_ez/ergodox_ez.o
                0x000000000080028b                i2c_initialized
 .bss.last_result.6394
                0x000000000080028c        0x1 .build/obj_ergodox_ez_sfgabe_80_underglow/quantum/debounce/sym_eager_pr.o
 .bss.time.6393
                0x000000000080028d        0x2 .build/obj_ergodox_ez_sfgabe_80_underglow/quantum/debounce/sym_eager_pr.o
 .bss.counters_need_update
                0x000000000080028f        0x1 .build/obj_ergodox_ez_sfgabe_80_underglow/quantum/debounce/sym_eager_pr.o
 .bss.debounce_counters
                0x0000000000800290        0x2 .build/obj_ergodox_ez_sfgabe_80_underglow/quantum/debounce/sym_eager_pr.o
 .bss.matrix_need_update
                0x0000000000800292        0x1 .build/obj_ergodox_ez_sfgabe_80_underglow/quantum/debounce/sym_eager_pr.o
 .bss.maxval.3447
                0x0000000000800293        0x1 .build/obj_ergodox_ez_sfgabe_80_underglow/quantum/rgblight.o
 .bss.low_bound.3418
                0x0000000000800294        0x1 .build/obj_ergodox_ez_sfgabe_80_underglow/quantum/rgblight.o
 .bss.pos.3402  0x0000000000800295        0x1 .build/obj_ergodox_ez_sfgabe_80_underglow/quantum/rgblight.o
 .bss.led_twinkle_state
                0x0000000000800296       0x96 .build/obj_ergodox_ez_sfgabe_80_underglow/quantum/rgblight.o
 .bss.animation_status
                0x000000000080032c        0x6 .build/obj_ergodox_ez_sfgabe_80_underglow/quantum/rgblight.o
                0x000000000080032c                animation_status
 .bss.is_rgblight_initialized
                0x0000000000800332        0x1 .build/obj_ergodox_ez_sfgabe_80_underglow/quantum/rgblight.o
                0x0000000000800332                is_rgblight_initialized
 .bss.rgblight_status
                0x0000000000800333        0x2 .build/obj_ergodox_ez_sfgabe_80_underglow/quantum/rgblight.o
                0x0000000000800333                rgblight_status
 .bss.encoder_value
                0x0000000000800335        0x1 .build/obj_ergodox_ez_sfgabe_80_underglow/quantum/encoder.o
 .bss.encoder_pulses
                0x0000000000800336        0x1 .build/obj_ergodox_ez_sfgabe_80_underglow/quantum/encoder.o
 .bss.encoder_state
                0x0000000000800337        0x1 .build/obj_ergodox_ez_sfgabe_80_underglow/quantum/encoder.o
 .bss.sc_timer  0x0000000000800338        0x2 .build/obj_ergodox_ez_sfgabe_80_underglow/quantum/process_keycode/process_space_cadet.o
 .bss.sc_last   0x000000000080033a        0x1 .build/obj_ergodox_ez_sfgabe_80_underglow/quantum/process_keycode/process_space_cadet.o
 .bss.grave_esc_was_shifted
                0x000000000080033b        0x1 .build/obj_ergodox_ez_sfgabe_80_underglow/quantum/process_keycode/process_grave_esc.o
 .bss.autoshift_lastkey
                0x000000000080033c        0x2 .build/obj_ergodox_ez_sfgabe_80_underglow/quantum/process_keycode/process_auto_shift.o
 .bss.autoshift_time
                0x000000000080033e        0x2 .build/obj_ergodox_ez_sfgabe_80_underglow/quantum/process_keycode/process_auto_shift.o
 .bss.last_consumer_report
                0x0000000000800340        0x2 .build/obj_ergodox_ez_sfgabe_80_underglow/common/host.o
 .bss.last_system_report
                0x0000000000800342        0x2 .build/obj_ergodox_ez_sfgabe_80_underglow/common/host.o
 .bss.driver    0x0000000000800344        0x2 .build/obj_ergodox_ez_sfgabe_80_underglow/common/host.o
 .bss.led_status.6464
                0x0000000000800346        0x1 .build/obj_ergodox_ez_sfgabe_80_underglow/common/keyboard.o
 .bss.matrix_prev.6463
                0x0000000000800347        0xe .build/obj_ergodox_ez_sfgabe_80_underglow/common/keyboard.o
 .bss.swap_state.5258
                0x0000000000800355        0xe .build/obj_ergodox_ez_sfgabe_80_underglow/common/action.o
 .bss.disable_action_cache
                0x0000000000800363        0x1 .build/obj_ergodox_ez_sfgabe_80_underglow/common/action.o
                0x0000000000800363                disable_action_cache
 .bss.swap_held
                0x0000000000800364        0x1 .build/obj_ergodox_ez_sfgabe_80_underglow/common/action.o
                0x0000000000800364                swap_held
 .bss.swap_hands
                0x0000000000800365        0x1 .build/obj_ergodox_ez_sfgabe_80_underglow/common/action.o
                0x0000000000800365                swap_hands
 .bss.waiting_buffer_tail
                0x0000000000800366        0x1 .build/obj_ergodox_ez_sfgabe_80_underglow/common/action_tapping.o
 .bss.waiting_buffer_head
                0x0000000000800367        0x1 .build/obj_ergodox_ez_sfgabe_80_underglow/common/action_tapping.o
 .bss.waiting_buffer
                0x0000000000800368       0x30 .build/obj_ergodox_ez_sfgabe_80_underglow/common/action_tapping.o
 .bss.tapping_key
                0x0000000000800398        0x6 .build/obj_ergodox_ez_sfgabe_80_underglow/common/action_tapping.o
 .bss.source_layers_cache
                0x000000000080039e       0x37 .build/obj_ergodox_ez_sfgabe_80_underglow/common/action_layer.o
                0x000000000080039e                source_layers_cache
 .bss.layer_state
                0x00000000008003d5        0x4 .build/obj_ergodox_ez_sfgabe_80_underglow/common/action_layer.o
                0x00000000008003d5                layer_state
 .bss.default_layer_state
                0x00000000008003d9        0x4 .build/obj_ergodox_ez_sfgabe_80_underglow/common/action_layer.o
                0x00000000008003d9                default_layer_state
 .bss.swap_hands_oneshot
                0x00000000008003dd        0x1 .build/obj_ergodox_ez_sfgabe_80_underglow/common/action_util.o
                0x00000000008003dd                swap_hands_oneshot
 .bss.oneshot_layer_data
                0x00000000008003de        0x1 .build/obj_ergodox_ez_sfgabe_80_underglow/common/action_util.o
 .bss.oneshot_mods
                0x00000000008003df        0x1 .build/obj_ergodox_ez_sfgabe_80_underglow/common/action_util.o
 .bss.__compound_literal.0
                0x00000000008003e0       0x20 .build/obj_ergodox_ez_sfgabe_80_underglow/common/action_util.o
 .bss.macro_mods
                0x0000000000800400        0x1 .build/obj_ergodox_ez_sfgabe_80_underglow/common/action_util.o
 .bss.weak_mods
                0x0000000000800401        0x1 .build/obj_ergodox_ez_sfgabe_80_underglow/common/action_util.o
 .bss.real_mods
                0x0000000000800402        0x1 .build/obj_ergodox_ez_sfgabe_80_underglow/common/action_util.o
 .bss.debug_config
                0x0000000000800403        0x1 .build/obj_ergodox_ez_sfgabe_80_underglow/common/debug.o
                0x0000000000800403                debug_config
 .bss.wdt_timeout
                0x0000000000800404        0x1 .build/obj_ergodox_ez_sfgabe_80_underglow/common/avr/suspend.o
 .bss.is_suspended
                0x0000000000800405        0x1 .build/obj_ergodox_ez_sfgabe_80_underglow/common/avr/suspend.o
 .bss.rgblight_enabled
                0x0000000000800406        0x1 .build/obj_ergodox_ez_sfgabe_80_underglow/common/avr/suspend.o
 .bss.mk_wheel_delay
                0x0000000000800407        0x1 .build/obj_ergodox_ez_sfgabe_80_underglow/common/mousekey.o
                0x0000000000800407                mk_wheel_delay
 .bss.mk_delay  0x0000000000800408        0x1 .build/obj_ergodox_ez_sfgabe_80_underglow/common/mousekey.o
                0x0000000000800408                mk_delay
 .bss.last_timer_w
                0x0000000000800409        0x2 .build/obj_ergodox_ez_sfgabe_80_underglow/common/mousekey.o
 .bss.last_timer_c
                0x000000000080040b        0x2 .build/obj_ergodox_ez_sfgabe_80_underglow/common/mousekey.o
 .bss.mousekey_wheel_repeat
                0x000000000080040d        0x1 .build/obj_ergodox_ez_sfgabe_80_underglow/common/mousekey.o
 .bss.mousekey_repeat
                0x000000000080040e        0x1 .build/obj_ergodox_ez_sfgabe_80_underglow/common/mousekey.o
 .bss.mousekey_accel
                0x000000000080040f        0x1 .build/obj_ergodox_ez_sfgabe_80_underglow/common/mousekey.o
 .bss.mouse_report
                0x0000000000800410        0x6 .build/obj_ergodox_ez_sfgabe_80_underglow/common/mousekey.o
 .bss.mousekey_param
                0x0000000000800416        0x1 .build/obj_ergodox_ez_sfgabe_80_underglow/common/command.o
 .bss.command_state
                0x0000000000800417        0x1 .build/obj_ergodox_ez_sfgabe_80_underglow/common/command.o
                0x0000000000800417                command_state
 .bss.keyboard_report_sent
                0x0000000000800418       0x20 .build/obj_ergodox_ez_sfgabe_80_underglow/lufa.o
 .bss.keyboard_led_state
                0x0000000000800438        0x1 .build/obj_ergodox_ez_sfgabe_80_underglow/lufa.o
 .bss.keyboard_idle
                0x0000000000800439        0x1 .build/obj_ergodox_ez_sfgabe_80_underglow/lufa.o
                0x0000000000800439                keyboard_idle
 *(COMMON)
 COMMON         0x000000000080043a        0x4 .build/obj_ergodox_ez_sfgabe_80_underglow/keyboards/ergodox_ez/ergodox_ez.o
                0x000000000080043a                keyboard_config
 COMMON         0x000000000080043e       0x1c .build/obj_ergodox_ez_sfgabe_80_underglow/quantum/matrix_common.o
                0x000000000080043e                raw_matrix
                0x000000000080044c                matrix
 COMMON         0x000000000080045a       0x5f .build/obj_ergodox_ez_sfgabe_80_underglow/quantum/rgblight.o
                0x000000000080045a                rgblight_config
                0x000000000080045f                led
 COMMON         0x00000000008004b9        0x5 .build/obj_ergodox_ez_sfgabe_80_underglow/quantum/process_keycode/process_unicode_common.o
                0x00000000008004b9                unicode_config
                0x00000000008004bd                unicode_saved_mods
 COMMON         0x00000000008004be        0x4 .build/obj_ergodox_ez_sfgabe_80_underglow/common/avr/timer.o
                0x00000000008004be                timer_count
 COMMON         0x00000000008004c2        0x2 .build/obj_ergodox_ez_sfgabe_80_underglow/common/magic.o
                0x00000000008004c2                keymap_config
 COMMON         0x00000000008004c4        0x3 .build/obj_ergodox_ez_sfgabe_80_underglow/lib/lufa/LUFA/Drivers/USB/Core/DeviceStandardReq.o
                0x00000000008004c4                USB_Device_ConfigurationNumber
                0x00000000008004c5                USB_Device_CurrentlySelfPowered
                0x00000000008004c6                USB_Device_RemoteWakeupEnabled
 COMMON         0x00000000008004c7        0xa .build/obj_ergodox_ez_sfgabe_80_underglow/lib/lufa/LUFA/Drivers/USB/Core/USBTask.o
                0x00000000008004c7                USB_IsInitialized
                0x00000000008004c8                USB_DeviceState
                0x00000000008004c9                USB_ControlRequest
 COMMON         0x00000000008004d1        0x4 /usr/local/Cellar/avr-gcc@8/8.4.0/lib/avr-gcc/8/gcc/avr/8.4.0/../../../../../../avr/lib/avr5/libc.a(malloc.o)
                0x00000000008004d1                __brkval
                0x00000000008004d3                __flp
                0x00000000008004d5                PROVIDE (__bss_end = .)
                0x0000000000006ef4                __data_load_start = LOADADDR (.data)
                0x000000000000707e                __data_load_end = (__data_load_start + SIZEOF (.data))

.noinit         0x00000000008004d5        0x0
                [!provide]                        PROVIDE (__noinit_start = .)
 *(.noinit*)
                [!provide]                        PROVIDE (__noinit_end = .)
                0x00000000008004d5                _end = .
                0x00000000008004d5                PROVIDE (__heap_start = .)

.eeprom         0x0000000000810000        0x0
 *(.eeprom*)
                0x0000000000810000                __eeprom_end = .

.fuse
 *(.fuse)
 *(.lfuse)
 *(.hfuse)
 *(.efuse)

.lock
 *(.lock*)

.signature
 *(.signature*)

.stab
 *(.stab)

.stabstr        0x0000000000000000       0x9a
 *(.stabstr)
 .stabstr       0x0000000000000000       0x9a .build/obj_ergodox_ez_sfgabe_80_underglow/common/avr/xprintf.o

.stab.excl
 *(.stab.excl)

.stab.exclstr
 *(.stab.exclstr)

.stab.index
 *(.stab.index)

.stab.indexstr
 *(.stab.indexstr)

.comment        0x0000000000000000       0x24
 *(.comment)
 .comment       0x0000000000000000       0x24 .build/obj_ergodox_ez_sfgabe_80_underglow/matrix.o
                                         0x25 (size before relaxing)
 .comment       0x0000000000000024       0x25 .build/obj_ergodox_ez_sfgabe_80_underglow/led_i2c.o
 .comment       0x0000000000000024       0x25 .build/obj_ergodox_ez_sfgabe_80_underglow/keyboards/ergodox_ez/ergodox_ez.o
 .comment       0x0000000000000024       0x25 .build/obj_ergodox_ez_sfgabe_80_underglow/keyboards/ergodox_ez/keymaps/sfgabe_80_underglow/keymap.o
 .comment       0x0000000000000024       0x25 .build/obj_ergodox_ez_sfgabe_80_underglow/quantum/quantum.o
 .comment       0x0000000000000024       0x25 .build/obj_ergodox_ez_sfgabe_80_underglow/quantum/keymap_common.o
 .comment       0x0000000000000024       0x25 .build/obj_ergodox_ez_sfgabe_80_underglow/quantum/keycode_config.o
 .comment       0x0000000000000024       0x25 .build/obj_ergodox_ez_sfgabe_80_underglow/quantum/matrix_common.o
 .comment       0x0000000000000024       0x25 .build/obj_ergodox_ez_sfgabe_80_underglow/quantum/debounce/sym_eager_pr.o
 .comment       0x0000000000000024       0x25 .build/obj_ergodox_ez_sfgabe_80_underglow/quantum/color.o
 .comment       0x0000000000000024       0x25 .build/obj_ergodox_ez_sfgabe_80_underglow/quantum/rgblight.o
 .comment       0x0000000000000024       0x25 .build/obj_ergodox_ez_sfgabe_80_underglow/quantum/process_keycode/process_rgb.o
 .comment       0x0000000000000024       0x25 .build/obj_ergodox_ez_sfgabe_80_underglow/ws2812.o
 .comment       0x0000000000000024       0x25 .build/obj_ergodox_ez_sfgabe_80_underglow/quantum/led_tables.o
 .comment       0x0000000000000024       0x25 .build/obj_ergodox_ez_sfgabe_80_underglow/quantum/encoder.o
 .comment       0x0000000000000024       0x25 .build/obj_ergodox_ez_sfgabe_80_underglow/quantum/process_keycode/process_unicode.o
 .comment       0x0000000000000024       0x25 .build/obj_ergodox_ez_sfgabe_80_underglow/quantum/process_keycode/process_unicode_common.o
 .comment       0x0000000000000024       0x25 .build/obj_ergodox_ez_sfgabe_80_underglow/quantum/process_keycode/process_space_cadet.o
 .comment       0x0000000000000024       0x25 .build/obj_ergodox_ez_sfgabe_80_underglow/quantum/process_keycode/process_magic.o
 .comment       0x0000000000000024       0x25 .build/obj_ergodox_ez_sfgabe_80_underglow/quantum/process_keycode/process_grave_esc.o
 .comment       0x0000000000000024       0x25 .build/obj_ergodox_ez_sfgabe_80_underglow/quantum/process_keycode/process_auto_shift.o
 .comment       0x0000000000000024       0x25 .build/obj_ergodox_ez_sfgabe_80_underglow/i2c_master.a(i2c_master.o)
 .comment       0x0000000000000024       0x25 .build/obj_ergodox_ez_sfgabe_80_underglow/common/host.o
 .comment       0x0000000000000024       0x25 .build/obj_ergodox_ez_sfgabe_80_underglow/common/keyboard.o
 .comment       0x0000000000000024       0x25 .build/obj_ergodox_ez_sfgabe_80_underglow/common/action.o
 .comment       0x0000000000000024       0x25 .build/obj_ergodox_ez_sfgabe_80_underglow/common/action_tapping.o
 .comment       0x0000000000000024       0x25 .build/obj_ergodox_ez_sfgabe_80_underglow/common/action_layer.o
 .comment       0x0000000000000024       0x25 .build/obj_ergodox_ez_sfgabe_80_underglow/common/action_util.o
 .comment       0x0000000000000024       0x25 .build/obj_ergodox_ez_sfgabe_80_underglow/common/debug.o
 .comment       0x0000000000000024       0x25 .build/obj_ergodox_ez_sfgabe_80_underglow/common/util.o
 .comment       0x0000000000000024       0x25 .build/obj_ergodox_ez_sfgabe_80_underglow/common/eeconfig.o
 .comment       0x0000000000000024       0x25 .build/obj_ergodox_ez_sfgabe_80_underglow/common/report.o
 .comment       0x0000000000000024       0x25 .build/obj_ergodox_ez_sfgabe_80_underglow/common/avr/suspend.o
 .comment       0x0000000000000024       0x25 .build/obj_ergodox_ez_sfgabe_80_underglow/common/avr/timer.o
 .comment       0x0000000000000024       0x25 .build/obj_ergodox_ez_sfgabe_80_underglow/common/avr/bootloader.o
 .comment       0x0000000000000024       0x25 .build/obj_ergodox_ez_sfgabe_80_underglow/common/magic.o
 .comment       0x0000000000000024       0x25 .build/obj_ergodox_ez_sfgabe_80_underglow/common/mousekey.o
 .comment       0x0000000000000024       0x25 .build/obj_ergodox_ez_sfgabe_80_underglow/common/command.o
 .comment       0x0000000000000024       0x25 .build/obj_ergodox_ez_sfgabe_80_underglow/lufa.o
 .comment       0x0000000000000024       0x25 .build/obj_ergodox_ez_sfgabe_80_underglow/usb_descriptor.o
 .comment       0x0000000000000024       0x25 .build/obj_ergodox_ez_sfgabe_80_underglow/lib/lufa/LUFA/Drivers/USB/Core/AVR8/Device_AVR8.o
 .comment       0x0000000000000024       0x25 .build/obj_ergodox_ez_sfgabe_80_underglow/lib/lufa/LUFA/Drivers/USB/Core/AVR8/EndpointStream_AVR8.o
 .comment       0x0000000000000024       0x25 .build/obj_ergodox_ez_sfgabe_80_underglow/lib/lufa/LUFA/Drivers/USB/Core/AVR8/Endpoint_AVR8.o
 .comment       0x0000000000000024       0x25 .build/obj_ergodox_ez_sfgabe_80_underglow/lib/lufa/LUFA/Drivers/USB/Core/AVR8/USBController_AVR8.o
 .comment       0x0000000000000024       0x25 .build/obj_ergodox_ez_sfgabe_80_underglow/lib/lufa/LUFA/Drivers/USB/Core/AVR8/USBInterrupt_AVR8.o
 .comment       0x0000000000000024       0x25 .build/obj_ergodox_ez_sfgabe_80_underglow/lib/lufa/LUFA/Drivers/USB/Core/DeviceStandardReq.o
 .comment       0x0000000000000024       0x25 .build/obj_ergodox_ez_sfgabe_80_underglow/lib/lufa/LUFA/Drivers/USB/Core/Events.o
 .comment       0x0000000000000024       0x25 .build/obj_ergodox_ez_sfgabe_80_underglow/lib/lufa/LUFA/Drivers/USB/Core/USBTask.o
 .comment       0x0000000000000024       0x25 /usr/local/Cellar/avr-gcc@8/8.4.0/lib/avr-gcc/8/gcc/avr/8.4.0/../../../../../../avr/lib/avr5/libc.a(malloc.o)
 .comment       0x0000000000000024       0x25 /usr/local/Cellar/avr-gcc@8/8.4.0/lib/avr-gcc/8/gcc/avr/8.4.0/../../../../../../avr/lib/avr5/libc.a(rand.o)
 .comment       0x0000000000000024       0x25 /usr/local/Cellar/avr-gcc@8/8.4.0/lib/avr-gcc/8/gcc/avr/8.4.0/../../../../../../avr/lib/avr5/libc.a(snprintf.o)
 .comment       0x0000000000000024       0x25 /usr/local/Cellar/avr-gcc@8/8.4.0/lib/avr-gcc/8/gcc/avr/8.4.0/../../../../../../avr/lib/avr5/libc.a(vfprintf_std.o)
 .comment       0x0000000000000024       0x25 /usr/local/Cellar/avr-gcc@8/8.4.0/lib/avr-gcc/8/gcc/avr/8.4.0/../../../../../../avr/lib/avr5/libc.a(fputc.o)

.note.gnu.avr.deviceinfo
                0x0000000000000000       0x40
 .note.gnu.avr.deviceinfo
                0x0000000000000000       0x40 /usr/local/Cellar/avr-gcc@8/8.4.0/lib/avr-gcc/8/gcc/avr/8.4.0/../../../../../../avr/lib/avr5/crtatmega32u4.o

.note.gnu.build-id
 *(.note.gnu.build-id)

.debug
 *(.debug)

.line
 *(.line)

.debug_srcinfo
 *(.debug_srcinfo)

.debug_sfnames
 *(.debug_sfnames)

.debug_aranges  0x0000000000000000     0x1610
 *(.debug_aranges)
 .debug_aranges
                0x0000000000000000       0x50 .build/obj_ergodox_ez_sfgabe_80_underglow/matrix.o
 .debug_aranges
                0x0000000000000050       0x20 .build/obj_ergodox_ez_sfgabe_80_underglow/led_i2c.o
 .debug_aranges
                0x0000000000000070       0xc0 .build/obj_ergodox_ez_sfgabe_80_underglow/keyboards/ergodox_ez/ergodox_ez.o
 .debug_aranges
                0x0000000000000130       0x30 .build/obj_ergodox_ez_sfgabe_80_underglow/keyboards/ergodox_ez/keymaps/sfgabe_80_underglow/keymap.o
 .debug_aranges
                0x0000000000000160      0x140 .build/obj_ergodox_ez_sfgabe_80_underglow/quantum/quantum.o
 .debug_aranges
                0x00000000000002a0       0x40 .build/obj_ergodox_ez_sfgabe_80_underglow/quantum/keymap_common.o
 .debug_aranges
                0x00000000000002e0       0x28 .build/obj_ergodox_ez_sfgabe_80_underglow/quantum/keycode_config.o
 .debug_aranges
                0x0000000000000308       0x90 .build/obj_ergodox_ez_sfgabe_80_underglow/quantum/matrix_common.o
 .debug_aranges
                0x0000000000000398       0x40 .build/obj_ergodox_ez_sfgabe_80_underglow/quantum/debounce/sym_eager_pr.o
 .debug_aranges
                0x00000000000003d8       0x30 .build/obj_ergodox_ez_sfgabe_80_underglow/quantum/color.o
 .debug_aranges
                0x0000000000000408      0x310 .build/obj_ergodox_ez_sfgabe_80_underglow/quantum/rgblight.o
 .debug_aranges
                0x0000000000000718       0x38 .build/obj_ergodox_ez_sfgabe_80_underglow/quantum/process_keycode/process_rgb.o
 .debug_aranges
                0x0000000000000750       0x20 .build/obj_ergodox_ez_sfgabe_80_underglow/ws2812.o
 .debug_aranges
                0x0000000000000770       0x18 .build/obj_ergodox_ez_sfgabe_80_underglow/quantum/led_tables.o
 .debug_aranges
                0x0000000000000788       0x38 .build/obj_ergodox_ez_sfgabe_80_underglow/quantum/encoder.o
 .debug_aranges
                0x00000000000007c0       0x20 .build/obj_ergodox_ez_sfgabe_80_underglow/quantum/process_keycode/process_unicode.o
 .debug_aranges
                0x00000000000007e0       0x88 .build/obj_ergodox_ez_sfgabe_80_underglow/quantum/process_keycode/process_unicode_common.o
 .debug_aranges
                0x0000000000000868       0x28 .build/obj_ergodox_ez_sfgabe_80_underglow/quantum/process_keycode/process_space_cadet.o
 .debug_aranges
                0x0000000000000890       0x20 .build/obj_ergodox_ez_sfgabe_80_underglow/quantum/process_keycode/process_magic.o
 .debug_aranges
                0x00000000000008b0       0x20 .build/obj_ergodox_ez_sfgabe_80_underglow/quantum/process_keycode/process_grave_esc.o
 .debug_aranges
                0x00000000000008d0       0x68 .build/obj_ergodox_ez_sfgabe_80_underglow/quantum/process_keycode/process_auto_shift.o
 .debug_aranges
                0x0000000000000938       0x68 .build/obj_ergodox_ez_sfgabe_80_underglow/i2c_master.a(i2c_master.o)
 .debug_aranges
                0x00000000000009a0       0x68 .build/obj_ergodox_ez_sfgabe_80_underglow/common/host.o
 .debug_aranges
                0x0000000000000a08       0x68 .build/obj_ergodox_ez_sfgabe_80_underglow/common/keyboard.o
 .debug_aranges
                0x0000000000000a70       0xd8 .build/obj_ergodox_ez_sfgabe_80_underglow/common/action.o
 .debug_aranges
                0x0000000000000b48       0x48 .build/obj_ergodox_ez_sfgabe_80_underglow/common/action_tapping.o
 .debug_aranges
                0x0000000000000b90       0xe0 .build/obj_ergodox_ez_sfgabe_80_underglow/common/action_layer.o
 .debug_aranges
                0x0000000000000c70      0x160 .build/obj_ergodox_ez_sfgabe_80_underglow/common/action_util.o
 .debug_aranges
                0x0000000000000dd0       0x18 .build/obj_ergodox_ez_sfgabe_80_underglow/common/debug.o
 .debug_aranges
                0x0000000000000de8       0x60 .build/obj_ergodox_ez_sfgabe_80_underglow/common/util.o
 .debug_aranges
                0x0000000000000e48       0xe8 .build/obj_ergodox_ez_sfgabe_80_underglow/common/eeconfig.o
 .debug_aranges
                0x0000000000000f30       0x68 .build/obj_ergodox_ez_sfgabe_80_underglow/common/report.o
 .debug_aranges
                0x0000000000000f98       0x58 .build/obj_ergodox_ez_sfgabe_80_underglow/common/avr/suspend.o
 .debug_aranges
                0x0000000000000ff0       0x50 .build/obj_ergodox_ez_sfgabe_80_underglow/common/avr/timer.o
 .debug_aranges
                0x0000000000001040       0x28 .build/obj_ergodox_ez_sfgabe_80_underglow/common/avr/bootloader.o
 .debug_aranges
                0x0000000000001068       0x20 .build/obj_ergodox_ez_sfgabe_80_underglow/common/magic.o
 .debug_aranges
                0x0000000000001088       0x50 .build/obj_ergodox_ez_sfgabe_80_underglow/common/mousekey.o
 .debug_aranges
                0x00000000000010d8       0x50 .build/obj_ergodox_ez_sfgabe_80_underglow/common/command.o
 .debug_aranges
                0x0000000000001128       0x88 .build/obj_ergodox_ez_sfgabe_80_underglow/lufa.o
 .debug_aranges
                0x00000000000011b0       0x20 .build/obj_ergodox_ez_sfgabe_80_underglow/usb_descriptor.o
 .debug_aranges
                0x00000000000011d0       0x20 .build/obj_ergodox_ez_sfgabe_80_underglow/lib/lufa/LUFA/Drivers/USB/Core/AVR8/Device_AVR8.o
 .debug_aranges
                0x00000000000011f0       0xc8 .build/obj_ergodox_ez_sfgabe_80_underglow/lib/lufa/LUFA/Drivers/USB/Core/AVR8/EndpointStream_AVR8.o
 .debug_aranges
                0x00000000000012b8       0x40 .build/obj_ergodox_ez_sfgabe_80_underglow/lib/lufa/LUFA/Drivers/USB/Core/AVR8/Endpoint_AVR8.o
 .debug_aranges
                0x00000000000012f8       0x30 .build/obj_ergodox_ez_sfgabe_80_underglow/lib/lufa/LUFA/Drivers/USB/Core/AVR8/USBController_AVR8.o
 .debug_aranges
                0x0000000000001328       0x38 .build/obj_ergodox_ez_sfgabe_80_underglow/lib/lufa/LUFA/Drivers/USB/Core/AVR8/USBInterrupt_AVR8.o
 .debug_aranges
                0x0000000000001360       0x20 .build/obj_ergodox_ez_sfgabe_80_underglow/lib/lufa/LUFA/Drivers/USB/Core/DeviceStandardReq.o
 .debug_aranges
                0x0000000000001380       0x30 .build/obj_ergodox_ez_sfgabe_80_underglow/lib/lufa/LUFA/Drivers/USB/Core/Events.o
 .debug_aranges
                0x00000000000013b0       0x20 .build/obj_ergodox_ez_sfgabe_80_underglow/lib/lufa/LUFA/Drivers/USB/Core/USBTask.o
 .debug_aranges
                0x00000000000013d0       0x20 /usr/local/Cellar/avr-gcc@8/8.4.0/lib/avr-gcc/8/gcc/avr/8.4.0/avr5/libgcc.a(_udivmodqi4.o)
 .debug_aranges
                0x00000000000013f0       0x20 /usr/local/Cellar/avr-gcc@8/8.4.0/lib/avr-gcc/8/gcc/avr/8.4.0/avr5/libgcc.a(_divmodqi4.o)
 .debug_aranges
                0x0000000000001410       0x20 /usr/local/Cellar/avr-gcc@8/8.4.0/lib/avr-gcc/8/gcc/avr/8.4.0/avr5/libgcc.a(_udivmodhi4.o)
 .debug_aranges
                0x0000000000001430       0x20 /usr/local/Cellar/avr-gcc@8/8.4.0/lib/avr-gcc/8/gcc/avr/8.4.0/avr5/libgcc.a(_divmodhi4.o)
 .debug_aranges
                0x0000000000001450       0x20 /usr/local/Cellar/avr-gcc@8/8.4.0/lib/avr-gcc/8/gcc/avr/8.4.0/avr5/libgcc.a(_udivmodsi4.o)
 .debug_aranges
                0x0000000000001470       0x20 /usr/local/Cellar/avr-gcc@8/8.4.0/lib/avr-gcc/8/gcc/avr/8.4.0/avr5/libgcc.a(_exit.o)
 .debug_aranges
                0x0000000000001490       0x20 /usr/local/Cellar/avr-gcc@8/8.4.0/lib/avr-gcc/8/gcc/avr/8.4.0/avr5/libgcc.a(_tablejump2.o)
 .debug_aranges
                0x00000000000014b0       0x20 /usr/local/Cellar/avr-gcc@8/8.4.0/lib/avr-gcc/8/gcc/avr/8.4.0/avr5/libgcc.a(_copy_data.o)
 .debug_aranges
                0x00000000000014d0       0x20 /usr/local/Cellar/avr-gcc@8/8.4.0/lib/avr-gcc/8/gcc/avr/8.4.0/avr5/libgcc.a(_clear_bss.o)
 .debug_aranges
                0x00000000000014f0       0x20 /usr/local/Cellar/avr-gcc@8/8.4.0/lib/avr-gcc/8/gcc/avr/8.4.0/avr5/libgcc.a(_mulhisi3.o)
 .debug_aranges
                0x0000000000001510       0x20 /usr/local/Cellar/avr-gcc@8/8.4.0/lib/avr-gcc/8/gcc/avr/8.4.0/avr5/libgcc.a(_umulhisi3.o)
 .debug_aranges
                0x0000000000001530       0x20 /usr/local/Cellar/avr-gcc@8/8.4.0/lib/avr-gcc/8/gcc/avr/8.4.0/avr5/libgcc.a(_usmulhisi3.o)
 .debug_aranges
                0x0000000000001550       0x20 /usr/local/Cellar/avr-gcc@8/8.4.0/lib/avr-gcc/8/gcc/avr/8.4.0/avr5/libgcc.a(_muluhisi3.o)
 .debug_aranges
                0x0000000000001570       0x20 /usr/local/Cellar/avr-gcc@8/8.4.0/lib/avr-gcc/8/gcc/avr/8.4.0/avr5/libgcc.a(_mulshisi3.o)
 .debug_aranges
                0x0000000000001590       0x20 /usr/local/Cellar/avr-gcc@8/8.4.0/lib/avr-gcc/8/gcc/avr/8.4.0/avr5/libgcc.a(_divmodsi4.o)
 .debug_aranges
                0x00000000000015b0       0x20 /usr/local/Cellar/avr-gcc@8/8.4.0/lib/avr-gcc/8/gcc/avr/8.4.0/avr5/libgcc.a(_negsi2.o)
 .debug_aranges
                0x00000000000015d0       0x20 /usr/local/Cellar/avr-gcc@8/8.4.0/lib/avr-gcc/8/gcc/avr/8.4.0/avr5/libgcc.a(_prologue.o)
 .debug_aranges
                0x00000000000015f0       0x20 /usr/local/Cellar/avr-gcc@8/8.4.0/lib/avr-gcc/8/gcc/avr/8.4.0/avr5/libgcc.a(_epilogue.o)

.debug_pubnames
 *(.debug_pubnames)

.debug_info     0x0000000000000000    0x2f1d7
 *(.debug_info .gnu.linkonce.wi.*)
 .debug_info    0x0000000000000000      0x9f4 /usr/local/Cellar/avr-gcc@8/8.4.0/lib/avr-gcc/8/gcc/avr/8.4.0/../../../../../../avr/lib/avr5/crtatmega32u4.o
 .debug_info    0x00000000000009f4     0x184e .build/obj_ergodox_ez_sfgabe_80_underglow/matrix.o
 .debug_info    0x0000000000002242      0xb0d .build/obj_ergodox_ez_sfgabe_80_underglow/led_i2c.o
 .debug_info    0x0000000000002d4f     0x1c1b .build/obj_ergodox_ez_sfgabe_80_underglow/keyboards/ergodox_ez/ergodox_ez.o
 .debug_info    0x000000000000496a     0x1bab .build/obj_ergodox_ez_sfgabe_80_underglow/keyboards/ergodox_ez/keymaps/sfgabe_80_underglow/keymap.o
 .debug_info    0x0000000000006515     0x2efb .build/obj_ergodox_ez_sfgabe_80_underglow/quantum/quantum.o
 .debug_info    0x0000000000009410     0x22bf .build/obj_ergodox_ez_sfgabe_80_underglow/quantum/keymap_common.o
 .debug_info    0x000000000000b6cf      0x63c .build/obj_ergodox_ez_sfgabe_80_underglow/quantum/keycode_config.o
 .debug_info    0x000000000000bd0b      0x5dd .build/obj_ergodox_ez_sfgabe_80_underglow/quantum/matrix_common.o
 .debug_info    0x000000000000c2e8      0xc7d .build/obj_ergodox_ez_sfgabe_80_underglow/quantum/debounce/sym_eager_pr.o
 .debug_info    0x000000000000cf65      0x2fa .build/obj_ergodox_ez_sfgabe_80_underglow/quantum/color.o
 .debug_info    0x000000000000d25f     0x32f9 .build/obj_ergodox_ez_sfgabe_80_underglow/quantum/rgblight.o
 .debug_info    0x0000000000010558     0x1bd3 .build/obj_ergodox_ez_sfgabe_80_underglow/quantum/process_keycode/process_rgb.o
 .debug_info    0x000000000001212b      0x2ae .build/obj_ergodox_ez_sfgabe_80_underglow/ws2812.o
 .debug_info    0x00000000000123d9       0x92 .build/obj_ergodox_ez_sfgabe_80_underglow/quantum/led_tables.o
 .debug_info    0x000000000001246b      0xb4b .build/obj_ergodox_ez_sfgabe_80_underglow/quantum/encoder.o
 .debug_info    0x0000000000012fb6     0x151d .build/obj_ergodox_ez_sfgabe_80_underglow/quantum/process_keycode/process_unicode.o
 .debug_info    0x00000000000144d3     0x20fc .build/obj_ergodox_ez_sfgabe_80_underglow/quantum/process_keycode/process_unicode_common.o
 .debug_info    0x00000000000165cf     0x1a82 .build/obj_ergodox_ez_sfgabe_80_underglow/quantum/process_keycode/process_space_cadet.o
 .debug_info    0x0000000000018051     0x153b .build/obj_ergodox_ez_sfgabe_80_underglow/quantum/process_keycode/process_magic.o
 .debug_info    0x000000000001958c     0x199b .build/obj_ergodox_ez_sfgabe_80_underglow/quantum/process_keycode/process_grave_esc.o
 .debug_info    0x000000000001af27     0x1bf7 .build/obj_ergodox_ez_sfgabe_80_underglow/quantum/process_keycode/process_auto_shift.o
 .debug_info    0x000000000001cb1e      0x718 .build/obj_ergodox_ez_sfgabe_80_underglow/i2c_master.a(i2c_master.o)
 .debug_info    0x000000000001d236      0x89c .build/obj_ergodox_ez_sfgabe_80_underglow/common/host.o
 .debug_info    0x000000000001dad2      0xdfd .build/obj_ergodox_ez_sfgabe_80_underglow/common/keyboard.o
 .debug_info    0x000000000001e8cf     0x2485 .build/obj_ergodox_ez_sfgabe_80_underglow/common/action.o
 .debug_info    0x0000000000020d54      0xfd5 .build/obj_ergodox_ez_sfgabe_80_underglow/common/action_tapping.o
 .debug_info    0x0000000000021d29      0xcd6 .build/obj_ergodox_ez_sfgabe_80_underglow/common/action_layer.o
 .debug_info    0x00000000000229ff      0xebb .build/obj_ergodox_ez_sfgabe_80_underglow/common/action_util.o
 .debug_info    0x00000000000238ba      0x110 .build/obj_ergodox_ez_sfgabe_80_underglow/common/debug.o
 .debug_info    0x00000000000239ca      0x2f9 .build/obj_ergodox_ez_sfgabe_80_underglow/common/util.o
 .debug_info    0x0000000000023cc3      0x959 .build/obj_ergodox_ez_sfgabe_80_underglow/common/eeconfig.o
 .debug_info    0x000000000002461c      0xc7f .build/obj_ergodox_ez_sfgabe_80_underglow/common/report.o
 .debug_info    0x000000000002529b      0xb5c .build/obj_ergodox_ez_sfgabe_80_underglow/common/avr/suspend.o
 .debug_info    0x0000000000025df7      0x443 .build/obj_ergodox_ez_sfgabe_80_underglow/common/avr/timer.o
 .debug_info    0x000000000002623a      0x31e .build/obj_ergodox_ez_sfgabe_80_underglow/common/avr/bootloader.o
 .debug_info    0x0000000000026558      0x5c0 .build/obj_ergodox_ez_sfgabe_80_underglow/common/magic.o
 .debug_info    0x0000000000026b18      0x83c .build/obj_ergodox_ez_sfgabe_80_underglow/common/mousekey.o
 .debug_info    0x0000000000027354     0x1150 .build/obj_ergodox_ez_sfgabe_80_underglow/common/command.o
 .debug_info    0x00000000000284a4     0x1952 .build/obj_ergodox_ez_sfgabe_80_underglow/lufa.o
 .debug_info    0x0000000000029df6      0x9ee .build/obj_ergodox_ez_sfgabe_80_underglow/usb_descriptor.o
 .debug_info    0x000000000002a7e4      0x1c0 .build/obj_ergodox_ez_sfgabe_80_underglow/lib/lufa/LUFA/Drivers/USB/Core/AVR8/Device_AVR8.o
 .debug_info    0x000000000002a9a4     0x1da4 .build/obj_ergodox_ez_sfgabe_80_underglow/lib/lufa/LUFA/Drivers/USB/Core/AVR8/EndpointStream_AVR8.o
 .debug_info    0x000000000002c748      0x75d .build/obj_ergodox_ez_sfgabe_80_underglow/lib/lufa/LUFA/Drivers/USB/Core/AVR8/Endpoint_AVR8.o
 .debug_info    0x000000000002cea5      0x606 .build/obj_ergodox_ez_sfgabe_80_underglow/lib/lufa/LUFA/Drivers/USB/Core/AVR8/USBController_AVR8.o
 .debug_info    0x000000000002d4ab      0xa43 .build/obj_ergodox_ez_sfgabe_80_underglow/lib/lufa/LUFA/Drivers/USB/Core/AVR8/USBInterrupt_AVR8.o
 .debug_info    0x000000000002deee      0xc59 .build/obj_ergodox_ez_sfgabe_80_underglow/lib/lufa/LUFA/Drivers/USB/Core/DeviceStandardReq.o
 .debug_info    0x000000000002eb47       0xe9 .build/obj_ergodox_ez_sfgabe_80_underglow/lib/lufa/LUFA/Drivers/USB/Core/Events.o
 .debug_info    0x000000000002ec30      0x2fb .build/obj_ergodox_ez_sfgabe_80_underglow/lib/lufa/LUFA/Drivers/USB/Core/USBTask.o
 .debug_info    0x000000000002ef2b       0x26 /usr/local/Cellar/avr-gcc@8/8.4.0/lib/avr-gcc/8/gcc/avr/8.4.0/avr5/libgcc.a(_udivmodqi4.o)
 .debug_info    0x000000000002ef51       0x26 /usr/local/Cellar/avr-gcc@8/8.4.0/lib/avr-gcc/8/gcc/avr/8.4.0/avr5/libgcc.a(_divmodqi4.o)
 .debug_info    0x000000000002ef77       0x26 /usr/local/Cellar/avr-gcc@8/8.4.0/lib/avr-gcc/8/gcc/avr/8.4.0/avr5/libgcc.a(_udivmodhi4.o)
 .debug_info    0x000000000002ef9d       0x26 /usr/local/Cellar/avr-gcc@8/8.4.0/lib/avr-gcc/8/gcc/avr/8.4.0/avr5/libgcc.a(_divmodhi4.o)
 .debug_info    0x000000000002efc3       0x26 /usr/local/Cellar/avr-gcc@8/8.4.0/lib/avr-gcc/8/gcc/avr/8.4.0/avr5/libgcc.a(_udivmodsi4.o)
 .debug_info    0x000000000002efe9       0x26 /usr/local/Cellar/avr-gcc@8/8.4.0/lib/avr-gcc/8/gcc/avr/8.4.0/avr5/libgcc.a(_exit.o)
 .debug_info    0x000000000002f00f       0x26 /usr/local/Cellar/avr-gcc@8/8.4.0/lib/avr-gcc/8/gcc/avr/8.4.0/avr5/libgcc.a(_tablejump2.o)
 .debug_info    0x000000000002f035       0x26 /usr/local/Cellar/avr-gcc@8/8.4.0/lib/avr-gcc/8/gcc/avr/8.4.0/avr5/libgcc.a(_copy_data.o)
 .debug_info    0x000000000002f05b       0x26 /usr/local/Cellar/avr-gcc@8/8.4.0/lib/avr-gcc/8/gcc/avr/8.4.0/avr5/libgcc.a(_clear_bss.o)
 .debug_info    0x000000000002f081       0x26 /usr/local/Cellar/avr-gcc@8/8.4.0/lib/avr-gcc/8/gcc/avr/8.4.0/avr5/libgcc.a(_mulhisi3.o)
 .debug_info    0x000000000002f0a7       0x26 /usr/local/Cellar/avr-gcc@8/8.4.0/lib/avr-gcc/8/gcc/avr/8.4.0/avr5/libgcc.a(_umulhisi3.o)
 .debug_info    0x000000000002f0cd       0x26 /usr/local/Cellar/avr-gcc@8/8.4.0/lib/avr-gcc/8/gcc/avr/8.4.0/avr5/libgcc.a(_usmulhisi3.o)
 .debug_info    0x000000000002f0f3       0x26 /usr/local/Cellar/avr-gcc@8/8.4.0/lib/avr-gcc/8/gcc/avr/8.4.0/avr5/libgcc.a(_muluhisi3.o)
 .debug_info    0x000000000002f119       0x26 /usr/local/Cellar/avr-gcc@8/8.4.0/lib/avr-gcc/8/gcc/avr/8.4.0/avr5/libgcc.a(_mulshisi3.o)
 .debug_info    0x000000000002f13f       0x26 /usr/local/Cellar/avr-gcc@8/8.4.0/lib/avr-gcc/8/gcc/avr/8.4.0/avr5/libgcc.a(_divmodsi4.o)
 .debug_info    0x000000000002f165       0x26 /usr/local/Cellar/avr-gcc@8/8.4.0/lib/avr-gcc/8/gcc/avr/8.4.0/avr5/libgcc.a(_negsi2.o)
 .debug_info    0x000000000002f18b       0x26 /usr/local/Cellar/avr-gcc@8/8.4.0/lib/avr-gcc/8/gcc/avr/8.4.0/avr5/libgcc.a(_prologue.o)
 .debug_info    0x000000000002f1b1       0x26 /usr/local/Cellar/avr-gcc@8/8.4.0/lib/avr-gcc/8/gcc/avr/8.4.0/avr5/libgcc.a(_epilogue.o)

.debug_abbrev   0x0000000000000000     0x8ddb
 *(.debug_abbrev)
 .debug_abbrev  0x0000000000000000      0x96a /usr/local/Cellar/avr-gcc@8/8.4.0/lib/avr-gcc/8/gcc/avr/8.4.0/../../../../../../avr/lib/avr5/crtatmega32u4.o
 .debug_abbrev  0x000000000000096a      0x3dc .build/obj_ergodox_ez_sfgabe_80_underglow/matrix.o
 .debug_abbrev  0x0000000000000d46      0x2a8 .build/obj_ergodox_ez_sfgabe_80_underglow/led_i2c.o
 .debug_abbrev  0x0000000000000fee      0x3e8 .build/obj_ergodox_ez_sfgabe_80_underglow/keyboards/ergodox_ez/ergodox_ez.o
 .debug_abbrev  0x00000000000013d6      0x2d2 .build/obj_ergodox_ez_sfgabe_80_underglow/keyboards/ergodox_ez/keymaps/sfgabe_80_underglow/keymap.o
 .debug_abbrev  0x00000000000016a8      0x541 .build/obj_ergodox_ez_sfgabe_80_underglow/quantum/quantum.o
 .debug_abbrev  0x0000000000001be9      0x38f .build/obj_ergodox_ez_sfgabe_80_underglow/quantum/keymap_common.o
 .debug_abbrev  0x0000000000001f78      0x119 .build/obj_ergodox_ez_sfgabe_80_underglow/quantum/keycode_config.o
 .debug_abbrev  0x0000000000002091      0x316 .build/obj_ergodox_ez_sfgabe_80_underglow/quantum/matrix_common.o
 .debug_abbrev  0x00000000000023a7      0x334 .build/obj_ergodox_ez_sfgabe_80_underglow/quantum/debounce/sym_eager_pr.o
 .debug_abbrev  0x00000000000026db      0x15b .build/obj_ergodox_ez_sfgabe_80_underglow/quantum/color.o
 .debug_abbrev  0x0000000000002836      0x683 .build/obj_ergodox_ez_sfgabe_80_underglow/quantum/rgblight.o
 .debug_abbrev  0x0000000000002eb9      0x315 .build/obj_ergodox_ez_sfgabe_80_underglow/quantum/process_keycode/process_rgb.o
 .debug_abbrev  0x00000000000031ce      0x17b .build/obj_ergodox_ez_sfgabe_80_underglow/ws2812.o
 .debug_abbrev  0x0000000000003349       0x6a .build/obj_ergodox_ez_sfgabe_80_underglow/quantum/led_tables.o
 .debug_abbrev  0x00000000000033b3      0x305 .build/obj_ergodox_ez_sfgabe_80_underglow/quantum/encoder.o
 .debug_abbrev  0x00000000000036b8      0x260 .build/obj_ergodox_ez_sfgabe_80_underglow/quantum/process_keycode/process_unicode.o
 .debug_abbrev  0x0000000000003918      0x4b7 .build/obj_ergodox_ez_sfgabe_80_underglow/quantum/process_keycode/process_unicode_common.o
 .debug_abbrev  0x0000000000003dcf      0x2ab .build/obj_ergodox_ez_sfgabe_80_underglow/quantum/process_keycode/process_space_cadet.o
 .debug_abbrev  0x000000000000407a      0x247 .build/obj_ergodox_ez_sfgabe_80_underglow/quantum/process_keycode/process_magic.o
 .debug_abbrev  0x00000000000042c1      0x295 .build/obj_ergodox_ez_sfgabe_80_underglow/quantum/process_keycode/process_grave_esc.o
 .debug_abbrev  0x0000000000004556      0x36a .build/obj_ergodox_ez_sfgabe_80_underglow/quantum/process_keycode/process_auto_shift.o
 .debug_abbrev  0x00000000000048c0      0x16d .build/obj_ergodox_ez_sfgabe_80_underglow/i2c_master.a(i2c_master.o)
 .debug_abbrev  0x0000000000004a2d      0x282 .build/obj_ergodox_ez_sfgabe_80_underglow/common/host.o
 .debug_abbrev  0x0000000000004caf      0x397 .build/obj_ergodox_ez_sfgabe_80_underglow/common/keyboard.o
 .debug_abbrev  0x0000000000005046      0x4d4 .build/obj_ergodox_ez_sfgabe_80_underglow/common/action.o
 .debug_abbrev  0x000000000000551a      0x366 .build/obj_ergodox_ez_sfgabe_80_underglow/common/action_tapping.o
 .debug_abbrev  0x0000000000005880      0x30f .build/obj_ergodox_ez_sfgabe_80_underglow/common/action_layer.o
 .debug_abbrev  0x0000000000005b8f      0x3bd .build/obj_ergodox_ez_sfgabe_80_underglow/common/action_util.o
 .debug_abbrev  0x0000000000005f4c       0xa2 .build/obj_ergodox_ez_sfgabe_80_underglow/common/debug.o
 .debug_abbrev  0x0000000000005fee       0xdd .build/obj_ergodox_ez_sfgabe_80_underglow/common/util.o
 .debug_abbrev  0x00000000000060cb      0x16e .build/obj_ergodox_ez_sfgabe_80_underglow/common/eeconfig.o
 .debug_abbrev  0x0000000000006239      0x2a9 .build/obj_ergodox_ez_sfgabe_80_underglow/common/report.o
 .debug_abbrev  0x00000000000064e2      0x3e2 .build/obj_ergodox_ez_sfgabe_80_underglow/common/avr/suspend.o
 .debug_abbrev  0x00000000000068c4      0x1ba .build/obj_ergodox_ez_sfgabe_80_underglow/common/avr/timer.o
 .debug_abbrev  0x0000000000006a7e      0x1c0 .build/obj_ergodox_ez_sfgabe_80_underglow/common/avr/bootloader.o
 .debug_abbrev  0x0000000000006c3e      0x1b4 .build/obj_ergodox_ez_sfgabe_80_underglow/common/magic.o
 .debug_abbrev  0x0000000000006df2      0x2fd .build/obj_ergodox_ez_sfgabe_80_underglow/common/mousekey.o
 .debug_abbrev  0x00000000000070ef      0x404 .build/obj_ergodox_ez_sfgabe_80_underglow/common/command.o
 .debug_abbrev  0x00000000000074f3      0x5ba .build/obj_ergodox_ez_sfgabe_80_underglow/lufa.o
 .debug_abbrev  0x0000000000007aad      0x207 .build/obj_ergodox_ez_sfgabe_80_underglow/usb_descriptor.o
 .debug_abbrev  0x0000000000007cb4       0xcb .build/obj_ergodox_ez_sfgabe_80_underglow/lib/lufa/LUFA/Drivers/USB/Core/AVR8/Device_AVR8.o
 .debug_abbrev  0x0000000000007d7f      0x23b .build/obj_ergodox_ez_sfgabe_80_underglow/lib/lufa/LUFA/Drivers/USB/Core/AVR8/EndpointStream_AVR8.o
 .debug_abbrev  0x0000000000007fba      0x29d .build/obj_ergodox_ez_sfgabe_80_underglow/lib/lufa/LUFA/Drivers/USB/Core/AVR8/Endpoint_AVR8.o
 .debug_abbrev  0x0000000000008257      0x1f5 .build/obj_ergodox_ez_sfgabe_80_underglow/lib/lufa/LUFA/Drivers/USB/Core/AVR8/USBController_AVR8.o
 .debug_abbrev  0x000000000000844c      0x2a5 .build/obj_ergodox_ez_sfgabe_80_underglow/lib/lufa/LUFA/Drivers/USB/Core/AVR8/USBInterrupt_AVR8.o
 .debug_abbrev  0x00000000000086f1      0x346 .build/obj_ergodox_ez_sfgabe_80_underglow/lib/lufa/LUFA/Drivers/USB/Core/DeviceStandardReq.o
 .debug_abbrev  0x0000000000008a37       0x89 .build/obj_ergodox_ez_sfgabe_80_underglow/lib/lufa/LUFA/Drivers/USB/Core/Events.o
 .debug_abbrev  0x0000000000008ac0      0x1b3 .build/obj_ergodox_ez_sfgabe_80_underglow/lib/lufa/LUFA/Drivers/USB/Core/USBTask.o
 .debug_abbrev  0x0000000000008c73       0x14 /usr/local/Cellar/avr-gcc@8/8.4.0/lib/avr-gcc/8/gcc/avr/8.4.0/avr5/libgcc.a(_udivmodqi4.o)
 .debug_abbrev  0x0000000000008c87       0x14 /usr/local/Cellar/avr-gcc@8/8.4.0/lib/avr-gcc/8/gcc/avr/8.4.0/avr5/libgcc.a(_divmodqi4.o)
 .debug_abbrev  0x0000000000008c9b       0x14 /usr/local/Cellar/avr-gcc@8/8.4.0/lib/avr-gcc/8/gcc/avr/8.4.0/avr5/libgcc.a(_udivmodhi4.o)
 .debug_abbrev  0x0000000000008caf       0x14 /usr/local/Cellar/avr-gcc@8/8.4.0/lib/avr-gcc/8/gcc/avr/8.4.0/avr5/libgcc.a(_divmodhi4.o)
 .debug_abbrev  0x0000000000008cc3       0x14 /usr/local/Cellar/avr-gcc@8/8.4.0/lib/avr-gcc/8/gcc/avr/8.4.0/avr5/libgcc.a(_udivmodsi4.o)
 .debug_abbrev  0x0000000000008cd7       0x14 /usr/local/Cellar/avr-gcc@8/8.4.0/lib/avr-gcc/8/gcc/avr/8.4.0/avr5/libgcc.a(_exit.o)
 .debug_abbrev  0x0000000000008ceb       0x14 /usr/local/Cellar/avr-gcc@8/8.4.0/lib/avr-gcc/8/gcc/avr/8.4.0/avr5/libgcc.a(_tablejump2.o)
 .debug_abbrev  0x0000000000008cff       0x14 /usr/local/Cellar/avr-gcc@8/8.4.0/lib/avr-gcc/8/gcc/avr/8.4.0/avr5/libgcc.a(_copy_data.o)
 .debug_abbrev  0x0000000000008d13       0x14 /usr/local/Cellar/avr-gcc@8/8.4.0/lib/avr-gcc/8/gcc/avr/8.4.0/avr5/libgcc.a(_clear_bss.o)
 .debug_abbrev  0x0000000000008d27       0x14 /usr/local/Cellar/avr-gcc@8/8.4.0/lib/avr-gcc/8/gcc/avr/8.4.0/avr5/libgcc.a(_mulhisi3.o)
 .debug_abbrev  0x0000000000008d3b       0x14 /usr/local/Cellar/avr-gcc@8/8.4.0/lib/avr-gcc/8/gcc/avr/8.4.0/avr5/libgcc.a(_umulhisi3.o)
 .debug_abbrev  0x0000000000008d4f       0x14 /usr/local/Cellar/avr-gcc@8/8.4.0/lib/avr-gcc/8/gcc/avr/8.4.0/avr5/libgcc.a(_usmulhisi3.o)
 .debug_abbrev  0x0000000000008d63       0x14 /usr/local/Cellar/avr-gcc@8/8.4.0/lib/avr-gcc/8/gcc/avr/8.4.0/avr5/libgcc.a(_muluhisi3.o)
 .debug_abbrev  0x0000000000008d77       0x14 /usr/local/Cellar/avr-gcc@8/8.4.0/lib/avr-gcc/8/gcc/avr/8.4.0/avr5/libgcc.a(_mulshisi3.o)
 .debug_abbrev  0x0000000000008d8b       0x14 /usr/local/Cellar/avr-gcc@8/8.4.0/lib/avr-gcc/8/gcc/avr/8.4.0/avr5/libgcc.a(_divmodsi4.o)
 .debug_abbrev  0x0000000000008d9f       0x14 /usr/local/Cellar/avr-gcc@8/8.4.0/lib/avr-gcc/8/gcc/avr/8.4.0/avr5/libgcc.a(_negsi2.o)
 .debug_abbrev  0x0000000000008db3       0x14 /usr/local/Cellar/avr-gcc@8/8.4.0/lib/avr-gcc/8/gcc/avr/8.4.0/avr5/libgcc.a(_prologue.o)
 .debug_abbrev  0x0000000000008dc7       0x14 /usr/local/Cellar/avr-gcc@8/8.4.0/lib/avr-gcc/8/gcc/avr/8.4.0/avr5/libgcc.a(_epilogue.o)

.debug_line     0x0000000000000000    0x1cd5d
 *(.debug_line .debug_line.* .debug_line_end)
 .debug_line    0x0000000000000000       0x1d /usr/local/Cellar/avr-gcc@8/8.4.0/lib/avr-gcc/8/gcc/avr/8.4.0/../../../../../../avr/lib/avr5/crtatmega32u4.o
 .debug_line    0x000000000000001d      0x8fe .build/obj_ergodox_ez_sfgabe_80_underglow/matrix.o
 .debug_line    0x000000000000091b      0x3a5 .build/obj_ergodox_ez_sfgabe_80_underglow/led_i2c.o
 .debug_line    0x0000000000000cc0      0xc9d .build/obj_ergodox_ez_sfgabe_80_underglow/keyboards/ergodox_ez/ergodox_ez.o
 .debug_line    0x000000000000195d      0x45f .build/obj_ergodox_ez_sfgabe_80_underglow/keyboards/ergodox_ez/keymaps/sfgabe_80_underglow/keymap.o
 .debug_line    0x0000000000001dbc     0x17b5 .build/obj_ergodox_ez_sfgabe_80_underglow/quantum/quantum.o
 .debug_line    0x0000000000003571      0x71a .build/obj_ergodox_ez_sfgabe_80_underglow/quantum/keymap_common.o
 .debug_line    0x0000000000003c8b      0x598 .build/obj_ergodox_ez_sfgabe_80_underglow/quantum/keycode_config.o
 .debug_line    0x0000000000004223      0x4eb .build/obj_ergodox_ez_sfgabe_80_underglow/quantum/matrix_common.o
 .debug_line    0x000000000000470e      0x715 .build/obj_ergodox_ez_sfgabe_80_underglow/quantum/debounce/sym_eager_pr.o
 .debug_line    0x0000000000004e23      0x320 .build/obj_ergodox_ez_sfgabe_80_underglow/quantum/color.o
 .debug_line    0x0000000000005143     0x3493 .build/obj_ergodox_ez_sfgabe_80_underglow/quantum/rgblight.o
 .debug_line    0x00000000000085d6      0x4f8 .build/obj_ergodox_ez_sfgabe_80_underglow/quantum/process_keycode/process_rgb.o
 .debug_line    0x0000000000008ace      0x1f0 .build/obj_ergodox_ez_sfgabe_80_underglow/ws2812.o
 .debug_line    0x0000000000008cbe       0x7f .build/obj_ergodox_ez_sfgabe_80_underglow/quantum/led_tables.o
 .debug_line    0x0000000000008d3d      0x49a .build/obj_ergodox_ez_sfgabe_80_underglow/quantum/encoder.o
 .debug_line    0x00000000000091d7      0x2f0 .build/obj_ergodox_ez_sfgabe_80_underglow/quantum/process_keycode/process_unicode.o
 .debug_line    0x00000000000094c7      0xca7 .build/obj_ergodox_ez_sfgabe_80_underglow/quantum/process_keycode/process_unicode_common.o
 .debug_line    0x000000000000a16e      0x5aa .build/obj_ergodox_ez_sfgabe_80_underglow/quantum/process_keycode/process_space_cadet.o
 .debug_line    0x000000000000a718      0x54a .build/obj_ergodox_ez_sfgabe_80_underglow/quantum/process_keycode/process_magic.o
 .debug_line    0x000000000000ac62      0x381 .build/obj_ergodox_ez_sfgabe_80_underglow/quantum/process_keycode/process_grave_esc.o
 .debug_line    0x000000000000afe3      0x66a .build/obj_ergodox_ez_sfgabe_80_underglow/quantum/process_keycode/process_auto_shift.o
 .debug_line    0x000000000000b64d      0xafe .build/obj_ergodox_ez_sfgabe_80_underglow/i2c_master.a(i2c_master.o)
 .debug_line    0x000000000000c14b      0x459 .build/obj_ergodox_ez_sfgabe_80_underglow/common/host.o
 .debug_line    0x000000000000c5a4      0x6c4 .build/obj_ergodox_ez_sfgabe_80_underglow/common/keyboard.o
 .debug_line    0x000000000000cc68     0x196c .build/obj_ergodox_ez_sfgabe_80_underglow/common/action.o
 .debug_line    0x000000000000e5d4      0xd40 .build/obj_ergodox_ez_sfgabe_80_underglow/common/action_tapping.o
 .debug_line    0x000000000000f314      0x946 .build/obj_ergodox_ez_sfgabe_80_underglow/common/action_layer.o
 .debug_line    0x000000000000fc5a      0xb21 .build/obj_ergodox_ez_sfgabe_80_underglow/common/action_util.o
 .debug_line    0x000000000001077b       0x7d .build/obj_ergodox_ez_sfgabe_80_underglow/common/debug.o
 .debug_line    0x00000000000107f8      0x6a2 .build/obj_ergodox_ez_sfgabe_80_underglow/common/util.o
 .debug_line    0x0000000000010e9a      0x529 .build/obj_ergodox_ez_sfgabe_80_underglow/common/eeconfig.o
 .debug_line    0x00000000000113c3      0x736 .build/obj_ergodox_ez_sfgabe_80_underglow/common/report.o
 .debug_line    0x0000000000011af9      0x58b .build/obj_ergodox_ez_sfgabe_80_underglow/common/avr/suspend.o
 .debug_line    0x0000000000012084      0x4d1 .build/obj_ergodox_ez_sfgabe_80_underglow/common/avr/timer.o
 .debug_line    0x0000000000012555      0x3b7 .build/obj_ergodox_ez_sfgabe_80_underglow/common/avr/bootloader.o
 .debug_line    0x000000000001290c      0x21d .build/obj_ergodox_ez_sfgabe_80_underglow/common/magic.o
 .debug_line    0x0000000000012b29      0xfa6 .build/obj_ergodox_ez_sfgabe_80_underglow/common/mousekey.o
 .debug_line    0x0000000000013acf      0xbf3 .build/obj_ergodox_ez_sfgabe_80_underglow/common/command.o
 .debug_line    0x00000000000146c2     0x120f .build/obj_ergodox_ez_sfgabe_80_underglow/lufa.o
 .debug_line    0x00000000000158d1      0x3ce .build/obj_ergodox_ez_sfgabe_80_underglow/usb_descriptor.o
 .debug_line    0x0000000000015c9f      0x25a .build/obj_ergodox_ez_sfgabe_80_underglow/lib/lufa/LUFA/Drivers/USB/Core/AVR8/Device_AVR8.o
 .debug_line    0x0000000000015ef9     0x33c9 .build/obj_ergodox_ez_sfgabe_80_underglow/lib/lufa/LUFA/Drivers/USB/Core/AVR8/EndpointStream_AVR8.o
 .debug_line    0x00000000000192c2      0x9f8 .build/obj_ergodox_ez_sfgabe_80_underglow/lib/lufa/LUFA/Drivers/USB/Core/AVR8/Endpoint_AVR8.o
 .debug_line    0x0000000000019cba      0x69d .build/obj_ergodox_ez_sfgabe_80_underglow/lib/lufa/LUFA/Drivers/USB/Core/AVR8/USBController_AVR8.o
 .debug_line    0x000000000001a357      0xd57 .build/obj_ergodox_ez_sfgabe_80_underglow/lib/lufa/LUFA/Drivers/USB/Core/AVR8/USBInterrupt_AVR8.o
 .debug_line    0x000000000001b0ae      0xd99 .build/obj_ergodox_ez_sfgabe_80_underglow/lib/lufa/LUFA/Drivers/USB/Core/DeviceStandardReq.o
 .debug_line    0x000000000001be47       0xf2 .build/obj_ergodox_ez_sfgabe_80_underglow/lib/lufa/LUFA/Drivers/USB/Core/Events.o
 .debug_line    0x000000000001bf39      0x26c .build/obj_ergodox_ez_sfgabe_80_underglow/lib/lufa/LUFA/Drivers/USB/Core/USBTask.o
 .debug_line    0x000000000001c1a5       0x9d /usr/local/Cellar/avr-gcc@8/8.4.0/lib/avr-gcc/8/gcc/avr/8.4.0/avr5/libgcc.a(_udivmodqi4.o)
 .debug_line    0x000000000001c242       0xa3 /usr/local/Cellar/avr-gcc@8/8.4.0/lib/avr-gcc/8/gcc/avr/8.4.0/avr5/libgcc.a(_divmodqi4.o)
 .debug_line    0x000000000001c2e5       0xcd /usr/local/Cellar/avr-gcc@8/8.4.0/lib/avr-gcc/8/gcc/avr/8.4.0/avr5/libgcc.a(_udivmodhi4.o)
 .debug_line    0x000000000001c3b2       0xc7 /usr/local/Cellar/avr-gcc@8/8.4.0/lib/avr-gcc/8/gcc/avr/8.4.0/avr5/libgcc.a(_divmodhi4.o)
 .debug_line    0x000000000001c479      0x121 /usr/local/Cellar/avr-gcc@8/8.4.0/lib/avr-gcc/8/gcc/avr/8.4.0/avr5/libgcc.a(_udivmodsi4.o)
 .debug_line    0x000000000001c59a       0x61 /usr/local/Cellar/avr-gcc@8/8.4.0/lib/avr-gcc/8/gcc/avr/8.4.0/avr5/libgcc.a(_exit.o)
 .debug_line    0x000000000001c5fb       0x79 /usr/local/Cellar/avr-gcc@8/8.4.0/lib/avr-gcc/8/gcc/avr/8.4.0/avr5/libgcc.a(_tablejump2.o)
 .debug_line    0x000000000001c674       0x97 /usr/local/Cellar/avr-gcc@8/8.4.0/lib/avr-gcc/8/gcc/avr/8.4.0/avr5/libgcc.a(_copy_data.o)
 .debug_line    0x000000000001c70b       0x85 /usr/local/Cellar/avr-gcc@8/8.4.0/lib/avr-gcc/8/gcc/avr/8.4.0/avr5/libgcc.a(_clear_bss.o)
 .debug_line    0x000000000001c790       0x79 /usr/local/Cellar/avr-gcc@8/8.4.0/lib/avr-gcc/8/gcc/avr/8.4.0/avr5/libgcc.a(_mulhisi3.o)
 .debug_line    0x000000000001c809       0xaf /usr/local/Cellar/avr-gcc@8/8.4.0/lib/avr-gcc/8/gcc/avr/8.4.0/avr5/libgcc.a(_umulhisi3.o)
 .debug_line    0x000000000001c8b8       0x79 /usr/local/Cellar/avr-gcc@8/8.4.0/lib/avr-gcc/8/gcc/avr/8.4.0/avr5/libgcc.a(_usmulhisi3.o)
 .debug_line    0x000000000001c931       0x91 /usr/local/Cellar/avr-gcc@8/8.4.0/lib/avr-gcc/8/gcc/avr/8.4.0/avr5/libgcc.a(_muluhisi3.o)
 .debug_line    0x000000000001c9c2       0x79 /usr/local/Cellar/avr-gcc@8/8.4.0/lib/avr-gcc/8/gcc/avr/8.4.0/avr5/libgcc.a(_mulshisi3.o)
 .debug_line    0x000000000001ca3b       0xcd /usr/local/Cellar/avr-gcc@8/8.4.0/lib/avr-gcc/8/gcc/avr/8.4.0/avr5/libgcc.a(_divmodsi4.o)
 .debug_line    0x000000000001cb08       0x61 /usr/local/Cellar/avr-gcc@8/8.4.0/lib/avr-gcc/8/gcc/avr/8.4.0/avr5/libgcc.a(_negsi2.o)
 .debug_line    0x000000000001cb69       0xfd /usr/local/Cellar/avr-gcc@8/8.4.0/lib/avr-gcc/8/gcc/avr/8.4.0/avr5/libgcc.a(_prologue.o)
 .debug_line    0x000000000001cc66       0xf7 /usr/local/Cellar/avr-gcc@8/8.4.0/lib/avr-gcc/8/gcc/avr/8.4.0/avr5/libgcc.a(_epilogue.o)

.debug_frame    0x0000000000000000     0x3134
 *(.debug_frame)
 .debug_frame   0x0000000000000000       0xb4 .build/obj_ergodox_ez_sfgabe_80_underglow/matrix.o
 .debug_frame   0x00000000000000b4       0x48 .build/obj_ergodox_ez_sfgabe_80_underglow/led_i2c.o
 .debug_frame   0x00000000000000fc      0x164 .build/obj_ergodox_ez_sfgabe_80_underglow/keyboards/ergodox_ez/ergodox_ez.o
 .debug_frame   0x0000000000000260       0x4c .build/obj_ergodox_ez_sfgabe_80_underglow/keyboards/ergodox_ez/keymaps/sfgabe_80_underglow/keymap.o
 .debug_frame   0x00000000000002ac      0x3d0 .build/obj_ergodox_ez_sfgabe_80_underglow/quantum/quantum.o
 .debug_frame   0x000000000000067c       0x70 .build/obj_ergodox_ez_sfgabe_80_underglow/quantum/keymap_common.o
 .debug_frame   0x00000000000006ec       0x34 .build/obj_ergodox_ez_sfgabe_80_underglow/quantum/keycode_config.o
 .debug_frame   0x0000000000000720      0x13c .build/obj_ergodox_ez_sfgabe_80_underglow/quantum/matrix_common.o
 .debug_frame   0x000000000000085c       0xc4 .build/obj_ergodox_ez_sfgabe_80_underglow/quantum/debounce/sym_eager_pr.o
 .debug_frame   0x0000000000000920       0x64 .build/obj_ergodox_ez_sfgabe_80_underglow/quantum/color.o
 .debug_frame   0x0000000000000984      0x820 .build/obj_ergodox_ez_sfgabe_80_underglow/quantum/rgblight.o
 .debug_frame   0x00000000000011a4      0x110 .build/obj_ergodox_ez_sfgabe_80_underglow/quantum/process_keycode/process_rgb.o
 .debug_frame   0x00000000000012b4       0x24 .build/obj_ergodox_ez_sfgabe_80_underglow/ws2812.o
 .debug_frame   0x00000000000012d8       0x54 .build/obj_ergodox_ez_sfgabe_80_underglow/quantum/encoder.o
 .debug_frame   0x000000000000132c       0x30 .build/obj_ergodox_ez_sfgabe_80_underglow/quantum/process_keycode/process_unicode.o
 .debug_frame   0x000000000000135c      0x1c0 .build/obj_ergodox_ez_sfgabe_80_underglow/quantum/process_keycode/process_unicode_common.o
 .debug_frame   0x000000000000151c       0x70 .build/obj_ergodox_ez_sfgabe_80_underglow/quantum/process_keycode/process_space_cadet.o
 .debug_frame   0x000000000000158c       0x30 .build/obj_ergodox_ez_sfgabe_80_underglow/quantum/process_keycode/process_magic.o
 .debug_frame   0x00000000000015bc       0x30 .build/obj_ergodox_ez_sfgabe_80_underglow/quantum/process_keycode/process_grave_esc.o
 .debug_frame   0x00000000000015ec       0xec .build/obj_ergodox_ez_sfgabe_80_underglow/quantum/process_keycode/process_auto_shift.o
 .debug_frame   0x00000000000016d8      0x1b0 .build/obj_ergodox_ez_sfgabe_80_underglow/i2c_master.a(i2c_master.o)
 .debug_frame   0x0000000000001888       0xb4 .build/obj_ergodox_ez_sfgabe_80_underglow/common/host.o
 .debug_frame   0x000000000000193c      0x108 .build/obj_ergodox_ez_sfgabe_80_underglow/common/keyboard.o
 .debug_frame   0x0000000000001a44      0x23c .build/obj_ergodox_ez_sfgabe_80_underglow/common/action.o
 .debug_frame   0x0000000000001c80       0xe4 .build/obj_ergodox_ez_sfgabe_80_underglow/common/action_tapping.o
 .debug_frame   0x0000000000001d64      0x288 .build/obj_ergodox_ez_sfgabe_80_underglow/common/action_layer.o
 .debug_frame   0x0000000000001fec      0x2c4 .build/obj_ergodox_ez_sfgabe_80_underglow/common/action_util.o
 .debug_frame   0x00000000000022b0      0x100 .build/obj_ergodox_ez_sfgabe_80_underglow/common/util.o
 .debug_frame   0x00000000000023b0      0x1c4 .build/obj_ergodox_ez_sfgabe_80_underglow/common/eeconfig.o
 .debug_frame   0x0000000000002574       0xc0 .build/obj_ergodox_ez_sfgabe_80_underglow/common/report.o
 .debug_frame   0x0000000000002634       0xdc .build/obj_ergodox_ez_sfgabe_80_underglow/common/avr/suspend.o
 .debug_frame   0x0000000000002710       0xa8 .build/obj_ergodox_ez_sfgabe_80_underglow/common/avr/timer.o
 .debug_frame   0x00000000000027b8       0x34 .build/obj_ergodox_ez_sfgabe_80_underglow/common/avr/bootloader.o
 .debug_frame   0x00000000000027ec       0x24 .build/obj_ergodox_ez_sfgabe_80_underglow/common/magic.o
 .debug_frame   0x0000000000002810       0xa8 .build/obj_ergodox_ez_sfgabe_80_underglow/common/mousekey.o
 .debug_frame   0x00000000000028b8       0xa8 .build/obj_ergodox_ez_sfgabe_80_underglow/common/command.o
 .debug_frame   0x0000000000002960      0x120 .build/obj_ergodox_ez_sfgabe_80_underglow/lufa.o
 .debug_frame   0x0000000000002a80       0x24 .build/obj_ergodox_ez_sfgabe_80_underglow/usb_descriptor.o
 .debug_frame   0x0000000000002aa4       0x24 .build/obj_ergodox_ez_sfgabe_80_underglow/lib/lufa/LUFA/Drivers/USB/Core/AVR8/Device_AVR8.o
 .debug_frame   0x0000000000002ac8      0x404 .build/obj_ergodox_ez_sfgabe_80_underglow/lib/lufa/LUFA/Drivers/USB/Core/AVR8/EndpointStream_AVR8.o
 .debug_frame   0x0000000000002ecc       0x78 .build/obj_ergodox_ez_sfgabe_80_underglow/lib/lufa/LUFA/Drivers/USB/Core/AVR8/Endpoint_AVR8.o
 .debug_frame   0x0000000000002f44       0x58 .build/obj_ergodox_ez_sfgabe_80_underglow/lib/lufa/LUFA/Drivers/USB/Core/AVR8/USBController_AVR8.o
 .debug_frame   0x0000000000002f9c       0xec .build/obj_ergodox_ez_sfgabe_80_underglow/lib/lufa/LUFA/Drivers/USB/Core/AVR8/USBInterrupt_AVR8.o
 .debug_frame   0x0000000000003088       0x3c .build/obj_ergodox_ez_sfgabe_80_underglow/lib/lufa/LUFA/Drivers/USB/Core/DeviceStandardReq.o
 .debug_frame   0x00000000000030c4       0x44 .build/obj_ergodox_ez_sfgabe_80_underglow/lib/lufa/LUFA/Drivers/USB/Core/Events.o
 .debug_frame   0x0000000000003108       0x2c .build/obj_ergodox_ez_sfgabe_80_underglow/lib/lufa/LUFA/Drivers/USB/Core/USBTask.o

.debug_str      0x0000000000000000     0x7b2d
 *(.debug_str)
 .debug_str     0x0000000000000000      0x371 /usr/local/Cellar/avr-gcc@8/8.4.0/lib/avr-gcc/8/gcc/avr/8.4.0/../../../../../../avr/lib/avr5/crtatmega32u4.o
 .debug_str     0x0000000000000371     0x1822 .build/obj_ergodox_ez_sfgabe_80_underglow/matrix.o
                                       0x18f8 (size before relaxing)
 .debug_str     0x0000000000001b93       0x59 .build/obj_ergodox_ez_sfgabe_80_underglow/led_i2c.o
                                        0x80c (size before relaxing)
 .debug_str     0x0000000000001bec      0x258 .build/obj_ergodox_ez_sfgabe_80_underglow/keyboards/ergodox_ez/ergodox_ez.o
                                       0x1a4b (size before relaxing)
 .debug_str     0x0000000000001e44      0x9a9 .build/obj_ergodox_ez_sfgabe_80_underglow/keyboards/ergodox_ez/keymaps/sfgabe_80_underglow/keymap.o
                                       0x2211 (size before relaxing)
 .debug_str     0x00000000000027ed      0x4b9 .build/obj_ergodox_ez_sfgabe_80_underglow/quantum/quantum.o
                                       0x22ef (size before relaxing)
 .debug_str     0x0000000000002ca6      0x4e6 .build/obj_ergodox_ez_sfgabe_80_underglow/quantum/keymap_common.o
                                       0x267f (size before relaxing)
 .debug_str     0x000000000000318c       0x6a .build/obj_ergodox_ez_sfgabe_80_underglow/quantum/keycode_config.o
                                        0x879 (size before relaxing)
 .debug_str     0x00000000000031f6      0x102 .build/obj_ergodox_ez_sfgabe_80_underglow/quantum/matrix_common.o
                                        0x3b3 (size before relaxing)
 .debug_str     0x00000000000032f8       0xfe .build/obj_ergodox_ez_sfgabe_80_underglow/quantum/debounce/sym_eager_pr.o
                                        0x870 (size before relaxing)
 .debug_str     0x00000000000033f6       0x63 .build/obj_ergodox_ez_sfgabe_80_underglow/quantum/color.o
                                        0x1f3 (size before relaxing)
 .debug_str     0x0000000000003459      0xfbd .build/obj_ergodox_ez_sfgabe_80_underglow/quantum/rgblight.o
                                       0x14cf (size before relaxing)
 .debug_str     0x0000000000004416       0x78 .build/obj_ergodox_ez_sfgabe_80_underglow/quantum/process_keycode/process_rgb.o
                                       0x23c3 (size before relaxing)
 .debug_str     0x000000000000448e       0x6a .build/obj_ergodox_ez_sfgabe_80_underglow/ws2812.o
                                        0x241 (size before relaxing)
 .debug_str     0x00000000000044f8       0x15 .build/obj_ergodox_ez_sfgabe_80_underglow/quantum/led_tables.o
                                        0x18d (size before relaxing)
 .debug_str     0x000000000000450d       0xa8 .build/obj_ergodox_ez_sfgabe_80_underglow/quantum/encoder.o
                                        0x7e6 (size before relaxing)
 .debug_str     0x00000000000045b5       0x70 .build/obj_ergodox_ez_sfgabe_80_underglow/quantum/process_keycode/process_unicode.o
                                       0x1812 (size before relaxing)
 .debug_str     0x0000000000004625      0x1c1 .build/obj_ergodox_ez_sfgabe_80_underglow/quantum/process_keycode/process_unicode_common.o
                                       0x2048 (size before relaxing)
 .debug_str     0x00000000000047e6       0x8e .build/obj_ergodox_ez_sfgabe_80_underglow/quantum/process_keycode/process_space_cadet.o
                                       0x1e30 (size before relaxing)
 .debug_str     0x0000000000004874       0x6f .build/obj_ergodox_ez_sfgabe_80_underglow/quantum/process_keycode/process_magic.o
                                       0x182e (size before relaxing)
 .debug_str     0x00000000000048e3       0x67 .build/obj_ergodox_ez_sfgabe_80_underglow/quantum/process_keycode/process_grave_esc.o
                                       0x1de8 (size before relaxing)
 .debug_str     0x000000000000494a      0x17b .build/obj_ergodox_ez_sfgabe_80_underglow/quantum/process_keycode/process_auto_shift.o
                                       0x1f50 (size before relaxing)
 .debug_str     0x0000000000004ac5      0x173 .build/obj_ergodox_ez_sfgabe_80_underglow/i2c_master.a(i2c_master.o)
                                        0x289 (size before relaxing)
 .debug_str     0x0000000000004c38      0x1a3 .build/obj_ergodox_ez_sfgabe_80_underglow/common/host.o
                                        0x60d (size before relaxing)
 .debug_str     0x0000000000004ddb      0x1ce .build/obj_ergodox_ez_sfgabe_80_underglow/common/keyboard.o
                                        0x9c9 (size before relaxing)
 .debug_str     0x0000000000004fa9      0x439 .build/obj_ergodox_ez_sfgabe_80_underglow/common/action.o
                                       0x191a (size before relaxing)
 .debug_str     0x00000000000053e2       0xe6 .build/obj_ergodox_ez_sfgabe_80_underglow/common/action_tapping.o
                                        0xbba (size before relaxing)
 .debug_str     0x00000000000054c8       0xd3 .build/obj_ergodox_ez_sfgabe_80_underglow/common/action_layer.o
                                        0x5a8 (size before relaxing)
 .debug_str     0x000000000000559b      0x27b .build/obj_ergodox_ez_sfgabe_80_underglow/common/action_util.o
                                        0x930 (size before relaxing)
 .debug_str     0x0000000000005816       0x18 .build/obj_ergodox_ez_sfgabe_80_underglow/common/debug.o
                                        0x1ca (size before relaxing)
 .debug_str     0x000000000000582e       0x50 .build/obj_ergodox_ez_sfgabe_80_underglow/common/util.o
                                        0x1e0 (size before relaxing)
 .debug_str     0x000000000000587e      0x19a .build/obj_ergodox_ez_sfgabe_80_underglow/common/eeconfig.o
                                        0x49d (size before relaxing)
 .debug_str     0x0000000000005a18       0x5f .build/obj_ergodox_ez_sfgabe_80_underglow/common/report.o
                                        0xa79 (size before relaxing)
 .debug_str     0x0000000000005a77      0x1dc .build/obj_ergodox_ez_sfgabe_80_underglow/common/avr/suspend.o
                                        0x85c (size before relaxing)
 .debug_str     0x0000000000005c53       0x84 .build/obj_ergodox_ez_sfgabe_80_underglow/common/avr/timer.o
                                        0x235 (size before relaxing)
 .debug_str     0x0000000000005cd7       0x50 .build/obj_ergodox_ez_sfgabe_80_underglow/common/avr/bootloader.o
                                        0x33f (size before relaxing)
 .debug_str     0x0000000000005d27       0x18 .build/obj_ergodox_ez_sfgabe_80_underglow/common/magic.o
                                        0x4ea (size before relaxing)
 .debug_str     0x0000000000005d3f      0x117 .build/obj_ergodox_ez_sfgabe_80_underglow/common/mousekey.o
                                        0x5ea (size before relaxing)
 .debug_str     0x0000000000005e56      0x141 .build/obj_ergodox_ez_sfgabe_80_underglow/common/command.o
                                        0xf06 (size before relaxing)
 .debug_str     0x0000000000005f97      0x58f .build/obj_ergodox_ez_sfgabe_80_underglow/lufa.o
                                        0xf5b (size before relaxing)
 .debug_str     0x0000000000006526      0x6bc .build/obj_ergodox_ez_sfgabe_80_underglow/usb_descriptor.o
                                        0xacb (size before relaxing)
 .debug_str     0x0000000000006be2       0x5e .build/obj_ergodox_ez_sfgabe_80_underglow/lib/lufa/LUFA/Drivers/USB/Core/AVR8/Device_AVR8.o
                                        0x2c8 (size before relaxing)
 .debug_str     0x0000000000006c40      0x4a3 .build/obj_ergodox_ez_sfgabe_80_underglow/lib/lufa/LUFA/Drivers/USB/Core/AVR8/EndpointStream_AVR8.o
                                        0x8bc (size before relaxing)
 .debug_str     0x00000000000070e3      0x254 .build/obj_ergodox_ez_sfgabe_80_underglow/lib/lufa/LUFA/Drivers/USB/Core/AVR8/Endpoint_AVR8.o
                                        0x67c (size before relaxing)
 .debug_str     0x0000000000007337      0x181 .build/obj_ergodox_ez_sfgabe_80_underglow/lib/lufa/LUFA/Drivers/USB/Core/AVR8/USBController_AVR8.o
                                        0x5a0 (size before relaxing)
 .debug_str     0x00000000000074b8      0x146 .build/obj_ergodox_ez_sfgabe_80_underglow/lib/lufa/LUFA/Drivers/USB/Core/AVR8/USBInterrupt_AVR8.o
                                        0x670 (size before relaxing)
 .debug_str     0x00000000000075fe      0x40d .build/obj_ergodox_ez_sfgabe_80_underglow/lib/lufa/LUFA/Drivers/USB/Core/DeviceStandardReq.o
                                        0x9ad (size before relaxing)
 .debug_str     0x0000000000007a0b       0x59 .build/obj_ergodox_ez_sfgabe_80_underglow/lib/lufa/LUFA/Drivers/USB/Core/Events.o
                                        0x1c3 (size before relaxing)
 .debug_str     0x0000000000007a64       0x45 .build/obj_ergodox_ez_sfgabe_80_underglow/lib/lufa/LUFA/Drivers/USB/Core/USBTask.o
                                        0x3cf (size before relaxing)
 .debug_str     0x0000000000007aa9       0x84 /usr/local/Cellar/avr-gcc@8/8.4.0/lib/avr-gcc/8/gcc/avr/8.4.0/avr5/libgcc.a(_udivmodqi4.o)
 .debug_str     0x0000000000007b2d       0x84 /usr/local/Cellar/avr-gcc@8/8.4.0/lib/avr-gcc/8/gcc/avr/8.4.0/avr5/libgcc.a(_divmodqi4.o)
 .debug_str     0x0000000000007b2d       0x84 /usr/local/Cellar/avr-gcc@8/8.4.0/lib/avr-gcc/8/gcc/avr/8.4.0/avr5/libgcc.a(_udivmodhi4.o)
 .debug_str     0x0000000000007b2d       0x84 /usr/local/Cellar/avr-gcc@8/8.4.0/lib/avr-gcc/8/gcc/avr/8.4.0/avr5/libgcc.a(_divmodhi4.o)
 .debug_str     0x0000000000007b2d       0x84 /usr/local/Cellar/avr-gcc@8/8.4.0/lib/avr-gcc/8/gcc/avr/8.4.0/avr5/libgcc.a(_udivmodsi4.o)
 .debug_str     0x0000000000007b2d       0x84 /usr/local/Cellar/avr-gcc@8/8.4.0/lib/avr-gcc/8/gcc/avr/8.4.0/avr5/libgcc.a(_exit.o)
 .debug_str     0x0000000000007b2d       0x84 /usr/local/Cellar/avr-gcc@8/8.4.0/lib/avr-gcc/8/gcc/avr/8.4.0/avr5/libgcc.a(_tablejump2.o)
 .debug_str     0x0000000000007b2d       0x84 /usr/local/Cellar/avr-gcc@8/8.4.0/lib/avr-gcc/8/gcc/avr/8.4.0/avr5/libgcc.a(_copy_data.o)
 .debug_str     0x0000000000007b2d       0x84 /usr/local/Cellar/avr-gcc@8/8.4.0/lib/avr-gcc/8/gcc/avr/8.4.0/avr5/libgcc.a(_clear_bss.o)
 .debug_str     0x0000000000007b2d       0x84 /usr/local/Cellar/avr-gcc@8/8.4.0/lib/avr-gcc/8/gcc/avr/8.4.0/avr5/libgcc.a(_mulhisi3.o)
 .debug_str     0x0000000000007b2d       0x84 /usr/local/Cellar/avr-gcc@8/8.4.0/lib/avr-gcc/8/gcc/avr/8.4.0/avr5/libgcc.a(_umulhisi3.o)
 .debug_str     0x0000000000007b2d       0x84 /usr/local/Cellar/avr-gcc@8/8.4.0/lib/avr-gcc/8/gcc/avr/8.4.0/avr5/libgcc.a(_usmulhisi3.o)
 .debug_str     0x0000000000007b2d       0x84 /usr/local/Cellar/avr-gcc@8/8.4.0/lib/avr-gcc/8/gcc/avr/8.4.0/avr5/libgcc.a(_muluhisi3.o)
 .debug_str     0x0000000000007b2d       0x84 /usr/local/Cellar/avr-gcc@8/8.4.0/lib/avr-gcc/8/gcc/avr/8.4.0/avr5/libgcc.a(_mulshisi3.o)
 .debug_str     0x0000000000007b2d       0x84 /usr/local/Cellar/avr-gcc@8/8.4.0/lib/avr-gcc/8/gcc/avr/8.4.0/avr5/libgcc.a(_divmodsi4.o)
 .debug_str     0x0000000000007b2d       0x84 /usr/local/Cellar/avr-gcc@8/8.4.0/lib/avr-gcc/8/gcc/avr/8.4.0/avr5/libgcc.a(_negsi2.o)
 .debug_str     0x0000000000007b2d       0x84 /usr/local/Cellar/avr-gcc@8/8.4.0/lib/avr-gcc/8/gcc/avr/8.4.0/avr5/libgcc.a(_prologue.o)
 .debug_str     0x0000000000007b2d       0x84 /usr/local/Cellar/avr-gcc@8/8.4.0/lib/avr-gcc/8/gcc/avr/8.4.0/avr5/libgcc.a(_epilogue.o)

.debug_loc      0x0000000000000000    0x10589
 *(.debug_loc)
 .debug_loc     0x0000000000000000      0x306 .build/obj_ergodox_ez_sfgabe_80_underglow/matrix.o
 .debug_loc     0x0000000000000306      0x177 .build/obj_ergodox_ez_sfgabe_80_underglow/led_i2c.o
 .debug_loc     0x000000000000047d      0x26c .build/obj_ergodox_ez_sfgabe_80_underglow/keyboards/ergodox_ez/ergodox_ez.o
 .debug_loc     0x00000000000006e9       0xdf .build/obj_ergodox_ez_sfgabe_80_underglow/keyboards/ergodox_ez/keymaps/sfgabe_80_underglow/keymap.o
 .debug_loc     0x00000000000007c8     0x1927 .build/obj_ergodox_ez_sfgabe_80_underglow/quantum/quantum.o
 .debug_loc     0x00000000000020ef      0x78f .build/obj_ergodox_ez_sfgabe_80_underglow/quantum/keymap_common.o
 .debug_loc     0x000000000000287e      0x203 .build/obj_ergodox_ez_sfgabe_80_underglow/quantum/keycode_config.o
 .debug_loc     0x0000000000002a81      0x297 .build/obj_ergodox_ez_sfgabe_80_underglow/quantum/matrix_common.o
 .debug_loc     0x0000000000002d18      0x616 .build/obj_ergodox_ez_sfgabe_80_underglow/quantum/debounce/sym_eager_pr.o
 .debug_loc     0x000000000000332e      0x224 .build/obj_ergodox_ez_sfgabe_80_underglow/quantum/color.o
 .debug_loc     0x0000000000003552     0x2e78 .build/obj_ergodox_ez_sfgabe_80_underglow/quantum/rgblight.o
 .debug_loc     0x00000000000063ca      0x2b0 .build/obj_ergodox_ez_sfgabe_80_underglow/quantum/process_keycode/process_rgb.o
 .debug_loc     0x000000000000667a      0x1e2 .build/obj_ergodox_ez_sfgabe_80_underglow/ws2812.o
 .debug_loc     0x000000000000685c       0xc6 .build/obj_ergodox_ez_sfgabe_80_underglow/quantum/encoder.o
 .debug_loc     0x0000000000006922       0x95 .build/obj_ergodox_ez_sfgabe_80_underglow/quantum/process_keycode/process_unicode.o
 .debug_loc     0x00000000000069b7      0x95c .build/obj_ergodox_ez_sfgabe_80_underglow/quantum/process_keycode/process_unicode_common.o
 .debug_loc     0x0000000000007313      0x54a .build/obj_ergodox_ez_sfgabe_80_underglow/quantum/process_keycode/process_space_cadet.o
 .debug_loc     0x000000000000785d       0xb9 .build/obj_ergodox_ez_sfgabe_80_underglow/quantum/process_keycode/process_magic.o
 .debug_loc     0x0000000000007916      0x143 .build/obj_ergodox_ez_sfgabe_80_underglow/quantum/process_keycode/process_grave_esc.o
 .debug_loc     0x0000000000007a59      0x2e7 .build/obj_ergodox_ez_sfgabe_80_underglow/quantum/process_keycode/process_auto_shift.o
 .debug_loc     0x0000000000007d40      0xcb6 .build/obj_ergodox_ez_sfgabe_80_underglow/i2c_master.a(i2c_master.o)
 .debug_loc     0x00000000000089f6       0xf0 .build/obj_ergodox_ez_sfgabe_80_underglow/common/host.o
 .debug_loc     0x0000000000008ae6      0x1e0 .build/obj_ergodox_ez_sfgabe_80_underglow/common/keyboard.o
 .debug_loc     0x0000000000008cc6      0xccd .build/obj_ergodox_ez_sfgabe_80_underglow/common/action.o
 .debug_loc     0x0000000000009993      0x6d1 .build/obj_ergodox_ez_sfgabe_80_underglow/common/action_tapping.o
 .debug_loc     0x000000000000a064      0x92e .build/obj_ergodox_ez_sfgabe_80_underglow/common/action_layer.o
 .debug_loc     0x000000000000a992      0x2b6 .build/obj_ergodox_ez_sfgabe_80_underglow/common/action_util.o
 .debug_loc     0x000000000000ac48      0x58d .build/obj_ergodox_ez_sfgabe_80_underglow/common/util.o
 .debug_loc     0x000000000000b1d5      0x1f8 .build/obj_ergodox_ez_sfgabe_80_underglow/common/eeconfig.o
 .debug_loc     0x000000000000b3cd      0x510 .build/obj_ergodox_ez_sfgabe_80_underglow/common/report.o
 .debug_loc     0x000000000000b8dd       0xdf .build/obj_ergodox_ez_sfgabe_80_underglow/common/avr/suspend.o
 .debug_loc     0x000000000000b9bc      0x2c0 .build/obj_ergodox_ez_sfgabe_80_underglow/common/avr/timer.o
 .debug_loc     0x000000000000bc7c       0x4e .build/obj_ergodox_ez_sfgabe_80_underglow/common/avr/bootloader.o
 .debug_loc     0x000000000000bcca       0x30 .build/obj_ergodox_ez_sfgabe_80_underglow/common/magic.o
 .debug_loc     0x000000000000bcfa      0x54b .build/obj_ergodox_ez_sfgabe_80_underglow/common/mousekey.o
 .debug_loc     0x000000000000c245      0x4e3 .build/obj_ergodox_ez_sfgabe_80_underglow/common/command.o
 .debug_loc     0x000000000000c728      0x650 .build/obj_ergodox_ez_sfgabe_80_underglow/lufa.o
 .debug_loc     0x000000000000cd78      0x28b .build/obj_ergodox_ez_sfgabe_80_underglow/usb_descriptor.o
 .debug_loc     0x000000000000d003     0x2752 .build/obj_ergodox_ez_sfgabe_80_underglow/lib/lufa/LUFA/Drivers/USB/Core/AVR8/EndpointStream_AVR8.o
 .debug_loc     0x000000000000f755      0x4a0 .build/obj_ergodox_ez_sfgabe_80_underglow/lib/lufa/LUFA/Drivers/USB/Core/AVR8/Endpoint_AVR8.o
 .debug_loc     0x000000000000fbf5       0xf9 .build/obj_ergodox_ez_sfgabe_80_underglow/lib/lufa/LUFA/Drivers/USB/Core/AVR8/USBController_AVR8.o
 .debug_loc     0x000000000000fcee      0x492 .build/obj_ergodox_ez_sfgabe_80_underglow/lib/lufa/LUFA/Drivers/USB/Core/AVR8/USBInterrupt_AVR8.o
 .debug_loc     0x0000000000010180      0x3a7 .build/obj_ergodox_ez_sfgabe_80_underglow/lib/lufa/LUFA/Drivers/USB/Core/DeviceStandardReq.o
 .debug_loc     0x0000000000010527       0x62 .build/obj_ergodox_ez_sfgabe_80_underglow/lib/lufa/LUFA/Drivers/USB/Core/USBTask.o

.debug_macinfo
 *(.debug_macinfo)

.debug_weaknames
 *(.debug_weaknames)

.debug_funcnames
 *(.debug_funcnames)

.debug_typenames
 *(.debug_typenames)

.debug_varnames
 *(.debug_varnames)

.debug_pubtypes
 *(.debug_pubtypes)

.debug_ranges   0x0000000000000000     0x1dc8
 *(.debug_ranges)
 .debug_ranges  0x0000000000000000       0xa0 .build/obj_ergodox_ez_sfgabe_80_underglow/matrix.o
 .debug_ranges  0x00000000000000a0       0x10 .build/obj_ergodox_ez_sfgabe_80_underglow/led_i2c.o
 .debug_ranges  0x00000000000000b0       0xb0 .build/obj_ergodox_ez_sfgabe_80_underglow/keyboards/ergodox_ez/ergodox_ez.o
 .debug_ranges  0x0000000000000160       0x20 .build/obj_ergodox_ez_sfgabe_80_underglow/keyboards/ergodox_ez/keymaps/sfgabe_80_underglow/keymap.o
 .debug_ranges  0x0000000000000180      0x1c0 .build/obj_ergodox_ez_sfgabe_80_underglow/quantum/quantum.o
 .debug_ranges  0x0000000000000340       0x30 .build/obj_ergodox_ez_sfgabe_80_underglow/quantum/keymap_common.o
 .debug_ranges  0x0000000000000370       0x18 .build/obj_ergodox_ez_sfgabe_80_underglow/quantum/keycode_config.o
 .debug_ranges  0x0000000000000388       0x98 .build/obj_ergodox_ez_sfgabe_80_underglow/quantum/matrix_common.o
 .debug_ranges  0x0000000000000420       0x98 .build/obj_ergodox_ez_sfgabe_80_underglow/quantum/debounce/sym_eager_pr.o
 .debug_ranges  0x00000000000004b8       0x20 .build/obj_ergodox_ez_sfgabe_80_underglow/quantum/color.o
 .debug_ranges  0x00000000000004d8      0x650 .build/obj_ergodox_ez_sfgabe_80_underglow/quantum/rgblight.o
 .debug_ranges  0x0000000000000b28       0x40 .build/obj_ergodox_ez_sfgabe_80_underglow/quantum/process_keycode/process_rgb.o
 .debug_ranges  0x0000000000000b68       0x30 .build/obj_ergodox_ez_sfgabe_80_underglow/ws2812.o
 .debug_ranges  0x0000000000000b98       0x40 .build/obj_ergodox_ez_sfgabe_80_underglow/quantum/encoder.o
 .debug_ranges  0x0000000000000bd8       0x10 .build/obj_ergodox_ez_sfgabe_80_underglow/quantum/process_keycode/process_unicode.o
 .debug_ranges  0x0000000000000be8      0x130 .build/obj_ergodox_ez_sfgabe_80_underglow/quantum/process_keycode/process_unicode_common.o
 .debug_ranges  0x0000000000000d18       0x18 .build/obj_ergodox_ez_sfgabe_80_underglow/quantum/process_keycode/process_space_cadet.o
 .debug_ranges  0x0000000000000d30       0x10 .build/obj_ergodox_ez_sfgabe_80_underglow/quantum/process_keycode/process_magic.o
 .debug_ranges  0x0000000000000d40       0x28 .build/obj_ergodox_ez_sfgabe_80_underglow/quantum/process_keycode/process_grave_esc.o
 .debug_ranges  0x0000000000000d68       0x70 .build/obj_ergodox_ez_sfgabe_80_underglow/quantum/process_keycode/process_auto_shift.o
 .debug_ranges  0x0000000000000dd8       0xb8 .build/obj_ergodox_ez_sfgabe_80_underglow/i2c_master.a(i2c_master.o)
 .debug_ranges  0x0000000000000e90       0x58 .build/obj_ergodox_ez_sfgabe_80_underglow/common/host.o
 .debug_ranges  0x0000000000000ee8       0xc8 .build/obj_ergodox_ez_sfgabe_80_underglow/common/keyboard.o
 .debug_ranges  0x0000000000000fb0      0x118 .build/obj_ergodox_ez_sfgabe_80_underglow/common/action.o
 .debug_ranges  0x00000000000010c8       0xf0 .build/obj_ergodox_ez_sfgabe_80_underglow/common/action_tapping.o
 .debug_ranges  0x00000000000011b8      0x128 .build/obj_ergodox_ez_sfgabe_80_underglow/common/action_layer.o
 .debug_ranges  0x00000000000012e0      0x150 .build/obj_ergodox_ez_sfgabe_80_underglow/common/action_util.o
 .debug_ranges  0x0000000000001430       0x50 .build/obj_ergodox_ez_sfgabe_80_underglow/common/util.o
 .debug_ranges  0x0000000000001480       0xd8 .build/obj_ergodox_ez_sfgabe_80_underglow/common/eeconfig.o
 .debug_ranges  0x0000000000001558       0x58 .build/obj_ergodox_ez_sfgabe_80_underglow/common/report.o
 .debug_ranges  0x00000000000015b0       0x90 .build/obj_ergodox_ez_sfgabe_80_underglow/common/avr/suspend.o
 .debug_ranges  0x0000000000001640       0x40 .build/obj_ergodox_ez_sfgabe_80_underglow/common/avr/timer.o
 .debug_ranges  0x0000000000001680       0x18 .build/obj_ergodox_ez_sfgabe_80_underglow/common/avr/bootloader.o
 .debug_ranges  0x0000000000001698       0x10 .build/obj_ergodox_ez_sfgabe_80_underglow/common/magic.o
 .debug_ranges  0x00000000000016a8       0x40 .build/obj_ergodox_ez_sfgabe_80_underglow/common/mousekey.o
 .debug_ranges  0x00000000000016e8       0x78 .build/obj_ergodox_ez_sfgabe_80_underglow/common/command.o
 .debug_ranges  0x0000000000001760      0x180 .build/obj_ergodox_ez_sfgabe_80_underglow/lufa.o
 .debug_ranges  0x00000000000018e0       0x28 .build/obj_ergodox_ez_sfgabe_80_underglow/usb_descriptor.o
 .debug_ranges  0x0000000000001908       0x10 .build/obj_ergodox_ez_sfgabe_80_underglow/lib/lufa/LUFA/Drivers/USB/Core/AVR8/Device_AVR8.o
 .debug_ranges  0x0000000000001918      0x1f8 .build/obj_ergodox_ez_sfgabe_80_underglow/lib/lufa/LUFA/Drivers/USB/Core/AVR8/EndpointStream_AVR8.o
 .debug_ranges  0x0000000000001b10       0xd8 .build/obj_ergodox_ez_sfgabe_80_underglow/lib/lufa/LUFA/Drivers/USB/Core/AVR8/Endpoint_AVR8.o
 .debug_ranges  0x0000000000001be8       0x50 .build/obj_ergodox_ez_sfgabe_80_underglow/lib/lufa/LUFA/Drivers/USB/Core/AVR8/USBController_AVR8.o
 .debug_ranges  0x0000000000001c38       0x70 .build/obj_ergodox_ez_sfgabe_80_underglow/lib/lufa/LUFA/Drivers/USB/Core/AVR8/USBInterrupt_AVR8.o
 .debug_ranges  0x0000000000001ca8       0xf0 .build/obj_ergodox_ez_sfgabe_80_underglow/lib/lufa/LUFA/Drivers/USB/Core/DeviceStandardReq.o
 .debug_ranges  0x0000000000001d98       0x20 .build/obj_ergodox_ez_sfgabe_80_underglow/lib/lufa/LUFA/Drivers/USB/Core/Events.o
 .debug_ranges  0x0000000000001db8       0x10 .build/obj_ergodox_ez_sfgabe_80_underglow/lib/lufa/LUFA/Drivers/USB/Core/USBTask.o

.debug_macro
 *(.debug_macro)

.debug_addr
 *(.debug_addr)
OUTPUT(.build/ergodox_ez_sfgabe_80_underglow.elf elf32-avr)
LOAD linker stubs

Cross Reference Table

Symbol                                            File
CALLBACK_HIDParser_FilterHIDReportItem            .build/obj_ergodox_ez_sfgabe_80_underglow/lib/lufa/LUFA/Drivers/USB/Class/Common/HIDParser.o
CALLBACK_USB_GetDescriptor                        .build/obj_ergodox_ez_sfgabe_80_underglow/lufa.o
                                                  .build/obj_ergodox_ez_sfgabe_80_underglow/lib/lufa/LUFA/Drivers/USB/Core/DeviceStandardReq.o
CIE1931_CURVE                                     .build/obj_ergodox_ez_sfgabe_80_underglow/quantum/led_tables.o
                                                  .build/obj_ergodox_ez_sfgabe_80_underglow/quantum/color.o
ConfigurationDescriptor                           .build/obj_ergodox_ez_sfgabe_80_underglow/usb_descriptor.o
DeviceDescriptor                                  .build/obj_ergodox_ez_sfgabe_80_underglow/usb_descriptor.o
EVENT_USB_Device_ConfigurationChanged             .build/obj_ergodox_ez_sfgabe_80_underglow/lufa.o
                                                  .build/obj_ergodox_ez_sfgabe_80_underglow/lib/lufa/LUFA/Drivers/USB/Core/DeviceStandardReq.o
EVENT_USB_Device_Connect                          .build/obj_ergodox_ez_sfgabe_80_underglow/lufa.o
                                                  .build/obj_ergodox_ez_sfgabe_80_underglow/lib/lufa/LUFA/Drivers/USB/Core/AVR8/USBInterrupt_AVR8.o
EVENT_USB_Device_ControlRequest                   .build/obj_ergodox_ez_sfgabe_80_underglow/lufa.o
                                                  .build/obj_ergodox_ez_sfgabe_80_underglow/lib/lufa/LUFA/Drivers/USB/Core/DeviceStandardReq.o
EVENT_USB_Device_Disconnect                       .build/obj_ergodox_ez_sfgabe_80_underglow/lufa.o
                                                  .build/obj_ergodox_ez_sfgabe_80_underglow/lib/lufa/LUFA/Drivers/USB/Core/AVR8/USBInterrupt_AVR8.o
EVENT_USB_Device_Reset                            .build/obj_ergodox_ez_sfgabe_80_underglow/lufa.o
                                                  .build/obj_ergodox_ez_sfgabe_80_underglow/lib/lufa/LUFA/Drivers/USB/Core/AVR8/USBInterrupt_AVR8.o
EVENT_USB_Device_StartOfFrame                     .build/obj_ergodox_ez_sfgabe_80_underglow/lib/lufa/LUFA/Drivers/USB/Core/Events.o
                                                  .build/obj_ergodox_ez_sfgabe_80_underglow/lib/lufa/LUFA/Drivers/USB/Core/AVR8/USBInterrupt_AVR8.o
EVENT_USB_Device_Suspend                          .build/obj_ergodox_ez_sfgabe_80_underglow/lufa.o
                                                  .build/obj_ergodox_ez_sfgabe_80_underglow/lib/lufa/LUFA/Drivers/USB/Core/AVR8/USBInterrupt_AVR8.o
EVENT_USB_Device_WakeUp                           .build/obj_ergodox_ez_sfgabe_80_underglow/lufa.o
                                                  .build/obj_ergodox_ez_sfgabe_80_underglow/lib/lufa/LUFA/Drivers/USB/Core/AVR8/USBInterrupt_AVR8.o
Endpoint_ClearEndpoints                           .build/obj_ergodox_ez_sfgabe_80_underglow/lib/lufa/LUFA/Drivers/USB/Core/AVR8/Endpoint_AVR8.o
Endpoint_ClearStatusStage                         .build/obj_ergodox_ez_sfgabe_80_underglow/lib/lufa/LUFA/Drivers/USB/Core/AVR8/Endpoint_AVR8.o
                                                  .build/obj_ergodox_ez_sfgabe_80_underglow/lib/lufa/LUFA/Drivers/USB/Core/DeviceStandardReq.o
                                                  .build/obj_ergodox_ez_sfgabe_80_underglow/lufa.o
Endpoint_ConfigureEndpointTable                   .build/obj_ergodox_ez_sfgabe_80_underglow/lib/lufa/LUFA/Drivers/USB/Core/AVR8/Endpoint_AVR8.o
Endpoint_ConfigureEndpoint_Prv                    .build/obj_ergodox_ez_sfgabe_80_underglow/lib/lufa/LUFA/Drivers/USB/Core/AVR8/Endpoint_AVR8.o
                                                  .build/obj_ergodox_ez_sfgabe_80_underglow/lib/lufa/LUFA/Drivers/USB/Core/AVR8/USBInterrupt_AVR8.o
                                                  .build/obj_ergodox_ez_sfgabe_80_underglow/lib/lufa/LUFA/Drivers/USB/Core/AVR8/USBController_AVR8.o
                                                  .build/obj_ergodox_ez_sfgabe_80_underglow/lufa.o
Endpoint_Discard_Stream                           .build/obj_ergodox_ez_sfgabe_80_underglow/lib/lufa/LUFA/Drivers/USB/Core/AVR8/EndpointStream_AVR8.o
Endpoint_Null_Stream                              .build/obj_ergodox_ez_sfgabe_80_underglow/lib/lufa/LUFA/Drivers/USB/Core/AVR8/EndpointStream_AVR8.o
Endpoint_Read_Control_EStream_BE                  .build/obj_ergodox_ez_sfgabe_80_underglow/lib/lufa/LUFA/Drivers/USB/Core/AVR8/EndpointStream_AVR8.o
Endpoint_Read_Control_EStream_LE                  .build/obj_ergodox_ez_sfgabe_80_underglow/lib/lufa/LUFA/Drivers/USB/Core/AVR8/EndpointStream_AVR8.o
Endpoint_Read_Control_Stream_BE                   .build/obj_ergodox_ez_sfgabe_80_underglow/lib/lufa/LUFA/Drivers/USB/Core/AVR8/EndpointStream_AVR8.o
Endpoint_Read_Control_Stream_LE                   .build/obj_ergodox_ez_sfgabe_80_underglow/lib/lufa/LUFA/Drivers/USB/Core/AVR8/EndpointStream_AVR8.o
Endpoint_Read_EStream_BE                          .build/obj_ergodox_ez_sfgabe_80_underglow/lib/lufa/LUFA/Drivers/USB/Core/AVR8/EndpointStream_AVR8.o
Endpoint_Read_EStream_LE                          .build/obj_ergodox_ez_sfgabe_80_underglow/lib/lufa/LUFA/Drivers/USB/Core/AVR8/EndpointStream_AVR8.o
Endpoint_Read_Stream_BE                           .build/obj_ergodox_ez_sfgabe_80_underglow/lib/lufa/LUFA/Drivers/USB/Core/AVR8/EndpointStream_AVR8.o
Endpoint_Read_Stream_LE                           .build/obj_ergodox_ez_sfgabe_80_underglow/lib/lufa/LUFA/Drivers/USB/Core/AVR8/EndpointStream_AVR8.o
Endpoint_WaitUntilReady                           .build/obj_ergodox_ez_sfgabe_80_underglow/lib/lufa/LUFA/Drivers/USB/Core/AVR8/Endpoint_AVR8.o
                                                  .build/obj_ergodox_ez_sfgabe_80_underglow/lib/lufa/LUFA/Drivers/USB/Core/AVR8/EndpointStream_AVR8.o
Endpoint_Write_Control_EStream_BE                 .build/obj_ergodox_ez_sfgabe_80_underglow/lib/lufa/LUFA/Drivers/USB/Core/AVR8/EndpointStream_AVR8.o
Endpoint_Write_Control_EStream_LE                 .build/obj_ergodox_ez_sfgabe_80_underglow/lib/lufa/LUFA/Drivers/USB/Core/AVR8/EndpointStream_AVR8.o
Endpoint_Write_Control_PStream_BE                 .build/obj_ergodox_ez_sfgabe_80_underglow/lib/lufa/LUFA/Drivers/USB/Core/AVR8/EndpointStream_AVR8.o
Endpoint_Write_Control_PStream_LE                 .build/obj_ergodox_ez_sfgabe_80_underglow/lib/lufa/LUFA/Drivers/USB/Core/AVR8/EndpointStream_AVR8.o
                                                  .build/obj_ergodox_ez_sfgabe_80_underglow/lib/lufa/LUFA/Drivers/USB/Core/DeviceStandardReq.o
Endpoint_Write_Control_Stream_BE                  .build/obj_ergodox_ez_sfgabe_80_underglow/lib/lufa/LUFA/Drivers/USB/Core/AVR8/EndpointStream_AVR8.o
Endpoint_Write_Control_Stream_LE                  .build/obj_ergodox_ez_sfgabe_80_underglow/lib/lufa/LUFA/Drivers/USB/Core/AVR8/EndpointStream_AVR8.o
                                                  .build/obj_ergodox_ez_sfgabe_80_underglow/lib/lufa/LUFA/Drivers/USB/Core/DeviceStandardReq.o
                                                  .build/obj_ergodox_ez_sfgabe_80_underglow/lufa.o
Endpoint_Write_EStream_BE                         .build/obj_ergodox_ez_sfgabe_80_underglow/lib/lufa/LUFA/Drivers/USB/Core/AVR8/EndpointStream_AVR8.o
Endpoint_Write_EStream_LE                         .build/obj_ergodox_ez_sfgabe_80_underglow/lib/lufa/LUFA/Drivers/USB/Core/AVR8/EndpointStream_AVR8.o
Endpoint_Write_PStream_BE                         .build/obj_ergodox_ez_sfgabe_80_underglow/lib/lufa/LUFA/Drivers/USB/Core/AVR8/EndpointStream_AVR8.o
Endpoint_Write_PStream_LE                         .build/obj_ergodox_ez_sfgabe_80_underglow/lib/lufa/LUFA/Drivers/USB/Core/AVR8/EndpointStream_AVR8.o
Endpoint_Write_Stream_BE                          .build/obj_ergodox_ez_sfgabe_80_underglow/lib/lufa/LUFA/Drivers/USB/Core/AVR8/EndpointStream_AVR8.o
Endpoint_Write_Stream_LE                          .build/obj_ergodox_ez_sfgabe_80_underglow/lib/lufa/LUFA/Drivers/USB/Core/AVR8/EndpointStream_AVR8.o
                                                  .build/obj_ergodox_ez_sfgabe_80_underglow/lufa.o
KeyboardReport                                    .build/obj_ergodox_ez_sfgabe_80_underglow/usb_descriptor.o
LanguageString                                    .build/obj_ergodox_ez_sfgabe_80_underglow/usb_descriptor.o
ManufacturerString                                .build/obj_ergodox_ez_sfgabe_80_underglow/usb_descriptor.o
ProductString                                     .build/obj_ergodox_ez_sfgabe_80_underglow/usb_descriptor.o
RGBLED_BREATHING_INTERVALS                        .build/obj_ergodox_ez_sfgabe_80_underglow/quantum/rgblight.o
RGBLED_GRADIENT_RANGES                            .build/obj_ergodox_ez_sfgabe_80_underglow/quantum/rgblight.o
RGBLED_KNIGHT_INTERVALS                           .build/obj_ergodox_ez_sfgabe_80_underglow/quantum/rgblight.o
RGBLED_RAINBOW_MOOD_INTERVALS                     .build/obj_ergodox_ez_sfgabe_80_underglow/quantum/rgblight.o
RGBLED_RAINBOW_SWIRL_INTERVALS                    .build/obj_ergodox_ez_sfgabe_80_underglow/quantum/rgblight.o
RGBLED_RGBTEST_INTERVALS                          .build/obj_ergodox_ez_sfgabe_80_underglow/quantum/rgblight.o
RGBLED_SNAKE_INTERVALS                            .build/obj_ergodox_ez_sfgabe_80_underglow/quantum/rgblight.o
RGBLED_TWINKLE_INTERVALS                          .build/obj_ergodox_ez_sfgabe_80_underglow/quantum/rgblight.o
SerialNumberString                                .build/obj_ergodox_ez_sfgabe_80_underglow/usb_descriptor.o
SharedReport                                      .build/obj_ergodox_ez_sfgabe_80_underglow/usb_descriptor.o
USB_ControlRequest                                .build/obj_ergodox_ez_sfgabe_80_underglow/lib/lufa/LUFA/Drivers/USB/Core/USBTask.o
                                                  .build/obj_ergodox_ez_sfgabe_80_underglow/lib/lufa/LUFA/Drivers/USB/Core/DeviceStandardReq.o
                                                  .build/obj_ergodox_ez_sfgabe_80_underglow/lib/lufa/LUFA/Drivers/USB/Core/AVR8/Endpoint_AVR8.o
                                                  .build/obj_ergodox_ez_sfgabe_80_underglow/lib/lufa/LUFA/Drivers/USB/Core/AVR8/EndpointStream_AVR8.o
                                                  .build/obj_ergodox_ez_sfgabe_80_underglow/lufa.o
USB_DeviceState                                   .build/obj_ergodox_ez_sfgabe_80_underglow/lib/lufa/LUFA/Drivers/USB/Core/USBTask.o
                                                  .build/obj_ergodox_ez_sfgabe_80_underglow/lib/lufa/LUFA/Drivers/USB/Core/DeviceStandardReq.o
                                                  .build/obj_ergodox_ez_sfgabe_80_underglow/lib/lufa/LUFA/Drivers/USB/Core/AVR8/USBInterrupt_AVR8.o
                                                  .build/obj_ergodox_ez_sfgabe_80_underglow/lib/lufa/LUFA/Drivers/USB/Core/AVR8/USBController_AVR8.o
                                                  .build/obj_ergodox_ez_sfgabe_80_underglow/lib/lufa/LUFA/Drivers/USB/Core/AVR8/Endpoint_AVR8.o
                                                  .build/obj_ergodox_ez_sfgabe_80_underglow/lib/lufa/LUFA/Drivers/USB/Core/AVR8/EndpointStream_AVR8.o
                                                  .build/obj_ergodox_ez_sfgabe_80_underglow/lufa.o
                                                  .build/obj_ergodox_ez_sfgabe_80_underglow/common/avr/suspend.o
USB_Device_ConfigurationNumber                    .build/obj_ergodox_ez_sfgabe_80_underglow/lib/lufa/LUFA/Drivers/USB/Core/DeviceStandardReq.o
                                                  .build/obj_ergodox_ez_sfgabe_80_underglow/lib/lufa/LUFA/Drivers/USB/Core/AVR8/USBInterrupt_AVR8.o
                                                  .build/obj_ergodox_ez_sfgabe_80_underglow/lib/lufa/LUFA/Drivers/USB/Core/AVR8/USBController_AVR8.o
USB_Device_CurrentlySelfPowered                   .build/obj_ergodox_ez_sfgabe_80_underglow/lib/lufa/LUFA/Drivers/USB/Core/DeviceStandardReq.o
                                                  .build/obj_ergodox_ez_sfgabe_80_underglow/lib/lufa/LUFA/Drivers/USB/Core/AVR8/USBController_AVR8.o
USB_Device_ProcessControlRequest                  .build/obj_ergodox_ez_sfgabe_80_underglow/lib/lufa/LUFA/Drivers/USB/Core/DeviceStandardReq.o
                                                  .build/obj_ergodox_ez_sfgabe_80_underglow/lib/lufa/LUFA/Drivers/USB/Core/USBTask.o
                                                  .build/obj_ergodox_ez_sfgabe_80_underglow/lib/lufa/LUFA/Drivers/USB/Core/AVR8/USBInterrupt_AVR8.o
USB_Device_RemoteWakeupEnabled                    .build/obj_ergodox_ez_sfgabe_80_underglow/lib/lufa/LUFA/Drivers/USB/Core/DeviceStandardReq.o
                                                  .build/obj_ergodox_ez_sfgabe_80_underglow/lib/lufa/LUFA/Drivers/USB/Core/AVR8/USBController_AVR8.o
                                                  .build/obj_ergodox_ez_sfgabe_80_underglow/lufa.o
USB_Device_SendRemoteWakeup                       .build/obj_ergodox_ez_sfgabe_80_underglow/lib/lufa/LUFA/Drivers/USB/Core/AVR8/Device_AVR8.o
                                                  .build/obj_ergodox_ez_sfgabe_80_underglow/lufa.o
USB_Disable                                       .build/obj_ergodox_ez_sfgabe_80_underglow/lib/lufa/LUFA/Drivers/USB/Core/AVR8/USBController_AVR8.o
                                                  .build/obj_ergodox_ez_sfgabe_80_underglow/lufa.o
USB_Event_Stub                                    .build/obj_ergodox_ez_sfgabe_80_underglow/lib/lufa/LUFA/Drivers/USB/Core/Events.o
USB_Event_Stub_2                                  .build/obj_ergodox_ez_sfgabe_80_underglow/lib/lufa/LUFA/Drivers/USB/Core/Events.o
USB_Event_Stub_3                                  .build/obj_ergodox_ez_sfgabe_80_underglow/lib/lufa/LUFA/Drivers/USB/Core/Events.o
USB_GetHIDReportItemInfo                          .build/obj_ergodox_ez_sfgabe_80_underglow/lib/lufa/LUFA/Drivers/USB/Class/Common/HIDParser.o
USB_GetHIDReportSize                              .build/obj_ergodox_ez_sfgabe_80_underglow/lib/lufa/LUFA/Drivers/USB/Class/Common/HIDParser.o
USB_GetNextDescriptorComp                         .build/obj_ergodox_ez_sfgabe_80_underglow/lib/lufa/LUFA/Drivers/USB/Core/ConfigDescriptors.o
USB_GetNextDescriptorOfType                       .build/obj_ergodox_ez_sfgabe_80_underglow/lib/lufa/LUFA/Drivers/USB/Core/ConfigDescriptors.o
USB_GetNextDescriptorOfTypeAfter                  .build/obj_ergodox_ez_sfgabe_80_underglow/lib/lufa/LUFA/Drivers/USB/Core/ConfigDescriptors.o
USB_GetNextDescriptorOfTypeBefore                 .build/obj_ergodox_ez_sfgabe_80_underglow/lib/lufa/LUFA/Drivers/USB/Core/ConfigDescriptors.o
USB_INT_ClearAllInterrupts                        .build/obj_ergodox_ez_sfgabe_80_underglow/lib/lufa/LUFA/Drivers/USB/Core/AVR8/USBInterrupt_AVR8.o
                                                  .build/obj_ergodox_ez_sfgabe_80_underglow/lib/lufa/LUFA/Drivers/USB/Core/AVR8/USBController_AVR8.o
USB_INT_DisableAllInterrupts                      .build/obj_ergodox_ez_sfgabe_80_underglow/lib/lufa/LUFA/Drivers/USB/Core/AVR8/USBInterrupt_AVR8.o
                                                  .build/obj_ergodox_ez_sfgabe_80_underglow/lib/lufa/LUFA/Drivers/USB/Core/AVR8/USBController_AVR8.o
USB_Init                                          .build/obj_ergodox_ez_sfgabe_80_underglow/lib/lufa/LUFA/Drivers/USB/Core/AVR8/USBController_AVR8.o
                                                  .build/obj_ergodox_ez_sfgabe_80_underglow/lufa.o
USB_IsInitialized                                 .build/obj_ergodox_ez_sfgabe_80_underglow/lib/lufa/LUFA/Drivers/USB/Core/USBTask.o
                                                  .build/obj_ergodox_ez_sfgabe_80_underglow/lib/lufa/LUFA/Drivers/USB/Core/AVR8/USBController_AVR8.o
                                                  .build/obj_ergodox_ez_sfgabe_80_underglow/lufa.o
USB_ProcessHIDReport                              .build/obj_ergodox_ez_sfgabe_80_underglow/lib/lufa/LUFA/Drivers/USB/Class/Common/HIDParser.o
USB_ResetInterface                                .build/obj_ergodox_ez_sfgabe_80_underglow/lib/lufa/LUFA/Drivers/USB/Core/AVR8/USBController_AVR8.o
USB_SetHIDReportItemInfo                          .build/obj_ergodox_ez_sfgabe_80_underglow/lib/lufa/LUFA/Drivers/USB/Class/Common/HIDParser.o
USB_USBTask                                       .build/obj_ergodox_ez_sfgabe_80_underglow/lib/lufa/LUFA/Drivers/USB/Core/USBTask.o
                                                  .build/obj_ergodox_ez_sfgabe_80_underglow/lufa.o
__bad_interrupt                                   /usr/local/Cellar/avr-gcc@8/8.4.0/lib/avr-gcc/8/gcc/avr/8.4.0/../../../../../../avr/lib/avr5/crtatmega32u4.o
__brkval                                          /usr/local/Cellar/avr-gcc@8/8.4.0/lib/avr-gcc/8/gcc/avr/8.4.0/../../../../../../avr/lib/avr5/libc.a(malloc.o)
__bss_end                                         /usr/local/Cellar/avr-gcc@8/8.4.0/lib/avr-gcc/8/gcc/avr/8.4.0/avr5/libgcc.a(_clear_bss.o)
__bss_start                                       /usr/local/Cellar/avr-gcc@8/8.4.0/lib/avr-gcc/8/gcc/avr/8.4.0/avr5/libgcc.a(_clear_bss.o)
__data_end                                        /usr/local/Cellar/avr-gcc@8/8.4.0/lib/avr-gcc/8/gcc/avr/8.4.0/avr5/libgcc.a(_copy_data.o)
__data_load_start                                 /usr/local/Cellar/avr-gcc@8/8.4.0/lib/avr-gcc/8/gcc/avr/8.4.0/avr5/libgcc.a(_copy_data.o)
__data_start                                      /usr/local/Cellar/avr-gcc@8/8.4.0/lib/avr-gcc/8/gcc/avr/8.4.0/avr5/libgcc.a(_copy_data.o)
__divmodhi4                                       /usr/local/Cellar/avr-gcc@8/8.4.0/lib/avr-gcc/8/gcc/avr/8.4.0/avr5/libgcc.a(_divmodhi4.o)
                                                  .build/obj_ergodox_ez_sfgabe_80_underglow/common/mousekey.o
                                                  .build/obj_ergodox_ez_sfgabe_80_underglow/quantum/rgblight.o
__divmodqi4                                       /usr/local/Cellar/avr-gcc@8/8.4.0/lib/avr-gcc/8/gcc/avr/8.4.0/avr5/libgcc.a(_divmodqi4.o)
                                                  .build/obj_ergodox_ez_sfgabe_80_underglow/quantum/rgblight.o
__divmodsi4                                       /usr/local/Cellar/avr-gcc@8/8.4.0/lib/avr-gcc/8/gcc/avr/8.4.0/avr5/libgcc.a(_divmodsi4.o)
                                                  /usr/local/Cellar/avr-gcc@8/8.4.0/lib/avr-gcc/8/gcc/avr/8.4.0/../../../../../../avr/lib/avr5/libc.a(rand.o)
__do_clear_bss                                    /usr/local/Cellar/avr-gcc@8/8.4.0/lib/avr-gcc/8/gcc/avr/8.4.0/avr5/libgcc.a(_clear_bss.o)
                                                  /usr/local/Cellar/avr-gcc@8/8.4.0/lib/avr-gcc/8/gcc/avr/8.4.0/../../../../../../avr/lib/avr5/libc.a(malloc.o)
                                                  .build/obj_ergodox_ez_sfgabe_80_underglow/lib/lufa/LUFA/Drivers/USB/Core/USBTask.o
                                                  .build/obj_ergodox_ez_sfgabe_80_underglow/lib/lufa/LUFA/Drivers/USB/Core/DeviceStandardReq.o
                                                  .build/obj_ergodox_ez_sfgabe_80_underglow/lufa.o
                                                  .build/obj_ergodox_ez_sfgabe_80_underglow/common/command.o
                                                  .build/obj_ergodox_ez_sfgabe_80_underglow/common/mousekey.o
                                                  .build/obj_ergodox_ez_sfgabe_80_underglow/common/magic.o
                                                  .build/obj_ergodox_ez_sfgabe_80_underglow/common/avr/timer.o
                                                  .build/obj_ergodox_ez_sfgabe_80_underglow/common/avr/suspend.o
                                                  .build/obj_ergodox_ez_sfgabe_80_underglow/common/debug.o
                                                  .build/obj_ergodox_ez_sfgabe_80_underglow/common/action_util.o
                                                  .build/obj_ergodox_ez_sfgabe_80_underglow/common/action_layer.o
                                                  .build/obj_ergodox_ez_sfgabe_80_underglow/common/action_tapping.o
                                                  .build/obj_ergodox_ez_sfgabe_80_underglow/common/action.o
                                                  .build/obj_ergodox_ez_sfgabe_80_underglow/common/keyboard.o
                                                  .build/obj_ergodox_ez_sfgabe_80_underglow/common/host.o
                                                  .build/obj_ergodox_ez_sfgabe_80_underglow/quantum/process_keycode/process_auto_shift.o
                                                  .build/obj_ergodox_ez_sfgabe_80_underglow/quantum/process_keycode/process_grave_esc.o
                                                  .build/obj_ergodox_ez_sfgabe_80_underglow/quantum/process_keycode/process_space_cadet.o
                                                  .build/obj_ergodox_ez_sfgabe_80_underglow/quantum/process_keycode/process_unicode_common.o
                                                  .build/obj_ergodox_ez_sfgabe_80_underglow/quantum/encoder.o
                                                  .build/obj_ergodox_ez_sfgabe_80_underglow/quantum/rgblight.o
                                                  .build/obj_ergodox_ez_sfgabe_80_underglow/quantum/debounce/sym_eager_pr.o
                                                  .build/obj_ergodox_ez_sfgabe_80_underglow/quantum/matrix_common.o
                                                  .build/obj_ergodox_ez_sfgabe_80_underglow/keyboards/ergodox_ez/ergodox_ez.o
                                                  .build/obj_ergodox_ez_sfgabe_80_underglow/matrix.o
__do_copy_data                                    /usr/local/Cellar/avr-gcc@8/8.4.0/lib/avr-gcc/8/gcc/avr/8.4.0/avr5/libgcc.a(_copy_data.o)
                                                  /usr/local/Cellar/avr-gcc@8/8.4.0/lib/avr-gcc/8/gcc/avr/8.4.0/../../../../../../avr/lib/avr5/libc.a(rand.o)
                                                  /usr/local/Cellar/avr-gcc@8/8.4.0/lib/avr-gcc/8/gcc/avr/8.4.0/../../../../../../avr/lib/avr5/libc.a(malloc.o)
                                                  .build/obj_ergodox_ez_sfgabe_80_underglow/lufa.o
                                                  .build/obj_ergodox_ez_sfgabe_80_underglow/common/command.o
                                                  .build/obj_ergodox_ez_sfgabe_80_underglow/common/mousekey.o
                                                  .build/obj_ergodox_ez_sfgabe_80_underglow/common/action_util.o
                                                  .build/obj_ergodox_ez_sfgabe_80_underglow/common/action.o
                                                  .build/obj_ergodox_ez_sfgabe_80_underglow/quantum/process_keycode/process_auto_shift.o
                                                  .build/obj_ergodox_ez_sfgabe_80_underglow/quantum/process_keycode/process_unicode_common.o
                                                  .build/obj_ergodox_ez_sfgabe_80_underglow/quantum/encoder.o
                                                  .build/obj_ergodox_ez_sfgabe_80_underglow/quantum/rgblight.o
                                                  .build/obj_ergodox_ez_sfgabe_80_underglow/quantum/keymap_common.o
                                                  .build/obj_ergodox_ez_sfgabe_80_underglow/keyboards/ergodox_ez/ergodox_ez.o
__epilogue_restores__                             /usr/local/Cellar/avr-gcc@8/8.4.0/lib/avr-gcc/8/gcc/avr/8.4.0/avr5/libgcc.a(_epilogue.o)
                                                  /usr/local/Cellar/avr-gcc@8/8.4.0/lib/avr-gcc/8/gcc/avr/8.4.0/../../../../../../avr/lib/avr5/libc.a(vfprintf_std.o)
                                                  /usr/local/Cellar/avr-gcc@8/8.4.0/lib/avr-gcc/8/gcc/avr/8.4.0/../../../../../../avr/lib/avr5/libc.a(snprintf.o)
__flp                                             /usr/local/Cellar/avr-gcc@8/8.4.0/lib/avr-gcc/8/gcc/avr/8.4.0/../../../../../../avr/lib/avr5/libc.a(malloc.o)
__heap_end                                        /usr/local/Cellar/avr-gcc@8/8.4.0/lib/avr-gcc/8/gcc/avr/8.4.0/../../../../../../avr/lib/avr5/crtatmega32u4.o
                                                  /usr/local/Cellar/avr-gcc@8/8.4.0/lib/avr-gcc/8/gcc/avr/8.4.0/../../../../../../avr/lib/avr5/libc.a(malloc.o)
__heap_start                                      /usr/local/Cellar/avr-gcc@8/8.4.0/lib/avr-gcc/8/gcc/avr/8.4.0/../../../../../../avr/lib/avr5/libc.a(malloc.o)
__init                                            /usr/local/Cellar/avr-gcc@8/8.4.0/lib/avr-gcc/8/gcc/avr/8.4.0/../../../../../../avr/lib/avr5/crtatmega32u4.o
__malloc_heap_end                                 /usr/local/Cellar/avr-gcc@8/8.4.0/lib/avr-gcc/8/gcc/avr/8.4.0/../../../../../../avr/lib/avr5/libc.a(malloc.o)
__malloc_heap_start                               /usr/local/Cellar/avr-gcc@8/8.4.0/lib/avr-gcc/8/gcc/avr/8.4.0/../../../../../../avr/lib/avr5/libc.a(malloc.o)
__malloc_margin                                   /usr/local/Cellar/avr-gcc@8/8.4.0/lib/avr-gcc/8/gcc/avr/8.4.0/../../../../../../avr/lib/avr5/libc.a(malloc.o)
__mulhisi3                                        /usr/local/Cellar/avr-gcc@8/8.4.0/lib/avr-gcc/8/gcc/avr/8.4.0/avr5/libgcc.a(_mulhisi3.o)
                                                  .build/obj_ergodox_ez_sfgabe_80_underglow/quantum/rgblight.o
__mulohisi3                                       /usr/local/Cellar/avr-gcc@8/8.4.0/lib/avr-gcc/8/gcc/avr/8.4.0/avr5/libgcc.a(_mulshisi3.o)
                                                  /usr/local/Cellar/avr-gcc@8/8.4.0/lib/avr-gcc/8/gcc/avr/8.4.0/../../../../../../avr/lib/avr5/libc.a(rand.o)
__mulshisi3                                       /usr/local/Cellar/avr-gcc@8/8.4.0/lib/avr-gcc/8/gcc/avr/8.4.0/avr5/libgcc.a(_mulshisi3.o)
                                                  .build/obj_ergodox_ez_sfgabe_80_underglow/quantum/rgblight.o
__muluhisi3                                       /usr/local/Cellar/avr-gcc@8/8.4.0/lib/avr-gcc/8/gcc/avr/8.4.0/avr5/libgcc.a(_muluhisi3.o)
                                                  /usr/local/Cellar/avr-gcc@8/8.4.0/lib/avr-gcc/8/gcc/avr/8.4.0/../../../../../../avr/lib/avr5/libc.a(rand.o)
                                                  /usr/local/Cellar/avr-gcc@8/8.4.0/lib/avr-gcc/8/gcc/avr/8.4.0/avr5/libgcc.a(_mulshisi3.o)
                                                  .build/obj_ergodox_ez_sfgabe_80_underglow/quantum/rgblight.o
__negsi2                                          /usr/local/Cellar/avr-gcc@8/8.4.0/lib/avr-gcc/8/gcc/avr/8.4.0/avr5/libgcc.a(_negsi2.o)
                                                  /usr/local/Cellar/avr-gcc@8/8.4.0/lib/avr-gcc/8/gcc/avr/8.4.0/avr5/libgcc.a(_divmodsi4.o)
__prologue_saves__                                /usr/local/Cellar/avr-gcc@8/8.4.0/lib/avr-gcc/8/gcc/avr/8.4.0/avr5/libgcc.a(_prologue.o)
                                                  /usr/local/Cellar/avr-gcc@8/8.4.0/lib/avr-gcc/8/gcc/avr/8.4.0/../../../../../../avr/lib/avr5/libc.a(vfprintf_std.o)
                                                  /usr/local/Cellar/avr-gcc@8/8.4.0/lib/avr-gcc/8/gcc/avr/8.4.0/../../../../../../avr/lib/avr5/libc.a(snprintf.o)
__stack                                           /usr/local/Cellar/avr-gcc@8/8.4.0/lib/avr-gcc/8/gcc/avr/8.4.0/../../../../../../avr/lib/avr5/crtatmega32u4.o
__tablejump2__                                    /usr/local/Cellar/avr-gcc@8/8.4.0/lib/avr-gcc/8/gcc/avr/8.4.0/avr5/libgcc.a(_tablejump2.o)
                                                  .build/obj_ergodox_ez_sfgabe_80_underglow/lib/lufa/LUFA/Drivers/USB/Core/DeviceStandardReq.o
                                                  .build/obj_ergodox_ez_sfgabe_80_underglow/common/command.o
                                                  .build/obj_ergodox_ez_sfgabe_80_underglow/common/action.o
                                                  .build/obj_ergodox_ez_sfgabe_80_underglow/quantum/process_keycode/process_rgb.o
__udivmodhi4                                      /usr/local/Cellar/avr-gcc@8/8.4.0/lib/avr-gcc/8/gcc/avr/8.4.0/avr5/libgcc.a(_udivmodhi4.o)
                                                  /usr/local/Cellar/avr-gcc@8/8.4.0/lib/avr-gcc/8/gcc/avr/8.4.0/avr5/libgcc.a(_divmodhi4.o)
                                                  .build/obj_ergodox_ez_sfgabe_80_underglow/quantum/rgblight.o
                                                  .build/obj_ergodox_ez_sfgabe_80_underglow/quantum/color.o
                                                  .build/obj_ergodox_ez_sfgabe_80_underglow/quantum/debounce/sym_eager_pr.o
__udivmodqi4                                      /usr/local/Cellar/avr-gcc@8/8.4.0/lib/avr-gcc/8/gcc/avr/8.4.0/avr5/libgcc.a(_udivmodqi4.o)
                                                  /usr/local/Cellar/avr-gcc@8/8.4.0/lib/avr-gcc/8/gcc/avr/8.4.0/avr5/libgcc.a(_divmodqi4.o)
                                                  .build/obj_ergodox_ez_sfgabe_80_underglow/quantum/rgblight.o
__udivmodsi4                                      /usr/local/Cellar/avr-gcc@8/8.4.0/lib/avr-gcc/8/gcc/avr/8.4.0/avr5/libgcc.a(_udivmodsi4.o)
                                                  /usr/local/Cellar/avr-gcc@8/8.4.0/lib/avr-gcc/8/gcc/avr/8.4.0/avr5/libgcc.a(_divmodsi4.o)
                                                  .build/obj_ergodox_ez_sfgabe_80_underglow/quantum/rgblight.o
__ultoa_invert                                    /usr/local/Cellar/avr-gcc@8/8.4.0/lib/avr-gcc/8/gcc/avr/8.4.0/../../../../../../avr/lib/avr5/libc.a(ultoa_invert.o)
                                                  /usr/local/Cellar/avr-gcc@8/8.4.0/lib/avr-gcc/8/gcc/avr/8.4.0/../../../../../../avr/lib/avr5/libc.a(vfprintf_std.o)
__umulhisi3                                       /usr/local/Cellar/avr-gcc@8/8.4.0/lib/avr-gcc/8/gcc/avr/8.4.0/avr5/libgcc.a(_umulhisi3.o)
                                                  /usr/local/Cellar/avr-gcc@8/8.4.0/lib/avr-gcc/8/gcc/avr/8.4.0/avr5/libgcc.a(_muluhisi3.o)
                                                  /usr/local/Cellar/avr-gcc@8/8.4.0/lib/avr-gcc/8/gcc/avr/8.4.0/avr5/libgcc.a(_usmulhisi3.o)
                                                  /usr/local/Cellar/avr-gcc@8/8.4.0/lib/avr-gcc/8/gcc/avr/8.4.0/avr5/libgcc.a(_mulhisi3.o)
                                                  .build/obj_ergodox_ez_sfgabe_80_underglow/quantum/rgblight.o
__usmulhisi3                                      /usr/local/Cellar/avr-gcc@8/8.4.0/lib/avr-gcc/8/gcc/avr/8.4.0/avr5/libgcc.a(_usmulhisi3.o)
__usmulhisi3_tail                                 /usr/local/Cellar/avr-gcc@8/8.4.0/lib/avr-gcc/8/gcc/avr/8.4.0/avr5/libgcc.a(_usmulhisi3.o)
                                                  /usr/local/Cellar/avr-gcc@8/8.4.0/lib/avr-gcc/8/gcc/avr/8.4.0/avr5/libgcc.a(_mulhisi3.o)
__vector_1                                        /usr/local/Cellar/avr-gcc@8/8.4.0/lib/avr-gcc/8/gcc/avr/8.4.0/../../../../../../avr/lib/avr5/crtatmega32u4.o
__vector_10                                       .build/obj_ergodox_ez_sfgabe_80_underglow/lib/lufa/LUFA/Drivers/USB/Core/AVR8/USBInterrupt_AVR8.o
                                                  /usr/local/Cellar/avr-gcc@8/8.4.0/lib/avr-gcc/8/gcc/avr/8.4.0/../../../../../../avr/lib/avr5/crtatmega32u4.o
__vector_11                                       .build/obj_ergodox_ez_sfgabe_80_underglow/lib/lufa/LUFA/Drivers/USB/Core/AVR8/USBInterrupt_AVR8.o
                                                  /usr/local/Cellar/avr-gcc@8/8.4.0/lib/avr-gcc/8/gcc/avr/8.4.0/../../../../../../avr/lib/avr5/crtatmega32u4.o
__vector_12                                       .build/obj_ergodox_ez_sfgabe_80_underglow/common/avr/suspend.o
                                                  /usr/local/Cellar/avr-gcc@8/8.4.0/lib/avr-gcc/8/gcc/avr/8.4.0/../../../../../../avr/lib/avr5/crtatmega32u4.o
__vector_13                                       /usr/local/Cellar/avr-gcc@8/8.4.0/lib/avr-gcc/8/gcc/avr/8.4.0/../../../../../../avr/lib/avr5/crtatmega32u4.o
__vector_14                                       /usr/local/Cellar/avr-gcc@8/8.4.0/lib/avr-gcc/8/gcc/avr/8.4.0/../../../../../../avr/lib/avr5/crtatmega32u4.o
__vector_15                                       /usr/local/Cellar/avr-gcc@8/8.4.0/lib/avr-gcc/8/gcc/avr/8.4.0/../../../../../../avr/lib/avr5/crtatmega32u4.o
__vector_16                                       /usr/local/Cellar/avr-gcc@8/8.4.0/lib/avr-gcc/8/gcc/avr/8.4.0/../../../../../../avr/lib/avr5/crtatmega32u4.o
__vector_17                                       /usr/local/Cellar/avr-gcc@8/8.4.0/lib/avr-gcc/8/gcc/avr/8.4.0/../../../../../../avr/lib/avr5/crtatmega32u4.o
__vector_18                                       /usr/local/Cellar/avr-gcc@8/8.4.0/lib/avr-gcc/8/gcc/avr/8.4.0/../../../../../../avr/lib/avr5/crtatmega32u4.o
__vector_19                                       /usr/local/Cellar/avr-gcc@8/8.4.0/lib/avr-gcc/8/gcc/avr/8.4.0/../../../../../../avr/lib/avr5/crtatmega32u4.o
__vector_2                                        /usr/local/Cellar/avr-gcc@8/8.4.0/lib/avr-gcc/8/gcc/avr/8.4.0/../../../../../../avr/lib/avr5/crtatmega32u4.o
__vector_20                                       /usr/local/Cellar/avr-gcc@8/8.4.0/lib/avr-gcc/8/gcc/avr/8.4.0/../../../../../../avr/lib/avr5/crtatmega32u4.o
__vector_21                                       .build/obj_ergodox_ez_sfgabe_80_underglow/common/avr/timer.o
                                                  /usr/local/Cellar/avr-gcc@8/8.4.0/lib/avr-gcc/8/gcc/avr/8.4.0/../../../../../../avr/lib/avr5/crtatmega32u4.o
__vector_22                                       /usr/local/Cellar/avr-gcc@8/8.4.0/lib/avr-gcc/8/gcc/avr/8.4.0/../../../../../../avr/lib/avr5/crtatmega32u4.o
__vector_23                                       /usr/local/Cellar/avr-gcc@8/8.4.0/lib/avr-gcc/8/gcc/avr/8.4.0/../../../../../../avr/lib/avr5/crtatmega32u4.o
__vector_24                                       /usr/local/Cellar/avr-gcc@8/8.4.0/lib/avr-gcc/8/gcc/avr/8.4.0/../../../../../../avr/lib/avr5/crtatmega32u4.o
__vector_25                                       /usr/local/Cellar/avr-gcc@8/8.4.0/lib/avr-gcc/8/gcc/avr/8.4.0/../../../../../../avr/lib/avr5/crtatmega32u4.o
__vector_26                                       /usr/local/Cellar/avr-gcc@8/8.4.0/lib/avr-gcc/8/gcc/avr/8.4.0/../../../../../../avr/lib/avr5/crtatmega32u4.o
__vector_27                                       /usr/local/Cellar/avr-gcc@8/8.4.0/lib/avr-gcc/8/gcc/avr/8.4.0/../../../../../../avr/lib/avr5/crtatmega32u4.o
__vector_28                                       /usr/local/Cellar/avr-gcc@8/8.4.0/lib/avr-gcc/8/gcc/avr/8.4.0/../../../../../../avr/lib/avr5/crtatmega32u4.o
__vector_29                                       /usr/local/Cellar/avr-gcc@8/8.4.0/lib/avr-gcc/8/gcc/avr/8.4.0/../../../../../../avr/lib/avr5/crtatmega32u4.o
__vector_3                                        /usr/local/Cellar/avr-gcc@8/8.4.0/lib/avr-gcc/8/gcc/avr/8.4.0/../../../../../../avr/lib/avr5/crtatmega32u4.o
__vector_30                                       /usr/local/Cellar/avr-gcc@8/8.4.0/lib/avr-gcc/8/gcc/avr/8.4.0/../../../../../../avr/lib/avr5/crtatmega32u4.o
__vector_31                                       /usr/local/Cellar/avr-gcc@8/8.4.0/lib/avr-gcc/8/gcc/avr/8.4.0/../../../../../../avr/lib/avr5/crtatmega32u4.o
__vector_32                                       /usr/local/Cellar/avr-gcc@8/8.4.0/lib/avr-gcc/8/gcc/avr/8.4.0/../../../../../../avr/lib/avr5/crtatmega32u4.o
__vector_33                                       /usr/local/Cellar/avr-gcc@8/8.4.0/lib/avr-gcc/8/gcc/avr/8.4.0/../../../../../../avr/lib/avr5/crtatmega32u4.o
__vector_34                                       /usr/local/Cellar/avr-gcc@8/8.4.0/lib/avr-gcc/8/gcc/avr/8.4.0/../../../../../../avr/lib/avr5/crtatmega32u4.o
__vector_35                                       /usr/local/Cellar/avr-gcc@8/8.4.0/lib/avr-gcc/8/gcc/avr/8.4.0/../../../../../../avr/lib/avr5/crtatmega32u4.o
__vector_36                                       /usr/local/Cellar/avr-gcc@8/8.4.0/lib/avr-gcc/8/gcc/avr/8.4.0/../../../../../../avr/lib/avr5/crtatmega32u4.o
__vector_37                                       /usr/local/Cellar/avr-gcc@8/8.4.0/lib/avr-gcc/8/gcc/avr/8.4.0/../../../../../../avr/lib/avr5/crtatmega32u4.o
__vector_38                                       /usr/local/Cellar/avr-gcc@8/8.4.0/lib/avr-gcc/8/gcc/avr/8.4.0/../../../../../../avr/lib/avr5/crtatmega32u4.o
__vector_39                                       /usr/local/Cellar/avr-gcc@8/8.4.0/lib/avr-gcc/8/gcc/avr/8.4.0/../../../../../../avr/lib/avr5/crtatmega32u4.o
__vector_4                                        /usr/local/Cellar/avr-gcc@8/8.4.0/lib/avr-gcc/8/gcc/avr/8.4.0/../../../../../../avr/lib/avr5/crtatmega32u4.o
__vector_40                                       /usr/local/Cellar/avr-gcc@8/8.4.0/lib/avr-gcc/8/gcc/avr/8.4.0/../../../../../../avr/lib/avr5/crtatmega32u4.o
__vector_41                                       /usr/local/Cellar/avr-gcc@8/8.4.0/lib/avr-gcc/8/gcc/avr/8.4.0/../../../../../../avr/lib/avr5/crtatmega32u4.o
__vector_42                                       /usr/local/Cellar/avr-gcc@8/8.4.0/lib/avr-gcc/8/gcc/avr/8.4.0/../../../../../../avr/lib/avr5/crtatmega32u4.o
__vector_5                                        /usr/local/Cellar/avr-gcc@8/8.4.0/lib/avr-gcc/8/gcc/avr/8.4.0/../../../../../../avr/lib/avr5/crtatmega32u4.o
__vector_6                                        /usr/local/Cellar/avr-gcc@8/8.4.0/lib/avr-gcc/8/gcc/avr/8.4.0/../../../../../../avr/lib/avr5/crtatmega32u4.o
__vector_7                                        /usr/local/Cellar/avr-gcc@8/8.4.0/lib/avr-gcc/8/gcc/avr/8.4.0/../../../../../../avr/lib/avr5/crtatmega32u4.o
__vector_8                                        /usr/local/Cellar/avr-gcc@8/8.4.0/lib/avr-gcc/8/gcc/avr/8.4.0/../../../../../../avr/lib/avr5/crtatmega32u4.o
__vector_9                                        /usr/local/Cellar/avr-gcc@8/8.4.0/lib/avr-gcc/8/gcc/avr/8.4.0/../../../../../../avr/lib/avr5/crtatmega32u4.o
__vector_default                                  /usr/local/Cellar/avr-gcc@8/8.4.0/lib/avr-gcc/8/gcc/avr/8.4.0/../../../../../../avr/lib/avr5/crtatmega32u4.o
__vectors                                         /usr/local/Cellar/avr-gcc@8/8.4.0/lib/avr-gcc/8/gcc/avr/8.4.0/../../../../../../avr/lib/avr5/crtatmega32u4.o
__xprintf                                         .build/obj_ergodox_ez_sfgabe_80_underglow/common/avr/xprintf.o
_div                                              /usr/local/Cellar/avr-gcc@8/8.4.0/lib/avr-gcc/8/gcc/avr/8.4.0/avr5/libgcc.a(_divmodhi4.o)
_exit                                             /usr/local/Cellar/avr-gcc@8/8.4.0/lib/avr-gcc/8/gcc/avr/8.4.0/avr5/libgcc.a(_exit.o)
action_exec                                       .build/obj_ergodox_ez_sfgabe_80_underglow/common/action.o
                                                  .build/obj_ergodox_ez_sfgabe_80_underglow/common/keyboard.o
action_for_key                                    .build/obj_ergodox_ez_sfgabe_80_underglow/quantum/keymap_common.o
                                                  .build/obj_ergodox_ez_sfgabe_80_underglow/common/action_layer.o
action_function                                   .build/obj_ergodox_ez_sfgabe_80_underglow/quantum/keymap_common.o
action_get_macro                                  .build/obj_ergodox_ez_sfgabe_80_underglow/quantum/keymap_common.o
action_tapping_process                            .build/obj_ergodox_ez_sfgabe_80_underglow/common/action_tapping.o
                                                  .build/obj_ergodox_ez_sfgabe_80_underglow/common/action.o
add_key                                           .build/obj_ergodox_ez_sfgabe_80_underglow/common/action_util.o
                                                  .build/obj_ergodox_ez_sfgabe_80_underglow/common/action.o
                                                  .build/obj_ergodox_ez_sfgabe_80_underglow/quantum/process_keycode/process_grave_esc.o
add_key_bit                                       .build/obj_ergodox_ez_sfgabe_80_underglow/common/report.o
add_key_byte                                      .build/obj_ergodox_ez_sfgabe_80_underglow/common/report.o
add_key_to_report                                 .build/obj_ergodox_ez_sfgabe_80_underglow/common/report.o
                                                  .build/obj_ergodox_ez_sfgabe_80_underglow/common/action_util.o
add_macro_mods                                    .build/obj_ergodox_ez_sfgabe_80_underglow/common/action_util.o
add_mods                                          .build/obj_ergodox_ez_sfgabe_80_underglow/common/action_util.o
                                                  .build/obj_ergodox_ez_sfgabe_80_underglow/common/action.o
add_weak_mods                                     .build/obj_ergodox_ez_sfgabe_80_underglow/common/action_util.o
                                                  .build/obj_ergodox_ez_sfgabe_80_underglow/common/action.o
animation_status                                  .build/obj_ergodox_ez_sfgabe_80_underglow/quantum/rgblight.o
api_send_unicode                                  .build/obj_ergodox_ez_sfgabe_80_underglow/quantum/quantum.o
ascii_to_altgr_lut                                .build/obj_ergodox_ez_sfgabe_80_underglow/quantum/quantum.o
ascii_to_keycode_lut                              .build/obj_ergodox_ez_sfgabe_80_underglow/quantum/quantum.o
ascii_to_shift_lut                                .build/obj_ergodox_ez_sfgabe_80_underglow/quantum/quantum.o
autoshift_disable                                 .build/obj_ergodox_ez_sfgabe_80_underglow/quantum/process_keycode/process_auto_shift.o
autoshift_enable                                  .build/obj_ergodox_ez_sfgabe_80_underglow/quantum/process_keycode/process_auto_shift.o
autoshift_flush                                   .build/obj_ergodox_ez_sfgabe_80_underglow/quantum/process_keycode/process_auto_shift.o
autoshift_on                                      .build/obj_ergodox_ez_sfgabe_80_underglow/quantum/process_keycode/process_auto_shift.o
autoshift_timer_report                            .build/obj_ergodox_ez_sfgabe_80_underglow/quantum/process_keycode/process_auto_shift.o
autoshift_toggle                                  .build/obj_ergodox_ez_sfgabe_80_underglow/quantum/process_keycode/process_auto_shift.o
biton                                             .build/obj_ergodox_ez_sfgabe_80_underglow/common/util.o
                                                  .build/obj_ergodox_ez_sfgabe_80_underglow/common/report.o
biton16                                           .build/obj_ergodox_ez_sfgabe_80_underglow/common/util.o
biton32                                           .build/obj_ergodox_ez_sfgabe_80_underglow/common/util.o
                                                  .build/obj_ergodox_ez_sfgabe_80_underglow/keyboards/ergodox_ez/keymaps/sfgabe_80_underglow/keymap.o
bitpop                                            .build/obj_ergodox_ez_sfgabe_80_underglow/common/util.o
                                                  .build/obj_ergodox_ez_sfgabe_80_underglow/common/action_util.o
                                                  .build/obj_ergodox_ez_sfgabe_80_underglow/quantum/matrix_common.o
bitpop16                                          .build/obj_ergodox_ez_sfgabe_80_underglow/common/util.o
bitpop32                                          .build/obj_ergodox_ez_sfgabe_80_underglow/common/util.o
bitrev                                            .build/obj_ergodox_ez_sfgabe_80_underglow/common/util.o
bitrev16                                          .build/obj_ergodox_ez_sfgabe_80_underglow/common/util.o
bitrev32                                          .build/obj_ergodox_ez_sfgabe_80_underglow/common/util.o
bootloader_jump                                   .build/obj_ergodox_ez_sfgabe_80_underglow/common/avr/bootloader.o
                                                  .build/obj_ergodox_ez_sfgabe_80_underglow/quantum/quantum.o
bootloader_jump_after_watchdog_reset              .build/obj_ergodox_ez_sfgabe_80_underglow/common/avr/bootloader.o
clear_keyboard                                    .build/obj_ergodox_ez_sfgabe_80_underglow/common/action.o
                                                  .build/obj_ergodox_ez_sfgabe_80_underglow/lufa.o
                                                  .build/obj_ergodox_ez_sfgabe_80_underglow/common/command.o
                                                  .build/obj_ergodox_ez_sfgabe_80_underglow/common/avr/suspend.o
                                                  .build/obj_ergodox_ez_sfgabe_80_underglow/common/action_tapping.o
                                                  .build/obj_ergodox_ez_sfgabe_80_underglow/quantum/process_keycode/process_magic.o
                                                  .build/obj_ergodox_ez_sfgabe_80_underglow/quantum/quantum.o
clear_keyboard_but_mods                           .build/obj_ergodox_ez_sfgabe_80_underglow/common/action.o
clear_keyboard_but_mods_and_keys                  .build/obj_ergodox_ez_sfgabe_80_underglow/common/action.o
                                                  .build/obj_ergodox_ez_sfgabe_80_underglow/common/action_layer.o
clear_keys                                        .build/obj_ergodox_ez_sfgabe_80_underglow/common/action_util.o
                                                  .build/obj_ergodox_ez_sfgabe_80_underglow/common/action.o
clear_keys_from_report                            .build/obj_ergodox_ez_sfgabe_80_underglow/common/report.o
                                                  .build/obj_ergodox_ez_sfgabe_80_underglow/common/action_util.o
clear_macro_mods                                  .build/obj_ergodox_ez_sfgabe_80_underglow/common/action_util.o
                                                  .build/obj_ergodox_ez_sfgabe_80_underglow/common/action.o
clear_mods                                        .build/obj_ergodox_ez_sfgabe_80_underglow/common/action_util.o
                                                  .build/obj_ergodox_ez_sfgabe_80_underglow/common/action.o
                                                  .build/obj_ergodox_ez_sfgabe_80_underglow/quantum/process_keycode/process_unicode_common.o
clear_oneshot_layer_state                         .build/obj_ergodox_ez_sfgabe_80_underglow/common/action_util.o
                                                  .build/obj_ergodox_ez_sfgabe_80_underglow/common/action.o
                                                  .build/obj_ergodox_ez_sfgabe_80_underglow/quantum/process_keycode/process_auto_shift.o
clear_oneshot_locked_mods                         .build/obj_ergodox_ez_sfgabe_80_underglow/common/action_util.o
clear_oneshot_mods                                .build/obj_ergodox_ez_sfgabe_80_underglow/common/action_util.o
                                                  .build/obj_ergodox_ez_sfgabe_80_underglow/common/action.o
clear_oneshot_swaphands                           .build/obj_ergodox_ez_sfgabe_80_underglow/common/action_util.o
clear_weak_mods                                   .build/obj_ergodox_ez_sfgabe_80_underglow/common/action_util.o
                                                  .build/obj_ergodox_ez_sfgabe_80_underglow/common/action.o
command_console_extra                             .build/obj_ergodox_ez_sfgabe_80_underglow/common/command.o
command_extra                                     .build/obj_ergodox_ez_sfgabe_80_underglow/common/command.o
command_proc                                      .build/obj_ergodox_ez_sfgabe_80_underglow/common/command.o
                                                  .build/obj_ergodox_ez_sfgabe_80_underglow/common/action.o
command_state                                     .build/obj_ergodox_ez_sfgabe_80_underglow/common/command.o
cycle_unicode_input_mode                          .build/obj_ergodox_ez_sfgabe_80_underglow/quantum/process_keycode/process_unicode_common.o
debounce                                          .build/obj_ergodox_ez_sfgabe_80_underglow/quantum/debounce/sym_eager_pr.o
                                                  .build/obj_ergodox_ez_sfgabe_80_underglow/quantum/matrix_common.o
debounce_active                                   .build/obj_ergodox_ez_sfgabe_80_underglow/quantum/debounce/sym_eager_pr.o
                                                  .build/obj_ergodox_ez_sfgabe_80_underglow/quantum/matrix_common.o
debounce_init                                     .build/obj_ergodox_ez_sfgabe_80_underglow/quantum/debounce/sym_eager_pr.o
                                                  .build/obj_ergodox_ez_sfgabe_80_underglow/quantum/matrix_common.o
debug_action                                      .build/obj_ergodox_ez_sfgabe_80_underglow/common/action.o
debug_config                                      .build/obj_ergodox_ez_sfgabe_80_underglow/common/debug.o
                                                  .build/obj_ergodox_ez_sfgabe_80_underglow/common/command.o
                                                  .build/obj_ergodox_ez_sfgabe_80_underglow/common/magic.o
                                                  .build/obj_ergodox_ez_sfgabe_80_underglow/common/keyboard.o
debug_event                                       .build/obj_ergodox_ez_sfgabe_80_underglow/common/action.o
                                                  .build/obj_ergodox_ez_sfgabe_80_underglow/common/action_tapping.o
debug_record                                      .build/obj_ergodox_ez_sfgabe_80_underglow/common/action.o
                                                  .build/obj_ergodox_ez_sfgabe_80_underglow/common/action_tapping.o
default_layer_and                                 .build/obj_ergodox_ez_sfgabe_80_underglow/common/action_layer.o
                                                  .build/obj_ergodox_ez_sfgabe_80_underglow/common/action.o
default_layer_debug                               .build/obj_ergodox_ez_sfgabe_80_underglow/common/action_layer.o
                                                  .build/obj_ergodox_ez_sfgabe_80_underglow/common/action.o
default_layer_or                                  .build/obj_ergodox_ez_sfgabe_80_underglow/common/action_layer.o
                                                  .build/obj_ergodox_ez_sfgabe_80_underglow/common/action.o
default_layer_set                                 .build/obj_ergodox_ez_sfgabe_80_underglow/common/action_layer.o
                                                  .build/obj_ergodox_ez_sfgabe_80_underglow/common/command.o
                                                  .build/obj_ergodox_ez_sfgabe_80_underglow/common/magic.o
                                                  .build/obj_ergodox_ez_sfgabe_80_underglow/common/action.o
                                                  .build/obj_ergodox_ez_sfgabe_80_underglow/quantum/quantum.o
default_layer_state                               .build/obj_ergodox_ez_sfgabe_80_underglow/common/action_layer.o
                                                  .build/obj_ergodox_ez_sfgabe_80_underglow/common/eeconfig.o
default_layer_state_set_kb                        .build/obj_ergodox_ez_sfgabe_80_underglow/common/action_layer.o
default_layer_state_set_user                      .build/obj_ergodox_ez_sfgabe_80_underglow/common/action_layer.o
default_layer_xor                                 .build/obj_ergodox_ez_sfgabe_80_underglow/common/action_layer.o
                                                  .build/obj_ergodox_ez_sfgabe_80_underglow/common/action.o
del_key                                           .build/obj_ergodox_ez_sfgabe_80_underglow/common/action_util.o
                                                  .build/obj_ergodox_ez_sfgabe_80_underglow/common/action.o
                                                  .build/obj_ergodox_ez_sfgabe_80_underglow/quantum/process_keycode/process_grave_esc.o
del_key_bit                                       .build/obj_ergodox_ez_sfgabe_80_underglow/common/report.o
del_key_byte                                      .build/obj_ergodox_ez_sfgabe_80_underglow/common/report.o
del_key_from_report                               .build/obj_ergodox_ez_sfgabe_80_underglow/common/report.o
                                                  .build/obj_ergodox_ez_sfgabe_80_underglow/common/action_util.o
del_macro_mods                                    .build/obj_ergodox_ez_sfgabe_80_underglow/common/action_util.o
del_mods                                          .build/obj_ergodox_ez_sfgabe_80_underglow/common/action_util.o
                                                  .build/obj_ergodox_ez_sfgabe_80_underglow/common/action.o
del_weak_mods                                     .build/obj_ergodox_ez_sfgabe_80_underglow/common/action_util.o
                                                  .build/obj_ergodox_ez_sfgabe_80_underglow/common/action.o
disable_action_cache                              .build/obj_ergodox_ez_sfgabe_80_underglow/common/action.o
                                                  .build/obj_ergodox_ez_sfgabe_80_underglow/common/action_layer.o
                                                  .build/obj_ergodox_ez_sfgabe_80_underglow/quantum/quantum.o
disable_jtag                                      .build/obj_ergodox_ez_sfgabe_80_underglow/common/keyboard.o
eeconfig_debug_rgblight                           .build/obj_ergodox_ez_sfgabe_80_underglow/quantum/rgblight.o
eeconfig_disable                                  .build/obj_ergodox_ez_sfgabe_80_underglow/common/eeconfig.o
eeconfig_enable                                   .build/obj_ergodox_ez_sfgabe_80_underglow/common/eeconfig.o
eeconfig_init                                     .build/obj_ergodox_ez_sfgabe_80_underglow/common/eeconfig.o
                                                  .build/obj_ergodox_ez_sfgabe_80_underglow/common/command.o
                                                  .build/obj_ergodox_ez_sfgabe_80_underglow/common/magic.o
                                                  .build/obj_ergodox_ez_sfgabe_80_underglow/quantum/rgblight.o
                                                  .build/obj_ergodox_ez_sfgabe_80_underglow/quantum/quantum.o
eeconfig_init_kb                                  .build/obj_ergodox_ez_sfgabe_80_underglow/keyboards/ergodox_ez/ergodox_ez.o
eeconfig_init_quantum                             .build/obj_ergodox_ez_sfgabe_80_underglow/common/eeconfig.o
eeconfig_init_user                                .build/obj_ergodox_ez_sfgabe_80_underglow/common/eeconfig.o
                                                  .build/obj_ergodox_ez_sfgabe_80_underglow/keyboards/ergodox_ez/ergodox_ez.o
eeconfig_is_disabled                              .build/obj_ergodox_ez_sfgabe_80_underglow/common/eeconfig.o
eeconfig_is_enabled                               .build/obj_ergodox_ez_sfgabe_80_underglow/common/eeconfig.o
                                                  .build/obj_ergodox_ez_sfgabe_80_underglow/common/magic.o
                                                  .build/obj_ergodox_ez_sfgabe_80_underglow/quantum/rgblight.o
                                                  .build/obj_ergodox_ez_sfgabe_80_underglow/quantum/quantum.o
eeconfig_read_audio                               .build/obj_ergodox_ez_sfgabe_80_underglow/common/eeconfig.o
eeconfig_read_backlight                           .build/obj_ergodox_ez_sfgabe_80_underglow/common/eeconfig.o
eeconfig_read_debug                               .build/obj_ergodox_ez_sfgabe_80_underglow/common/eeconfig.o
                                                  .build/obj_ergodox_ez_sfgabe_80_underglow/common/magic.o
eeconfig_read_default_layer                       .build/obj_ergodox_ez_sfgabe_80_underglow/common/eeconfig.o
                                                  .build/obj_ergodox_ez_sfgabe_80_underglow/common/magic.o
eeconfig_read_handedness                          .build/obj_ergodox_ez_sfgabe_80_underglow/common/eeconfig.o
eeconfig_read_haptic                              .build/obj_ergodox_ez_sfgabe_80_underglow/common/eeconfig.o
eeconfig_read_kb                                  .build/obj_ergodox_ez_sfgabe_80_underglow/common/eeconfig.o
                                                  .build/obj_ergodox_ez_sfgabe_80_underglow/keyboards/ergodox_ez/ergodox_ez.o
eeconfig_read_keymap                              .build/obj_ergodox_ez_sfgabe_80_underglow/common/eeconfig.o
                                                  .build/obj_ergodox_ez_sfgabe_80_underglow/common/magic.o
                                                  .build/obj_ergodox_ez_sfgabe_80_underglow/quantum/process_keycode/process_magic.o
eeconfig_read_rgblight                            .build/obj_ergodox_ez_sfgabe_80_underglow/quantum/rgblight.o
eeconfig_read_user                                .build/obj_ergodox_ez_sfgabe_80_underglow/common/eeconfig.o
eeconfig_update_audio                             .build/obj_ergodox_ez_sfgabe_80_underglow/common/eeconfig.o
eeconfig_update_backlight                         .build/obj_ergodox_ez_sfgabe_80_underglow/common/eeconfig.o
eeconfig_update_debug                             .build/obj_ergodox_ez_sfgabe_80_underglow/common/eeconfig.o
eeconfig_update_default_layer                     .build/obj_ergodox_ez_sfgabe_80_underglow/common/eeconfig.o
                                                  .build/obj_ergodox_ez_sfgabe_80_underglow/quantum/quantum.o
eeconfig_update_handedness                        .build/obj_ergodox_ez_sfgabe_80_underglow/common/eeconfig.o
                                                  .build/obj_ergodox_ez_sfgabe_80_underglow/quantum/process_keycode/process_magic.o
eeconfig_update_haptic                            .build/obj_ergodox_ez_sfgabe_80_underglow/common/eeconfig.o
eeconfig_update_kb                                .build/obj_ergodox_ez_sfgabe_80_underglow/common/eeconfig.o
                                                  .build/obj_ergodox_ez_sfgabe_80_underglow/keyboards/ergodox_ez/ergodox_ez.o
eeconfig_update_keymap                            .build/obj_ergodox_ez_sfgabe_80_underglow/common/eeconfig.o
                                                  .build/obj_ergodox_ez_sfgabe_80_underglow/quantum/process_keycode/process_magic.o
eeconfig_update_rgblight                          .build/obj_ergodox_ez_sfgabe_80_underglow/quantum/rgblight.o
eeconfig_update_rgblight_current                  .build/obj_ergodox_ez_sfgabe_80_underglow/quantum/rgblight.o
eeconfig_update_rgblight_default                  .build/obj_ergodox_ez_sfgabe_80_underglow/quantum/rgblight.o
eeconfig_update_user                              .build/obj_ergodox_ez_sfgabe_80_underglow/common/eeconfig.o
eeprom_read_block                                 /usr/local/Cellar/avr-gcc@8/8.4.0/lib/avr-gcc/8/gcc/avr/8.4.0/../../../../../../avr/lib/avr5/libatmega32u4.a(eerd_block.o)
eeprom_read_blraw                                 /usr/local/Cellar/avr-gcc@8/8.4.0/lib/avr-gcc/8/gcc/avr/8.4.0/../../../../../../avr/lib/avr5/libatmega32u4.a(eerd_block.o)
                                                  /usr/local/Cellar/avr-gcc@8/8.4.0/lib/avr-gcc/8/gcc/avr/8.4.0/../../../../../../avr/lib/avr5/libatmega32u4.a(eerd_word.o)
                                                  /usr/local/Cellar/avr-gcc@8/8.4.0/lib/avr-gcc/8/gcc/avr/8.4.0/../../../../../../avr/lib/avr5/libatmega32u4.a(eerd_dword.o)
eeprom_read_byte                                  /usr/local/Cellar/avr-gcc@8/8.4.0/lib/avr-gcc/8/gcc/avr/8.4.0/../../../../../../avr/lib/avr5/libatmega32u4.a(eerd_byte.o)
                                                  .build/obj_ergodox_ez_sfgabe_80_underglow/lib/lufa/LUFA/Drivers/USB/Core/AVR8/EndpointStream_AVR8.o
                                                  .build/obj_ergodox_ez_sfgabe_80_underglow/common/eeconfig.o
                                                  .build/obj_ergodox_ez_sfgabe_80_underglow/quantum/process_keycode/process_unicode_common.o
eeprom_read_dword                                 /usr/local/Cellar/avr-gcc@8/8.4.0/lib/avr-gcc/8/gcc/avr/8.4.0/../../../../../../avr/lib/avr5/libatmega32u4.a(eerd_dword.o)
                                                  .build/obj_ergodox_ez_sfgabe_80_underglow/common/eeconfig.o
                                                  .build/obj_ergodox_ez_sfgabe_80_underglow/quantum/rgblight.o
eeprom_read_float                                 /usr/local/Cellar/avr-gcc@8/8.4.0/lib/avr-gcc/8/gcc/avr/8.4.0/../../../../../../avr/lib/avr5/libatmega32u4.a(eerd_dword.o)
eeprom_read_word                                  /usr/local/Cellar/avr-gcc@8/8.4.0/lib/avr-gcc/8/gcc/avr/8.4.0/../../../../../../avr/lib/avr5/libatmega32u4.a(eerd_word.o)
                                                  .build/obj_ergodox_ez_sfgabe_80_underglow/common/eeconfig.o
eeprom_update_byte                                /usr/local/Cellar/avr-gcc@8/8.4.0/lib/avr-gcc/8/gcc/avr/8.4.0/../../../../../../avr/lib/avr5/libatmega32u4.a(eeupd_byte.o)
                                                  /usr/local/Cellar/avr-gcc@8/8.4.0/lib/avr-gcc/8/gcc/avr/8.4.0/../../../../../../avr/lib/avr5/libatmega32u4.a(eeupd_word.o)
                                                  /usr/local/Cellar/avr-gcc@8/8.4.0/lib/avr-gcc/8/gcc/avr/8.4.0/../../../../../../avr/lib/avr5/libatmega32u4.a(eeupd_dword.o)
                                                  .build/obj_ergodox_ez_sfgabe_80_underglow/lib/lufa/LUFA/Drivers/USB/Core/AVR8/EndpointStream_AVR8.o
                                                  .build/obj_ergodox_ez_sfgabe_80_underglow/common/eeconfig.o
                                                  .build/obj_ergodox_ez_sfgabe_80_underglow/quantum/process_keycode/process_unicode_common.o
eeprom_update_dword                               /usr/local/Cellar/avr-gcc@8/8.4.0/lib/avr-gcc/8/gcc/avr/8.4.0/../../../../../../avr/lib/avr5/libatmega32u4.a(eeupd_dword.o)
                                                  .build/obj_ergodox_ez_sfgabe_80_underglow/common/eeconfig.o
                                                  .build/obj_ergodox_ez_sfgabe_80_underglow/quantum/rgblight.o
eeprom_update_float                               /usr/local/Cellar/avr-gcc@8/8.4.0/lib/avr-gcc/8/gcc/avr/8.4.0/../../../../../../avr/lib/avr5/libatmega32u4.a(eeupd_dword.o)
eeprom_update_r18                                 /usr/local/Cellar/avr-gcc@8/8.4.0/lib/avr-gcc/8/gcc/avr/8.4.0/../../../../../../avr/lib/avr5/libatmega32u4.a(eeupd_byte.o)
                                                  /usr/local/Cellar/avr-gcc@8/8.4.0/lib/avr-gcc/8/gcc/avr/8.4.0/../../../../../../avr/lib/avr5/libatmega32u4.a(eeupd_word.o)
                                                  /usr/local/Cellar/avr-gcc@8/8.4.0/lib/avr-gcc/8/gcc/avr/8.4.0/../../../../../../avr/lib/avr5/libatmega32u4.a(eeupd_dword.o)
eeprom_update_word                                /usr/local/Cellar/avr-gcc@8/8.4.0/lib/avr-gcc/8/gcc/avr/8.4.0/../../../../../../avr/lib/avr5/libatmega32u4.a(eeupd_word.o)
                                                  .build/obj_ergodox_ez_sfgabe_80_underglow/common/eeconfig.o
encoder_init                                      .build/obj_ergodox_ez_sfgabe_80_underglow/quantum/encoder.o
                                                  .build/obj_ergodox_ez_sfgabe_80_underglow/common/keyboard.o
encoder_read                                      .build/obj_ergodox_ez_sfgabe_80_underglow/quantum/encoder.o
                                                  .build/obj_ergodox_ez_sfgabe_80_underglow/common/keyboard.o
encoder_update_kb                                 .build/obj_ergodox_ez_sfgabe_80_underglow/quantum/encoder.o
encoder_update_user                               .build/obj_ergodox_ez_sfgabe_80_underglow/keyboards/ergodox_ez/keymaps/sfgabe_80_underglow/keymap.o
ergodox_blink_all_leds                            .build/obj_ergodox_ez_sfgabe_80_underglow/keyboards/ergodox_ez/ergodox_ez.o
                                                  .build/obj_ergodox_ez_sfgabe_80_underglow/matrix.o
ergodox_board_led_off                             .build/obj_ergodox_ez_sfgabe_80_underglow/keyboards/ergodox_ez/ergodox_ez.o
                                                  .build/obj_ergodox_ez_sfgabe_80_underglow/keyboards/ergodox_ez/keymaps/sfgabe_80_underglow/keymap.o
ergodox_board_led_on                              .build/obj_ergodox_ez_sfgabe_80_underglow/keyboards/ergodox_ez/ergodox_ez.o
ergodox_led_all_off                               .build/obj_ergodox_ez_sfgabe_80_underglow/keyboards/ergodox_ez/ergodox_ez.o
ergodox_led_all_on                                .build/obj_ergodox_ez_sfgabe_80_underglow/keyboards/ergodox_ez/ergodox_ez.o
ergodox_led_all_set                               .build/obj_ergodox_ez_sfgabe_80_underglow/keyboards/ergodox_ez/ergodox_ez.o
ergodox_right_led_1_off                           .build/obj_ergodox_ez_sfgabe_80_underglow/keyboards/ergodox_ez/ergodox_ez.o
                                                  .build/obj_ergodox_ez_sfgabe_80_underglow/keyboards/ergodox_ez/keymaps/sfgabe_80_underglow/keymap.o
ergodox_right_led_1_on                            .build/obj_ergodox_ez_sfgabe_80_underglow/keyboards/ergodox_ez/ergodox_ez.o
                                                  .build/obj_ergodox_ez_sfgabe_80_underglow/keyboards/ergodox_ez/keymaps/sfgabe_80_underglow/keymap.o
ergodox_right_led_1_set                           .build/obj_ergodox_ez_sfgabe_80_underglow/keyboards/ergodox_ez/ergodox_ez.o
ergodox_right_led_2_off                           .build/obj_ergodox_ez_sfgabe_80_underglow/keyboards/ergodox_ez/ergodox_ez.o
                                                  .build/obj_ergodox_ez_sfgabe_80_underglow/keyboards/ergodox_ez/keymaps/sfgabe_80_underglow/keymap.o
ergodox_right_led_2_on                            .build/obj_ergodox_ez_sfgabe_80_underglow/keyboards/ergodox_ez/ergodox_ez.o
                                                  .build/obj_ergodox_ez_sfgabe_80_underglow/keyboards/ergodox_ez/keymaps/sfgabe_80_underglow/keymap.o
ergodox_right_led_2_set                           .build/obj_ergodox_ez_sfgabe_80_underglow/keyboards/ergodox_ez/ergodox_ez.o
ergodox_right_led_3_off                           .build/obj_ergodox_ez_sfgabe_80_underglow/keyboards/ergodox_ez/ergodox_ez.o
                                                  .build/obj_ergodox_ez_sfgabe_80_underglow/keyboards/ergodox_ez/keymaps/sfgabe_80_underglow/keymap.o
ergodox_right_led_3_on                            .build/obj_ergodox_ez_sfgabe_80_underglow/keyboards/ergodox_ez/ergodox_ez.o
                                                  .build/obj_ergodox_ez_sfgabe_80_underglow/keyboards/ergodox_ez/keymaps/sfgabe_80_underglow/keymap.o
ergodox_right_led_3_set                           .build/obj_ergodox_ez_sfgabe_80_underglow/keyboards/ergodox_ez/ergodox_ez.o
ergodox_right_led_off                             .build/obj_ergodox_ez_sfgabe_80_underglow/keyboards/ergodox_ez/ergodox_ez.o
ergodox_right_led_on                              .build/obj_ergodox_ez_sfgabe_80_underglow/keyboards/ergodox_ez/ergodox_ez.o
ergodox_right_led_set                             .build/obj_ergodox_ez_sfgabe_80_underglow/keyboards/ergodox_ez/ergodox_ez.o
exit                                              /usr/local/Cellar/avr-gcc@8/8.4.0/lib/avr-gcc/8/gcc/avr/8.4.0/avr5/libgcc.a(_exit.o)
                                                  /usr/local/Cellar/avr-gcc@8/8.4.0/lib/avr-gcc/8/gcc/avr/8.4.0/../../../../../../avr/lib/avr5/crtatmega32u4.o
fn_actions                                        .build/obj_ergodox_ez_sfgabe_80_underglow/quantum/keymap_common.o
fputc                                             /usr/local/Cellar/avr-gcc@8/8.4.0/lib/avr-gcc/8/gcc/avr/8.4.0/../../../../../../avr/lib/avr5/libc.a(fputc.o)
                                                  /usr/local/Cellar/avr-gcc@8/8.4.0/lib/avr-gcc/8/gcc/avr/8.4.0/../../../../../../avr/lib/avr5/libc.a(vfprintf_std.o)
free                                              /usr/local/Cellar/avr-gcc@8/8.4.0/lib/avr-gcc/8/gcc/avr/8.4.0/../../../../../../avr/lib/avr5/libc.a(malloc.o)
get_autoshift_state                               .build/obj_ergodox_ez_sfgabe_80_underglow/quantum/process_keycode/process_auto_shift.o
get_autoshift_timeout                             .build/obj_ergodox_ez_sfgabe_80_underglow/quantum/process_keycode/process_auto_shift.o
get_event_keycode                                 .build/obj_ergodox_ez_sfgabe_80_underglow/quantum/quantum.o
get_first_key                                     .build/obj_ergodox_ez_sfgabe_80_underglow/common/report.o
get_macro_mods                                    .build/obj_ergodox_ez_sfgabe_80_underglow/common/action_util.o
get_mods                                          .build/obj_ergodox_ez_sfgabe_80_underglow/common/action_util.o
                                                  .build/obj_ergodox_ez_sfgabe_80_underglow/common/command.o
                                                  .build/obj_ergodox_ez_sfgabe_80_underglow/quantum/process_keycode/process_auto_shift.o
                                                  .build/obj_ergodox_ez_sfgabe_80_underglow/quantum/process_keycode/process_grave_esc.o
                                                  .build/obj_ergodox_ez_sfgabe_80_underglow/quantum/process_keycode/process_unicode_common.o
                                                  .build/obj_ergodox_ez_sfgabe_80_underglow/quantum/process_keycode/process_rgb.o
get_oneshot_layer                                 .build/obj_ergodox_ez_sfgabe_80_underglow/common/action_util.o
                                                  .build/obj_ergodox_ez_sfgabe_80_underglow/common/action.o
get_oneshot_layer_state                           .build/obj_ergodox_ez_sfgabe_80_underglow/common/action_util.o
                                                  .build/obj_ergodox_ez_sfgabe_80_underglow/common/action.o
get_oneshot_locked_mods                           .build/obj_ergodox_ez_sfgabe_80_underglow/common/action_util.o
get_oneshot_mods                                  .build/obj_ergodox_ez_sfgabe_80_underglow/common/action_util.o
                                                  .build/obj_ergodox_ez_sfgabe_80_underglow/common/action.o
get_record_keycode                                .build/obj_ergodox_ez_sfgabe_80_underglow/quantum/quantum.o
get_tapping_term                                  .build/obj_ergodox_ez_sfgabe_80_underglow/common/action_tapping.o
                                                  .build/obj_ergodox_ez_sfgabe_80_underglow/quantum/process_keycode/process_space_cadet.o
get_unicode_input_mode                            .build/obj_ergodox_ez_sfgabe_80_underglow/quantum/process_keycode/process_unicode_common.o
get_usb_descriptor                                .build/obj_ergodox_ez_sfgabe_80_underglow/usb_descriptor.o
                                                  .build/obj_ergodox_ez_sfgabe_80_underglow/lufa.o
get_weak_mods                                     .build/obj_ergodox_ez_sfgabe_80_underglow/common/action_util.o
hand_swap_config                                  .build/obj_ergodox_ez_sfgabe_80_underglow/keyboards/ergodox_ez/ergodox_ez.o
                                                  .build/obj_ergodox_ez_sfgabe_80_underglow/common/action.o
has_anykey                                        .build/obj_ergodox_ez_sfgabe_80_underglow/common/report.o
                                                  .build/obj_ergodox_ez_sfgabe_80_underglow/common/action_util.o
has_anymod                                        .build/obj_ergodox_ez_sfgabe_80_underglow/common/action_util.o
has_oneshot_mods_timed_out                        .build/obj_ergodox_ez_sfgabe_80_underglow/common/action_util.o
hex_to_keycode                                    .build/obj_ergodox_ez_sfgabe_80_underglow/quantum/quantum.o
                                                  .build/obj_ergodox_ez_sfgabe_80_underglow/quantum/process_keycode/process_unicode_common.o
host_consumer_send                                .build/obj_ergodox_ez_sfgabe_80_underglow/common/host.o
                                                  .build/obj_ergodox_ez_sfgabe_80_underglow/common/action.o
host_get_driver                                   .build/obj_ergodox_ez_sfgabe_80_underglow/common/host.o
host_keyboard_led_state                           .build/obj_ergodox_ez_sfgabe_80_underglow/common/host.o
host_keyboard_leds                                .build/obj_ergodox_ez_sfgabe_80_underglow/common/host.o
                                                  .build/obj_ergodox_ez_sfgabe_80_underglow/common/avr/suspend.o
                                                  .build/obj_ergodox_ez_sfgabe_80_underglow/common/action.o
                                                  .build/obj_ergodox_ez_sfgabe_80_underglow/common/keyboard.o
host_keyboard_send                                .build/obj_ergodox_ez_sfgabe_80_underglow/common/host.o
                                                  .build/obj_ergodox_ez_sfgabe_80_underglow/common/action_util.o
host_last_consumer_report                         .build/obj_ergodox_ez_sfgabe_80_underglow/common/host.o
host_last_system_report                           .build/obj_ergodox_ez_sfgabe_80_underglow/common/host.o
host_mouse_send                                   .build/obj_ergodox_ez_sfgabe_80_underglow/common/host.o
                                                  .build/obj_ergodox_ez_sfgabe_80_underglow/common/mousekey.o
host_set_driver                                   .build/obj_ergodox_ez_sfgabe_80_underglow/common/host.o
                                                  .build/obj_ergodox_ez_sfgabe_80_underglow/lufa.o
host_system_send                                  .build/obj_ergodox_ez_sfgabe_80_underglow/common/host.o
                                                  .build/obj_ergodox_ez_sfgabe_80_underglow/common/action.o
hsv_to_rgb                                        .build/obj_ergodox_ez_sfgabe_80_underglow/quantum/color.o
                                                  .build/obj_ergodox_ez_sfgabe_80_underglow/quantum/rgblight.o
hsv_to_rgb_impl                                   .build/obj_ergodox_ez_sfgabe_80_underglow/quantum/color.o
hsv_to_rgb_nocie                                  .build/obj_ergodox_ez_sfgabe_80_underglow/quantum/color.o
i2c_init                                          .build/obj_ergodox_ez_sfgabe_80_underglow/i2c_master.a(i2c_master.o)
                                                  .build/obj_ergodox_ez_sfgabe_80_underglow/keyboards/ergodox_ez/ergodox_ez.o
                                                  .build/obj_ergodox_ez_sfgabe_80_underglow/led_i2c.o
i2c_initialized                                   .build/obj_ergodox_ez_sfgabe_80_underglow/keyboards/ergodox_ez/ergodox_ez.o
i2c_readReg                                       .build/obj_ergodox_ez_sfgabe_80_underglow/i2c_master.a(i2c_master.o)
i2c_read_ack                                      .build/obj_ergodox_ez_sfgabe_80_underglow/i2c_master.a(i2c_master.o)
i2c_read_nack                                     .build/obj_ergodox_ez_sfgabe_80_underglow/i2c_master.a(i2c_master.o)
                                                  .build/obj_ergodox_ez_sfgabe_80_underglow/matrix.o
i2c_receive                                       .build/obj_ergodox_ez_sfgabe_80_underglow/i2c_master.a(i2c_master.o)
i2c_start                                         .build/obj_ergodox_ez_sfgabe_80_underglow/i2c_master.a(i2c_master.o)
                                                  .build/obj_ergodox_ez_sfgabe_80_underglow/keyboards/ergodox_ez/ergodox_ez.o
                                                  .build/obj_ergodox_ez_sfgabe_80_underglow/led_i2c.o
                                                  .build/obj_ergodox_ez_sfgabe_80_underglow/matrix.o
i2c_stop                                          .build/obj_ergodox_ez_sfgabe_80_underglow/i2c_master.a(i2c_master.o)
                                                  .build/obj_ergodox_ez_sfgabe_80_underglow/keyboards/ergodox_ez/ergodox_ez.o
                                                  .build/obj_ergodox_ez_sfgabe_80_underglow/led_i2c.o
                                                  .build/obj_ergodox_ez_sfgabe_80_underglow/matrix.o
i2c_transmit                                      .build/obj_ergodox_ez_sfgabe_80_underglow/i2c_master.a(i2c_master.o)
i2c_write                                         .build/obj_ergodox_ez_sfgabe_80_underglow/i2c_master.a(i2c_master.o)
                                                  .build/obj_ergodox_ez_sfgabe_80_underglow/keyboards/ergodox_ez/ergodox_ez.o
                                                  .build/obj_ergodox_ez_sfgabe_80_underglow/led_i2c.o
                                                  .build/obj_ergodox_ez_sfgabe_80_underglow/matrix.o
i2c_writeReg                                      .build/obj_ergodox_ez_sfgabe_80_underglow/i2c_master.a(i2c_master.o)
init_mcp23018                                     .build/obj_ergodox_ez_sfgabe_80_underglow/keyboards/ergodox_ez/ergodox_ez.o
                                                  .build/obj_ergodox_ez_sfgabe_80_underglow/matrix.o
is_key_pressed                                    .build/obj_ergodox_ez_sfgabe_80_underglow/common/report.o
                                                  .build/obj_ergodox_ez_sfgabe_80_underglow/common/action.o
is_keyboard_master                                .build/obj_ergodox_ez_sfgabe_80_underglow/common/keyboard.o
is_oneshot_layer_active                           .build/obj_ergodox_ez_sfgabe_80_underglow/common/action_util.o
                                                  .build/obj_ergodox_ez_sfgabe_80_underglow/common/action.o
is_rgblight_initialized                           .build/obj_ergodox_ez_sfgabe_80_underglow/quantum/rgblight.o
is_tap_action                                     .build/obj_ergodox_ez_sfgabe_80_underglow/common/action.o
is_tap_key                                        .build/obj_ergodox_ez_sfgabe_80_underglow/common/action.o
                                                  .build/obj_ergodox_ez_sfgabe_80_underglow/common/action_tapping.o
keyboard_config                                   .build/obj_ergodox_ez_sfgabe_80_underglow/keyboards/ergodox_ez/ergodox_ez.o
keyboard_idle                                     .build/obj_ergodox_ez_sfgabe_80_underglow/lufa.o
keyboard_init                                     .build/obj_ergodox_ez_sfgabe_80_underglow/common/keyboard.o
                                                  .build/obj_ergodox_ez_sfgabe_80_underglow/lufa.o
keyboard_post_init_kb                             .build/obj_ergodox_ez_sfgabe_80_underglow/common/keyboard.o
keyboard_post_init_user                           .build/obj_ergodox_ez_sfgabe_80_underglow/common/keyboard.o
keyboard_pre_init_kb                              .build/obj_ergodox_ez_sfgabe_80_underglow/common/keyboard.o
keyboard_pre_init_user                            .build/obj_ergodox_ez_sfgabe_80_underglow/common/keyboard.o
keyboard_protocol                                 .build/obj_ergodox_ez_sfgabe_80_underglow/lufa.o
                                                  .build/obj_ergodox_ez_sfgabe_80_underglow/common/report.o
                                                  .build/obj_ergodox_ez_sfgabe_80_underglow/common/host.o
keyboard_report                                   .build/obj_ergodox_ez_sfgabe_80_underglow/common/action_util.o
                                                  .build/obj_ergodox_ez_sfgabe_80_underglow/common/action.o
keyboard_set_leds                                 .build/obj_ergodox_ez_sfgabe_80_underglow/common/keyboard.o
keyboard_setup                                    .build/obj_ergodox_ez_sfgabe_80_underglow/common/keyboard.o
                                                  .build/obj_ergodox_ez_sfgabe_80_underglow/lufa.o
keyboard_task                                     .build/obj_ergodox_ez_sfgabe_80_underglow/common/keyboard.o
                                                  .build/obj_ergodox_ez_sfgabe_80_underglow/lufa.o
keycode_config                                    .build/obj_ergodox_ez_sfgabe_80_underglow/quantum/keycode_config.o
                                                  .build/obj_ergodox_ez_sfgabe_80_underglow/quantum/keymap_common.o
keymap_config                                     .build/obj_ergodox_ez_sfgabe_80_underglow/common/magic.o
                                                  .build/obj_ergodox_ez_sfgabe_80_underglow/lufa.o
                                                  .build/obj_ergodox_ez_sfgabe_80_underglow/common/command.o
                                                  .build/obj_ergodox_ez_sfgabe_80_underglow/common/report.o
                                                  .build/obj_ergodox_ez_sfgabe_80_underglow/common/host.o
                                                  .build/obj_ergodox_ez_sfgabe_80_underglow/quantum/process_keycode/process_magic.o
                                                  .build/obj_ergodox_ez_sfgabe_80_underglow/quantum/keycode_config.o
keymap_function_id_to_action                      .build/obj_ergodox_ez_sfgabe_80_underglow/quantum/keymap_common.o
keymap_key_to_keycode                             .build/obj_ergodox_ez_sfgabe_80_underglow/quantum/keymap_common.o
                                                  .build/obj_ergodox_ez_sfgabe_80_underglow/quantum/quantum.o
keymaps                                           .build/obj_ergodox_ez_sfgabe_80_underglow/keyboards/ergodox_ez/keymaps/sfgabe_80_underglow/keymap.o
                                                  .build/obj_ergodox_ez_sfgabe_80_underglow/quantum/keymap_common.o
layer_and                                         .build/obj_ergodox_ez_sfgabe_80_underglow/common/action_layer.o
                                                  .build/obj_ergodox_ez_sfgabe_80_underglow/common/action.o
layer_clear                                       .build/obj_ergodox_ez_sfgabe_80_underglow/common/action_layer.o
                                                  .build/obj_ergodox_ez_sfgabe_80_underglow/common/action.o
layer_debug                                       .build/obj_ergodox_ez_sfgabe_80_underglow/common/action_layer.o
                                                  .build/obj_ergodox_ez_sfgabe_80_underglow/common/action.o
layer_invert                                      .build/obj_ergodox_ez_sfgabe_80_underglow/common/action_layer.o
                                                  .build/obj_ergodox_ez_sfgabe_80_underglow/common/action.o
layer_move                                        .build/obj_ergodox_ez_sfgabe_80_underglow/common/action_layer.o
                                                  .build/obj_ergodox_ez_sfgabe_80_underglow/common/action.o
layer_off                                         .build/obj_ergodox_ez_sfgabe_80_underglow/common/action_layer.o
                                                  .build/obj_ergodox_ez_sfgabe_80_underglow/common/action_util.o
                                                  .build/obj_ergodox_ez_sfgabe_80_underglow/common/action.o
layer_on                                          .build/obj_ergodox_ez_sfgabe_80_underglow/common/action_layer.o
                                                  .build/obj_ergodox_ez_sfgabe_80_underglow/common/action_util.o
                                                  .build/obj_ergodox_ez_sfgabe_80_underglow/common/action.o
layer_or                                          .build/obj_ergodox_ez_sfgabe_80_underglow/common/action_layer.o
                                                  .build/obj_ergodox_ez_sfgabe_80_underglow/common/action.o
layer_state                                       .build/obj_ergodox_ez_sfgabe_80_underglow/common/action_layer.o
                                                  .build/obj_ergodox_ez_sfgabe_80_underglow/common/magic.o
                                                  .build/obj_ergodox_ez_sfgabe_80_underglow/quantum/quantum.o
                                                  .build/obj_ergodox_ez_sfgabe_80_underglow/keyboards/ergodox_ez/keymaps/sfgabe_80_underglow/keymap.o
layer_state_cmp                                   .build/obj_ergodox_ez_sfgabe_80_underglow/common/action_layer.o
layer_state_is                                    .build/obj_ergodox_ez_sfgabe_80_underglow/common/action_layer.o
layer_state_set                                   .build/obj_ergodox_ez_sfgabe_80_underglow/common/action_layer.o
                                                  .build/obj_ergodox_ez_sfgabe_80_underglow/common/action.o
                                                  .build/obj_ergodox_ez_sfgabe_80_underglow/quantum/quantum.o
layer_state_set_kb                                .build/obj_ergodox_ez_sfgabe_80_underglow/common/action_layer.o
                                                  .build/obj_ergodox_ez_sfgabe_80_underglow/common/magic.o
layer_state_set_user                              .build/obj_ergodox_ez_sfgabe_80_underglow/common/action_layer.o
layer_switch_get_action                           .build/obj_ergodox_ez_sfgabe_80_underglow/common/action_layer.o
                                                  .build/obj_ergodox_ez_sfgabe_80_underglow/common/action_tapping.o
                                                  .build/obj_ergodox_ez_sfgabe_80_underglow/common/action.o
layer_switch_get_layer                            .build/obj_ergodox_ez_sfgabe_80_underglow/common/action_layer.o
                                                  .build/obj_ergodox_ez_sfgabe_80_underglow/quantum/quantum.o
layer_xor                                         .build/obj_ergodox_ez_sfgabe_80_underglow/common/action_layer.o
                                                  .build/obj_ergodox_ez_sfgabe_80_underglow/common/action.o
led                                               .build/obj_ergodox_ez_sfgabe_80_underglow/quantum/rgblight.o
led_init_ports                                    .build/obj_ergodox_ez_sfgabe_80_underglow/quantum/quantum.o
led_set                                           .build/obj_ergodox_ez_sfgabe_80_underglow/quantum/quantum.o
                                                  .build/obj_ergodox_ez_sfgabe_80_underglow/common/avr/suspend.o
                                                  .build/obj_ergodox_ez_sfgabe_80_underglow/common/action.o
                                                  .build/obj_ergodox_ez_sfgabe_80_underglow/common/keyboard.o
led_set_kb                                        .build/obj_ergodox_ez_sfgabe_80_underglow/quantum/quantum.o
led_set_user                                      .build/obj_ergodox_ez_sfgabe_80_underglow/quantum/quantum.o
led_update_kb                                     .build/obj_ergodox_ez_sfgabe_80_underglow/quantum/quantum.o
led_update_user                                   .build/obj_ergodox_ez_sfgabe_80_underglow/quantum/quantum.o
lufa_driver                                       .build/obj_ergodox_ez_sfgabe_80_underglow/lufa.o
magic                                             .build/obj_ergodox_ez_sfgabe_80_underglow/common/magic.o
                                                  .build/obj_ergodox_ez_sfgabe_80_underglow/common/keyboard.o
main                                              .build/obj_ergodox_ez_sfgabe_80_underglow/lufa.o
                                                  /usr/local/Cellar/avr-gcc@8/8.4.0/lib/avr-gcc/8/gcc/avr/8.4.0/../../../../../../avr/lib/avr5/crtatmega32u4.o
malloc                                            /usr/local/Cellar/avr-gcc@8/8.4.0/lib/avr-gcc/8/gcc/avr/8.4.0/../../../../../../avr/lib/avr5/libc.a(malloc.o)
                                                  .build/obj_ergodox_ez_sfgabe_80_underglow/quantum/debounce/sym_eager_pr.o
matrix                                            .build/obj_ergodox_ez_sfgabe_80_underglow/quantum/matrix_common.o
                                                  .build/obj_ergodox_ez_sfgabe_80_underglow/matrix.o
matrix_cols                                       .build/obj_ergodox_ez_sfgabe_80_underglow/quantum/matrix_common.o
matrix_get_row                                    .build/obj_ergodox_ez_sfgabe_80_underglow/quantum/matrix_common.o
                                                  .build/obj_ergodox_ez_sfgabe_80_underglow/common/avr/suspend.o
                                                  .build/obj_ergodox_ez_sfgabe_80_underglow/common/keyboard.o
matrix_init                                       .build/obj_ergodox_ez_sfgabe_80_underglow/quantum/matrix_common.o
                                                  .build/obj_ergodox_ez_sfgabe_80_underglow/common/keyboard.o
matrix_init_custom                                .build/obj_ergodox_ez_sfgabe_80_underglow/matrix.o
matrix_init_kb                                    .build/obj_ergodox_ez_sfgabe_80_underglow/keyboards/ergodox_ez/ergodox_ez.o
                                                  .build/obj_ergodox_ez_sfgabe_80_underglow/quantum/quantum.o
matrix_init_quantum                               .build/obj_ergodox_ez_sfgabe_80_underglow/quantum/quantum.o
                                                  .build/obj_ergodox_ez_sfgabe_80_underglow/quantum/matrix_common.o
matrix_init_user                                  .build/obj_ergodox_ez_sfgabe_80_underglow/keyboards/ergodox_ez/keymaps/sfgabe_80_underglow/keymap.o
                                                  .build/obj_ergodox_ez_sfgabe_80_underglow/keyboards/ergodox_ez/ergodox_ez.o
matrix_io_delay                                   .build/obj_ergodox_ez_sfgabe_80_underglow/quantum/matrix_common.o
matrix_is_modified                                .build/obj_ergodox_ez_sfgabe_80_underglow/quantum/matrix_common.o
matrix_is_on                                      .build/obj_ergodox_ez_sfgabe_80_underglow/quantum/matrix_common.o
matrix_key_count                                  .build/obj_ergodox_ez_sfgabe_80_underglow/quantum/matrix_common.o
matrix_power_down                                 .build/obj_ergodox_ez_sfgabe_80_underglow/common/avr/suspend.o
matrix_power_up                                   .build/obj_ergodox_ez_sfgabe_80_underglow/matrix.o
matrix_print                                      .build/obj_ergodox_ez_sfgabe_80_underglow/quantum/matrix_common.o
                                                  .build/obj_ergodox_ez_sfgabe_80_underglow/common/keyboard.o
matrix_rows                                       .build/obj_ergodox_ez_sfgabe_80_underglow/quantum/matrix_common.o
matrix_scan                                       .build/obj_ergodox_ez_sfgabe_80_underglow/quantum/matrix_common.o
                                                  .build/obj_ergodox_ez_sfgabe_80_underglow/common/avr/suspend.o
                                                  .build/obj_ergodox_ez_sfgabe_80_underglow/common/keyboard.o
matrix_scan_custom                                .build/obj_ergodox_ez_sfgabe_80_underglow/matrix.o
matrix_scan_kb                                    .build/obj_ergodox_ez_sfgabe_80_underglow/quantum/matrix_common.o
                                                  .build/obj_ergodox_ez_sfgabe_80_underglow/quantum/quantum.o
matrix_scan_quantum                               .build/obj_ergodox_ez_sfgabe_80_underglow/quantum/quantum.o
                                                  .build/obj_ergodox_ez_sfgabe_80_underglow/quantum/matrix_common.o
matrix_scan_user                                  .build/obj_ergodox_ez_sfgabe_80_underglow/keyboards/ergodox_ez/keymaps/sfgabe_80_underglow/keymap.o
matrix_setup                                      .build/obj_ergodox_ez_sfgabe_80_underglow/common/keyboard.o
mcp23018_status                                   .build/obj_ergodox_ez_sfgabe_80_underglow/keyboards/ergodox_ez/ergodox_ez.o
                                                  .build/obj_ergodox_ez_sfgabe_80_underglow/matrix.o
memchr                                            /usr/local/Cellar/avr-gcc@8/8.4.0/lib/avr-gcc/8/gcc/avr/8.4.0/../../../../../../avr/lib/avr5/libc.a(memchr.o)
                                                  .build/obj_ergodox_ez_sfgabe_80_underglow/quantum/rgblight.o
mk_delay                                          .build/obj_ergodox_ez_sfgabe_80_underglow/common/mousekey.o
                                                  .build/obj_ergodox_ez_sfgabe_80_underglow/common/command.o
mk_interval                                       .build/obj_ergodox_ez_sfgabe_80_underglow/common/mousekey.o
                                                  .build/obj_ergodox_ez_sfgabe_80_underglow/common/command.o
mk_max_speed                                      .build/obj_ergodox_ez_sfgabe_80_underglow/common/mousekey.o
                                                  .build/obj_ergodox_ez_sfgabe_80_underglow/common/command.o
mk_time_to_max                                    .build/obj_ergodox_ez_sfgabe_80_underglow/common/mousekey.o
                                                  .build/obj_ergodox_ez_sfgabe_80_underglow/common/command.o
mk_wheel_delay                                    .build/obj_ergodox_ez_sfgabe_80_underglow/common/mousekey.o
mk_wheel_interval                                 .build/obj_ergodox_ez_sfgabe_80_underglow/common/mousekey.o
mk_wheel_max_speed                                .build/obj_ergodox_ez_sfgabe_80_underglow/common/mousekey.o
                                                  .build/obj_ergodox_ez_sfgabe_80_underglow/common/command.o
mk_wheel_time_to_max                              .build/obj_ergodox_ez_sfgabe_80_underglow/common/mousekey.o
                                                  .build/obj_ergodox_ez_sfgabe_80_underglow/common/command.o
mod_config                                        .build/obj_ergodox_ez_sfgabe_80_underglow/quantum/keycode_config.o
                                                  .build/obj_ergodox_ez_sfgabe_80_underglow/quantum/keymap_common.o
mousekey_clear                                    .build/obj_ergodox_ez_sfgabe_80_underglow/common/mousekey.o
                                                  .build/obj_ergodox_ez_sfgabe_80_underglow/common/action.o
mousekey_off                                      .build/obj_ergodox_ez_sfgabe_80_underglow/common/mousekey.o
                                                  .build/obj_ergodox_ez_sfgabe_80_underglow/common/action.o
mousekey_on                                       .build/obj_ergodox_ez_sfgabe_80_underglow/common/mousekey.o
                                                  .build/obj_ergodox_ez_sfgabe_80_underglow/common/action.o
mousekey_send                                     .build/obj_ergodox_ez_sfgabe_80_underglow/common/mousekey.o
                                                  .build/obj_ergodox_ez_sfgabe_80_underglow/common/action.o
mousekey_task                                     .build/obj_ergodox_ez_sfgabe_80_underglow/common/mousekey.o
                                                  .build/obj_ergodox_ez_sfgabe_80_underglow/common/keyboard.o
numkey2num                                        .build/obj_ergodox_ez_sfgabe_80_underglow/common/command.o
oneshot_layer_changed_kb                          .build/obj_ergodox_ez_sfgabe_80_underglow/common/action_util.o
oneshot_layer_changed_user                        .build/obj_ergodox_ez_sfgabe_80_underglow/common/action_util.o
oneshot_locked_mods_changed_kb                    .build/obj_ergodox_ez_sfgabe_80_underglow/common/action_util.o
oneshot_locked_mods_changed_user                  .build/obj_ergodox_ez_sfgabe_80_underglow/common/action_util.o
oneshot_mods_changed_kb                           .build/obj_ergodox_ez_sfgabe_80_underglow/common/action_util.o
oneshot_mods_changed_user                         .build/obj_ergodox_ez_sfgabe_80_underglow/common/action_util.o
peek_matrix                                       .build/obj_ergodox_ez_sfgabe_80_underglow/quantum/matrix_common.o
perform_space_cadet                               .build/obj_ergodox_ez_sfgabe_80_underglow/quantum/process_keycode/process_space_cadet.o
persist_unicode_input_mode                        .build/obj_ergodox_ez_sfgabe_80_underglow/quantum/process_keycode/process_unicode_common.o
post_process_record_kb                            .build/obj_ergodox_ez_sfgabe_80_underglow/quantum/quantum.o
post_process_record_quantum                       .build/obj_ergodox_ez_sfgabe_80_underglow/quantum/quantum.o
post_process_record_user                          .build/obj_ergodox_ez_sfgabe_80_underglow/quantum/quantum.o
process_action                                    .build/obj_ergodox_ez_sfgabe_80_underglow/common/action.o
process_action_kb                                 .build/obj_ergodox_ez_sfgabe_80_underglow/quantum/quantum.o
process_auto_shift                                .build/obj_ergodox_ez_sfgabe_80_underglow/quantum/process_keycode/process_auto_shift.o
                                                  .build/obj_ergodox_ez_sfgabe_80_underglow/quantum/quantum.o
process_grave_esc                                 .build/obj_ergodox_ez_sfgabe_80_underglow/quantum/process_keycode/process_grave_esc.o
                                                  .build/obj_ergodox_ez_sfgabe_80_underglow/quantum/quantum.o
process_hand_swap                                 .build/obj_ergodox_ez_sfgabe_80_underglow/common/action.o
process_magic                                     .build/obj_ergodox_ez_sfgabe_80_underglow/quantum/process_keycode/process_magic.o
                                                  .build/obj_ergodox_ez_sfgabe_80_underglow/quantum/quantum.o
process_record                                    .build/obj_ergodox_ez_sfgabe_80_underglow/common/action.o
                                                  .build/obj_ergodox_ez_sfgabe_80_underglow/common/action_tapping.o
process_record_handler                            .build/obj_ergodox_ez_sfgabe_80_underglow/common/action.o
process_record_kb                                 .build/obj_ergodox_ez_sfgabe_80_underglow/quantum/quantum.o
process_record_nocache                            .build/obj_ergodox_ez_sfgabe_80_underglow/common/action.o
process_record_quantum                            .build/obj_ergodox_ez_sfgabe_80_underglow/quantum/quantum.o
process_record_tap_hint                           .build/obj_ergodox_ez_sfgabe_80_underglow/common/action.o
                                                  .build/obj_ergodox_ez_sfgabe_80_underglow/common/action_tapping.o
process_record_user                               .build/obj_ergodox_ez_sfgabe_80_underglow/quantum/quantum.o
process_rgb                                       .build/obj_ergodox_ez_sfgabe_80_underglow/quantum/process_keycode/process_rgb.o
                                                  .build/obj_ergodox_ez_sfgabe_80_underglow/quantum/quantum.o
process_space_cadet                               .build/obj_ergodox_ez_sfgabe_80_underglow/quantum/process_keycode/process_space_cadet.o
                                                  .build/obj_ergodox_ez_sfgabe_80_underglow/quantum/quantum.o
process_unicode                                   .build/obj_ergodox_ez_sfgabe_80_underglow/quantum/process_keycode/process_unicode.o
                                                  .build/obj_ergodox_ez_sfgabe_80_underglow/quantum/process_keycode/process_unicode_common.o
process_unicode_common                            .build/obj_ergodox_ez_sfgabe_80_underglow/quantum/process_keycode/process_unicode_common.o
                                                  .build/obj_ergodox_ez_sfgabe_80_underglow/quantum/quantum.o
rand                                              /usr/local/Cellar/avr-gcc@8/8.4.0/lib/avr-gcc/8/gcc/avr/8.4.0/../../../../../../avr/lib/avr5/libc.a(rand.o)
                                                  .build/obj_ergodox_ez_sfgabe_80_underglow/quantum/rgblight.o
rand_r                                            /usr/local/Cellar/avr-gcc@8/8.4.0/lib/avr-gcc/8/gcc/avr/8.4.0/../../../../../../avr/lib/avr5/libc.a(rand.o)
raw_matrix                                        .build/obj_ergodox_ez_sfgabe_80_underglow/quantum/matrix_common.o
                                                  .build/obj_ergodox_ez_sfgabe_80_underglow/matrix.o
read_source_layers_cache                          .build/obj_ergodox_ez_sfgabe_80_underglow/common/action_layer.o
                                                  .build/obj_ergodox_ez_sfgabe_80_underglow/quantum/quantum.o
register_code                                     .build/obj_ergodox_ez_sfgabe_80_underglow/common/action.o
                                                  .build/obj_ergodox_ez_sfgabe_80_underglow/quantum/process_keycode/process_unicode_common.o
                                                  .build/obj_ergodox_ez_sfgabe_80_underglow/quantum/quantum.o
register_code16                                   .build/obj_ergodox_ez_sfgabe_80_underglow/quantum/quantum.o
register_hex                                      .build/obj_ergodox_ez_sfgabe_80_underglow/quantum/process_keycode/process_unicode_common.o
                                                  .build/obj_ergodox_ez_sfgabe_80_underglow/quantum/process_keycode/process_unicode.o
register_hex32                                    .build/obj_ergodox_ez_sfgabe_80_underglow/quantum/process_keycode/process_unicode_common.o
register_mods                                     .build/obj_ergodox_ez_sfgabe_80_underglow/common/action.o
                                                  .build/obj_ergodox_ez_sfgabe_80_underglow/quantum/process_keycode/process_space_cadet.o
                                                  .build/obj_ergodox_ez_sfgabe_80_underglow/quantum/quantum.o
register_unicode                                  .build/obj_ergodox_ez_sfgabe_80_underglow/quantum/process_keycode/process_unicode_common.o
register_weak_mods                                .build/obj_ergodox_ez_sfgabe_80_underglow/common/action.o
                                                  .build/obj_ergodox_ez_sfgabe_80_underglow/quantum/quantum.o
release_oneshot_swaphands                         .build/obj_ergodox_ez_sfgabe_80_underglow/common/action_util.o
                                                  .build/obj_ergodox_ez_sfgabe_80_underglow/common/action.o
reset_key                                         .build/obj_ergodox_ez_sfgabe_80_underglow/common/avr/bootloader.o
reset_keyboard                                    .build/obj_ergodox_ez_sfgabe_80_underglow/quantum/quantum.o
                                                  .build/obj_ergodox_ez_sfgabe_80_underglow/common/command.o
reset_oneshot_layer                               .build/obj_ergodox_ez_sfgabe_80_underglow/common/action_util.o
rgblight_call_driver                              .build/obj_ergodox_ez_sfgabe_80_underglow/led_i2c.o
rgblight_check_config                             .build/obj_ergodox_ez_sfgabe_80_underglow/quantum/rgblight.o
rgblight_config                                   .build/obj_ergodox_ez_sfgabe_80_underglow/quantum/rgblight.o
                                                  .build/obj_ergodox_ez_sfgabe_80_underglow/common/avr/suspend.o
rgblight_decrease                                 .build/obj_ergodox_ez_sfgabe_80_underglow/quantum/rgblight.o
rgblight_decrease_hue                             .build/obj_ergodox_ez_sfgabe_80_underglow/quantum/rgblight.o
rgblight_decrease_hue_helper                      .build/obj_ergodox_ez_sfgabe_80_underglow/quantum/rgblight.o
rgblight_decrease_hue_noeeprom                    .build/obj_ergodox_ez_sfgabe_80_underglow/quantum/rgblight.o
rgblight_decrease_sat                             .build/obj_ergodox_ez_sfgabe_80_underglow/quantum/rgblight.o
rgblight_decrease_sat_helper                      .build/obj_ergodox_ez_sfgabe_80_underglow/quantum/rgblight.o
rgblight_decrease_sat_noeeprom                    .build/obj_ergodox_ez_sfgabe_80_underglow/quantum/rgblight.o
rgblight_decrease_speed                           .build/obj_ergodox_ez_sfgabe_80_underglow/quantum/rgblight.o
rgblight_decrease_speed_helper                    .build/obj_ergodox_ez_sfgabe_80_underglow/quantum/rgblight.o
rgblight_decrease_speed_noeeprom                  .build/obj_ergodox_ez_sfgabe_80_underglow/quantum/rgblight.o
rgblight_decrease_val                             .build/obj_ergodox_ez_sfgabe_80_underglow/quantum/rgblight.o
rgblight_decrease_val_helper                      .build/obj_ergodox_ez_sfgabe_80_underglow/quantum/rgblight.o
rgblight_decrease_val_noeeprom                    .build/obj_ergodox_ez_sfgabe_80_underglow/quantum/rgblight.o
rgblight_disable                                  .build/obj_ergodox_ez_sfgabe_80_underglow/quantum/rgblight.o
rgblight_disable_noeeprom                         .build/obj_ergodox_ez_sfgabe_80_underglow/quantum/rgblight.o
                                                  .build/obj_ergodox_ez_sfgabe_80_underglow/common/avr/suspend.o
rgblight_effect_alternating                       .build/obj_ergodox_ez_sfgabe_80_underglow/quantum/rgblight.o
rgblight_effect_breathe_table                     .build/obj_ergodox_ez_sfgabe_80_underglow/quantum/rgblight.o
rgblight_effect_breathing                         .build/obj_ergodox_ez_sfgabe_80_underglow/quantum/rgblight.o
rgblight_effect_christmas                         .build/obj_ergodox_ez_sfgabe_80_underglow/quantum/rgblight.o
rgblight_effect_knight                            .build/obj_ergodox_ez_sfgabe_80_underglow/quantum/rgblight.o
rgblight_effect_rainbow_mood                      .build/obj_ergodox_ez_sfgabe_80_underglow/quantum/rgblight.o
rgblight_effect_rainbow_swirl                     .build/obj_ergodox_ez_sfgabe_80_underglow/quantum/rgblight.o
rgblight_effect_rgbtest                           .build/obj_ergodox_ez_sfgabe_80_underglow/quantum/rgblight.o
rgblight_effect_snake                             .build/obj_ergodox_ez_sfgabe_80_underglow/quantum/rgblight.o
rgblight_effect_twinkle                           .build/obj_ergodox_ez_sfgabe_80_underglow/quantum/rgblight.o
rgblight_enable                                   .build/obj_ergodox_ez_sfgabe_80_underglow/quantum/rgblight.o
rgblight_enable_noeeprom                          .build/obj_ergodox_ez_sfgabe_80_underglow/quantum/rgblight.o
                                                  .build/obj_ergodox_ez_sfgabe_80_underglow/common/avr/suspend.o
rgblight_get_hsv                                  .build/obj_ergodox_ez_sfgabe_80_underglow/quantum/rgblight.o
rgblight_get_hue                                  .build/obj_ergodox_ez_sfgabe_80_underglow/quantum/rgblight.o
rgblight_get_mode                                 .build/obj_ergodox_ez_sfgabe_80_underglow/quantum/rgblight.o
                                                  .build/obj_ergodox_ez_sfgabe_80_underglow/quantum/process_keycode/process_rgb.o
rgblight_get_sat                                  .build/obj_ergodox_ez_sfgabe_80_underglow/quantum/rgblight.o
rgblight_get_speed                                .build/obj_ergodox_ez_sfgabe_80_underglow/quantum/rgblight.o
rgblight_get_val                                  .build/obj_ergodox_ez_sfgabe_80_underglow/quantum/rgblight.o
rgblight_increase                                 .build/obj_ergodox_ez_sfgabe_80_underglow/quantum/rgblight.o
rgblight_increase_hue                             .build/obj_ergodox_ez_sfgabe_80_underglow/quantum/rgblight.o
rgblight_increase_hue_helper                      .build/obj_ergodox_ez_sfgabe_80_underglow/quantum/rgblight.o
rgblight_increase_hue_noeeprom                    .build/obj_ergodox_ez_sfgabe_80_underglow/quantum/rgblight.o
rgblight_increase_sat                             .build/obj_ergodox_ez_sfgabe_80_underglow/quantum/rgblight.o
rgblight_increase_sat_helper                      .build/obj_ergodox_ez_sfgabe_80_underglow/quantum/rgblight.o
rgblight_increase_sat_noeeprom                    .build/obj_ergodox_ez_sfgabe_80_underglow/quantum/rgblight.o
rgblight_increase_speed                           .build/obj_ergodox_ez_sfgabe_80_underglow/quantum/rgblight.o
rgblight_increase_speed_helper                    .build/obj_ergodox_ez_sfgabe_80_underglow/quantum/rgblight.o
rgblight_increase_speed_noeeprom                  .build/obj_ergodox_ez_sfgabe_80_underglow/quantum/rgblight.o
rgblight_increase_val                             .build/obj_ergodox_ez_sfgabe_80_underglow/quantum/rgblight.o
rgblight_increase_val_helper                      .build/obj_ergodox_ez_sfgabe_80_underglow/quantum/rgblight.o
rgblight_increase_val_noeeprom                    .build/obj_ergodox_ez_sfgabe_80_underglow/quantum/rgblight.o
rgblight_init                                     .build/obj_ergodox_ez_sfgabe_80_underglow/quantum/rgblight.o
                                                  .build/obj_ergodox_ez_sfgabe_80_underglow/common/keyboard.o
rgblight_is_enabled                               .build/obj_ergodox_ez_sfgabe_80_underglow/quantum/rgblight.o
rgblight_mode                                     .build/obj_ergodox_ez_sfgabe_80_underglow/quantum/rgblight.o
                                                  .build/obj_ergodox_ez_sfgabe_80_underglow/quantum/process_keycode/process_rgb.o
rgblight_mode_eeprom_helper                       .build/obj_ergodox_ez_sfgabe_80_underglow/quantum/rgblight.o
rgblight_mode_noeeprom                            .build/obj_ergodox_ez_sfgabe_80_underglow/quantum/rgblight.o
rgblight_ranges                                   .build/obj_ergodox_ez_sfgabe_80_underglow/quantum/rgblight.o
rgblight_read_dword                               .build/obj_ergodox_ez_sfgabe_80_underglow/quantum/rgblight.o
rgblight_set                                      .build/obj_ergodox_ez_sfgabe_80_underglow/quantum/rgblight.o
rgblight_set_clipping_range                       .build/obj_ergodox_ez_sfgabe_80_underglow/quantum/rgblight.o
rgblight_set_effect_range                         .build/obj_ergodox_ez_sfgabe_80_underglow/quantum/rgblight.o
rgblight_set_speed                                .build/obj_ergodox_ez_sfgabe_80_underglow/quantum/rgblight.o
rgblight_set_speed_eeprom_helper                  .build/obj_ergodox_ez_sfgabe_80_underglow/quantum/rgblight.o
rgblight_set_speed_noeeprom                       .build/obj_ergodox_ez_sfgabe_80_underglow/quantum/rgblight.o
rgblight_sethsv                                   .build/obj_ergodox_ez_sfgabe_80_underglow/quantum/rgblight.o
rgblight_sethsv_at                                .build/obj_ergodox_ez_sfgabe_80_underglow/quantum/rgblight.o
rgblight_sethsv_eeprom_helper                     .build/obj_ergodox_ez_sfgabe_80_underglow/quantum/rgblight.o
rgblight_sethsv_master                            .build/obj_ergodox_ez_sfgabe_80_underglow/quantum/rgblight.o
rgblight_sethsv_noeeprom                          .build/obj_ergodox_ez_sfgabe_80_underglow/quantum/rgblight.o
rgblight_sethsv_noeeprom_old                      .build/obj_ergodox_ez_sfgabe_80_underglow/quantum/rgblight.o
rgblight_sethsv_range                             .build/obj_ergodox_ez_sfgabe_80_underglow/quantum/rgblight.o
rgblight_sethsv_slave                             .build/obj_ergodox_ez_sfgabe_80_underglow/quantum/rgblight.o
rgblight_setrgb                                   .build/obj_ergodox_ez_sfgabe_80_underglow/quantum/rgblight.o
rgblight_setrgb_at                                .build/obj_ergodox_ez_sfgabe_80_underglow/quantum/rgblight.o
rgblight_setrgb_master                            .build/obj_ergodox_ez_sfgabe_80_underglow/quantum/rgblight.o
rgblight_setrgb_range                             .build/obj_ergodox_ez_sfgabe_80_underglow/quantum/rgblight.o
rgblight_setrgb_slave                             .build/obj_ergodox_ez_sfgabe_80_underglow/quantum/rgblight.o
rgblight_show_solid_color                         .build/obj_ergodox_ez_sfgabe_80_underglow/quantum/rgblight.o
rgblight_status                                   .build/obj_ergodox_ez_sfgabe_80_underglow/quantum/rgblight.o
rgblight_step                                     .build/obj_ergodox_ez_sfgabe_80_underglow/quantum/rgblight.o
rgblight_step_helper                              .build/obj_ergodox_ez_sfgabe_80_underglow/quantum/rgblight.o
rgblight_step_noeeprom                            .build/obj_ergodox_ez_sfgabe_80_underglow/quantum/rgblight.o
rgblight_step_reverse                             .build/obj_ergodox_ez_sfgabe_80_underglow/quantum/rgblight.o
rgblight_step_reverse_helper                      .build/obj_ergodox_ez_sfgabe_80_underglow/quantum/rgblight.o
rgblight_step_reverse_noeeprom                    .build/obj_ergodox_ez_sfgabe_80_underglow/quantum/rgblight.o
rgblight_task                                     .build/obj_ergodox_ez_sfgabe_80_underglow/quantum/rgblight.o
                                                  .build/obj_ergodox_ez_sfgabe_80_underglow/common/keyboard.o
rgblight_timer_disable                            .build/obj_ergodox_ez_sfgabe_80_underglow/quantum/rgblight.o
                                                  .build/obj_ergodox_ez_sfgabe_80_underglow/common/avr/suspend.o
rgblight_timer_enable                             .build/obj_ergodox_ez_sfgabe_80_underglow/quantum/rgblight.o
                                                  .build/obj_ergodox_ez_sfgabe_80_underglow/common/avr/suspend.o
rgblight_timer_init                               .build/obj_ergodox_ez_sfgabe_80_underglow/quantum/rgblight.o
rgblight_timer_toggle                             .build/obj_ergodox_ez_sfgabe_80_underglow/quantum/rgblight.o
rgblight_toggle                                   .build/obj_ergodox_ez_sfgabe_80_underglow/quantum/rgblight.o
rgblight_toggle_noeeprom                          .build/obj_ergodox_ez_sfgabe_80_underglow/quantum/rgblight.o
rgblight_update_dword                             .build/obj_ergodox_ez_sfgabe_80_underglow/quantum/rgblight.o
send_byte                                         .build/obj_ergodox_ez_sfgabe_80_underglow/quantum/quantum.o
send_char                                         .build/obj_ergodox_ez_sfgabe_80_underglow/quantum/quantum.o
send_dword                                        .build/obj_ergodox_ez_sfgabe_80_underglow/quantum/quantum.o
send_keyboard_report                              .build/obj_ergodox_ez_sfgabe_80_underglow/common/action_util.o
                                                  .build/obj_ergodox_ez_sfgabe_80_underglow/common/action.o
                                                  .build/obj_ergodox_ez_sfgabe_80_underglow/quantum/process_keycode/process_grave_esc.o
send_nibble                                       .build/obj_ergodox_ez_sfgabe_80_underglow/quantum/quantum.o
send_string                                       .build/obj_ergodox_ez_sfgabe_80_underglow/quantum/quantum.o
                                                  .build/obj_ergodox_ez_sfgabe_80_underglow/quantum/process_keycode/process_auto_shift.o
                                                  .build/obj_ergodox_ez_sfgabe_80_underglow/quantum/process_keycode/process_unicode_common.o
send_string_P                                     .build/obj_ergodox_ez_sfgabe_80_underglow/quantum/quantum.o
send_string_with_delay                            .build/obj_ergodox_ez_sfgabe_80_underglow/quantum/quantum.o
send_string_with_delay_P                          .build/obj_ergodox_ez_sfgabe_80_underglow/quantum/quantum.o
send_unicode_hex_string                           .build/obj_ergodox_ez_sfgabe_80_underglow/quantum/process_keycode/process_unicode_common.o
send_unicode_string                               .build/obj_ergodox_ez_sfgabe_80_underglow/quantum/process_keycode/process_unicode_common.o
send_word                                         .build/obj_ergodox_ez_sfgabe_80_underglow/quantum/quantum.o
sendchar                                          .build/obj_ergodox_ez_sfgabe_80_underglow/common/sendchar_null.o
set_autoshift_timeout                             .build/obj_ergodox_ez_sfgabe_80_underglow/quantum/process_keycode/process_auto_shift.o
set_macro_mods                                    .build/obj_ergodox_ez_sfgabe_80_underglow/common/action_util.o
set_mods                                          .build/obj_ergodox_ez_sfgabe_80_underglow/common/action_util.o
                                                  .build/obj_ergodox_ez_sfgabe_80_underglow/quantum/process_keycode/process_unicode_common.o
set_oneshot_layer                                 .build/obj_ergodox_ez_sfgabe_80_underglow/common/action_util.o
                                                  .build/obj_ergodox_ez_sfgabe_80_underglow/common/action.o
set_oneshot_locked_mods                           .build/obj_ergodox_ez_sfgabe_80_underglow/common/action_util.o
set_oneshot_mods                                  .build/obj_ergodox_ez_sfgabe_80_underglow/common/action_util.o
                                                  .build/obj_ergodox_ez_sfgabe_80_underglow/common/action.o
set_oneshot_swaphands                             .build/obj_ergodox_ez_sfgabe_80_underglow/common/action_util.o
                                                  .build/obj_ergodox_ez_sfgabe_80_underglow/common/action.o
set_single_persistent_default_layer               .build/obj_ergodox_ez_sfgabe_80_underglow/quantum/quantum.o
set_unicode_input_mode                            .build/obj_ergodox_ez_sfgabe_80_underglow/quantum/process_keycode/process_unicode_common.o
set_weak_mods                                     .build/obj_ergodox_ez_sfgabe_80_underglow/common/action_util.o
sethsv                                            .build/obj_ergodox_ez_sfgabe_80_underglow/quantum/rgblight.o
sethsv_raw                                        .build/obj_ergodox_ez_sfgabe_80_underglow/quantum/rgblight.o
setrgb                                            .build/obj_ergodox_ez_sfgabe_80_underglow/quantum/rgblight.o
should_process_keypress                           .build/obj_ergodox_ez_sfgabe_80_underglow/common/keyboard.o
shutdown_user                                     .build/obj_ergodox_ez_sfgabe_80_underglow/quantum/quantum.o
snprintf                                          /usr/local/Cellar/avr-gcc@8/8.4.0/lib/avr-gcc/8/gcc/avr/8.4.0/../../../../../../avr/lib/avr5/libc.a(snprintf.o)
                                                  .build/obj_ergodox_ez_sfgabe_80_underglow/quantum/process_keycode/process_auto_shift.o
source_layers_cache                               .build/obj_ergodox_ez_sfgabe_80_underglow/common/action_layer.o
srand                                             /usr/local/Cellar/avr-gcc@8/8.4.0/lib/avr-gcc/8/gcc/avr/8.4.0/../../../../../../avr/lib/avr5/libc.a(rand.o)
startup_user                                      .build/obj_ergodox_ez_sfgabe_80_underglow/quantum/quantum.o
store_or_get_action                               .build/obj_ergodox_ez_sfgabe_80_underglow/common/action_layer.o
                                                  .build/obj_ergodox_ez_sfgabe_80_underglow/common/action.o
strcspn                                           /usr/local/Cellar/avr-gcc@8/8.4.0/lib/avr-gcc/8/gcc/avr/8.4.0/../../../../../../avr/lib/avr5/libc.a(strcspn.o)
                                                  .build/obj_ergodox_ez_sfgabe_80_underglow/quantum/process_keycode/process_unicode_common.o
strncpy                                           /usr/local/Cellar/avr-gcc@8/8.4.0/lib/avr-gcc/8/gcc/avr/8.4.0/../../../../../../avr/lib/avr5/libc.a(strncpy.o)
                                                  .build/obj_ergodox_ez_sfgabe_80_underglow/quantum/process_keycode/process_unicode_common.o
strnlen                                           /usr/local/Cellar/avr-gcc@8/8.4.0/lib/avr-gcc/8/gcc/avr/8.4.0/../../../../../../avr/lib/avr5/libc.a(strnlen.o)
                                                  /usr/local/Cellar/avr-gcc@8/8.4.0/lib/avr-gcc/8/gcc/avr/8.4.0/../../../../../../avr/lib/avr5/libc.a(vfprintf_std.o)
strnlen_P                                         /usr/local/Cellar/avr-gcc@8/8.4.0/lib/avr-gcc/8/gcc/avr/8.4.0/../../../../../../avr/lib/avr5/libc.a(strnlen_P.o)
                                                  /usr/local/Cellar/avr-gcc@8/8.4.0/lib/avr-gcc/8/gcc/avr/8.4.0/../../../../../../avr/lib/avr5/libc.a(vfprintf_std.o)
suspend_idle                                      .build/obj_ergodox_ez_sfgabe_80_underglow/common/avr/suspend.o
suspend_power_down                                .build/obj_ergodox_ez_sfgabe_80_underglow/common/avr/suspend.o
                                                  .build/obj_ergodox_ez_sfgabe_80_underglow/lufa.o
suspend_power_down_kb                             .build/obj_ergodox_ez_sfgabe_80_underglow/common/avr/suspend.o
suspend_power_down_user                           .build/obj_ergodox_ez_sfgabe_80_underglow/common/avr/suspend.o
suspend_wakeup_condition                          .build/obj_ergodox_ez_sfgabe_80_underglow/common/avr/suspend.o
                                                  .build/obj_ergodox_ez_sfgabe_80_underglow/lufa.o
suspend_wakeup_init                               .build/obj_ergodox_ez_sfgabe_80_underglow/common/avr/suspend.o
                                                  .build/obj_ergodox_ez_sfgabe_80_underglow/lufa.o
suspend_wakeup_init_kb                            .build/obj_ergodox_ez_sfgabe_80_underglow/common/avr/suspend.o
suspend_wakeup_init_user                          .build/obj_ergodox_ez_sfgabe_80_underglow/common/avr/suspend.o
swap_hands                                        .build/obj_ergodox_ez_sfgabe_80_underglow/common/action.o
                                                  .build/obj_ergodox_ez_sfgabe_80_underglow/common/action_util.o
swap_hands_oneshot                                .build/obj_ergodox_ez_sfgabe_80_underglow/common/action_util.o
swap_held                                         .build/obj_ergodox_ez_sfgabe_80_underglow/common/action.o
tap_code                                          .build/obj_ergodox_ez_sfgabe_80_underglow/common/action.o
                                                  .build/obj_ergodox_ez_sfgabe_80_underglow/quantum/process_keycode/process_auto_shift.o
                                                  .build/obj_ergodox_ez_sfgabe_80_underglow/quantum/process_keycode/process_space_cadet.o
                                                  .build/obj_ergodox_ez_sfgabe_80_underglow/quantum/process_keycode/process_unicode_common.o
                                                  .build/obj_ergodox_ez_sfgabe_80_underglow/quantum/quantum.o
                                                  .build/obj_ergodox_ez_sfgabe_80_underglow/keyboards/ergodox_ez/keymaps/sfgabe_80_underglow/keymap.o
tap_code16                                        .build/obj_ergodox_ez_sfgabe_80_underglow/quantum/quantum.o
                                                  .build/obj_ergodox_ez_sfgabe_80_underglow/quantum/process_keycode/process_auto_shift.o
                                                  .build/obj_ergodox_ez_sfgabe_80_underglow/quantum/process_keycode/process_unicode_common.o
tap_random_base64                                 .build/obj_ergodox_ez_sfgabe_80_underglow/quantum/quantum.o
timer_clear                                       .build/obj_ergodox_ez_sfgabe_80_underglow/common/avr/timer.o
timer_count                                       .build/obj_ergodox_ez_sfgabe_80_underglow/common/avr/timer.o
                                                  .build/obj_ergodox_ez_sfgabe_80_underglow/common/avr/suspend.o
timer_elapsed                                     .build/obj_ergodox_ez_sfgabe_80_underglow/common/avr/timer.o
                                                  .build/obj_ergodox_ez_sfgabe_80_underglow/common/mousekey.o
                                                  .build/obj_ergodox_ez_sfgabe_80_underglow/quantum/process_keycode/process_auto_shift.o
                                                  .build/obj_ergodox_ez_sfgabe_80_underglow/quantum/process_keycode/process_space_cadet.o
                                                  .build/obj_ergodox_ez_sfgabe_80_underglow/quantum/rgblight.o
timer_elapsed32                                   .build/obj_ergodox_ez_sfgabe_80_underglow/common/avr/timer.o
timer_init                                        .build/obj_ergodox_ez_sfgabe_80_underglow/common/avr/timer.o
                                                  .build/obj_ergodox_ez_sfgabe_80_underglow/common/keyboard.o
timer_read                                        .build/obj_ergodox_ez_sfgabe_80_underglow/common/avr/timer.o
                                                  .build/obj_ergodox_ez_sfgabe_80_underglow/common/mousekey.o
                                                  .build/obj_ergodox_ez_sfgabe_80_underglow/common/keyboard.o
                                                  .build/obj_ergodox_ez_sfgabe_80_underglow/i2c_master.a(i2c_master.o)
                                                  .build/obj_ergodox_ez_sfgabe_80_underglow/quantum/process_keycode/process_auto_shift.o
                                                  .build/obj_ergodox_ez_sfgabe_80_underglow/quantum/process_keycode/process_space_cadet.o
                                                  .build/obj_ergodox_ez_sfgabe_80_underglow/quantum/rgblight.o
                                                  .build/obj_ergodox_ez_sfgabe_80_underglow/quantum/debounce/sym_eager_pr.o
timer_read32                                      .build/obj_ergodox_ez_sfgabe_80_underglow/common/avr/timer.o
tolower                                           /usr/local/Cellar/avr-gcc@8/8.4.0/lib/avr-gcc/8/gcc/avr/8.4.0/../../../../../../avr/lib/avr5/libc.a(tolower.o)
                                                  .build/obj_ergodox_ez_sfgabe_80_underglow/quantum/process_keycode/process_unicode_common.o
tp_buttons                                        .build/obj_ergodox_ez_sfgabe_80_underglow/common/action.o
transfer_matrix_values                            .build/obj_ergodox_ez_sfgabe_80_underglow/quantum/debounce/sym_eager_pr.o
unicode_config                                    .build/obj_ergodox_ez_sfgabe_80_underglow/quantum/process_keycode/process_unicode_common.o
unicode_input_cancel                              .build/obj_ergodox_ez_sfgabe_80_underglow/quantum/process_keycode/process_unicode_common.o
unicode_input_finish                              .build/obj_ergodox_ez_sfgabe_80_underglow/quantum/process_keycode/process_unicode_common.o
                                                  .build/obj_ergodox_ez_sfgabe_80_underglow/quantum/process_keycode/process_unicode.o
unicode_input_mode_init                           .build/obj_ergodox_ez_sfgabe_80_underglow/quantum/process_keycode/process_unicode_common.o
                                                  .build/obj_ergodox_ez_sfgabe_80_underglow/quantum/quantum.o
unicode_input_start                               .build/obj_ergodox_ez_sfgabe_80_underglow/quantum/process_keycode/process_unicode_common.o
                                                  .build/obj_ergodox_ez_sfgabe_80_underglow/quantum/process_keycode/process_unicode.o
unicode_saved_mods                                .build/obj_ergodox_ez_sfgabe_80_underglow/quantum/process_keycode/process_unicode_common.o
unregister_code                                   .build/obj_ergodox_ez_sfgabe_80_underglow/common/action.o
                                                  .build/obj_ergodox_ez_sfgabe_80_underglow/quantum/process_keycode/process_unicode_common.o
                                                  .build/obj_ergodox_ez_sfgabe_80_underglow/quantum/quantum.o
unregister_code16                                 .build/obj_ergodox_ez_sfgabe_80_underglow/quantum/quantum.o
unregister_mods                                   .build/obj_ergodox_ez_sfgabe_80_underglow/common/action.o
                                                  .build/obj_ergodox_ez_sfgabe_80_underglow/quantum/process_keycode/process_space_cadet.o
                                                  .build/obj_ergodox_ez_sfgabe_80_underglow/quantum/quantum.o
unregister_weak_mods                              .build/obj_ergodox_ez_sfgabe_80_underglow/common/action.o
                                                  .build/obj_ergodox_ez_sfgabe_80_underglow/quantum/quantum.o
update_debounce_counters                          .build/obj_ergodox_ez_sfgabe_80_underglow/quantum/debounce/sym_eager_pr.o
update_source_layers_cache                        .build/obj_ergodox_ez_sfgabe_80_underglow/common/action_layer.o
                                                  .build/obj_ergodox_ez_sfgabe_80_underglow/quantum/quantum.o
update_tri_layer                                  .build/obj_ergodox_ez_sfgabe_80_underglow/quantum/quantum.o
update_tri_layer_state                            .build/obj_ergodox_ez_sfgabe_80_underglow/quantum/quantum.o
use_oneshot_swaphands                             .build/obj_ergodox_ez_sfgabe_80_underglow/common/action_util.o
                                                  .build/obj_ergodox_ez_sfgabe_80_underglow/common/action.o
vfprintf                                          /usr/local/Cellar/avr-gcc@8/8.4.0/lib/avr-gcc/8/gcc/avr/8.4.0/../../../../../../avr/lib/avr5/libc.a(vfprintf_std.o)
                                                  /usr/local/Cellar/avr-gcc@8/8.4.0/lib/avr-gcc/8/gcc/avr/8.4.0/../../../../../../avr/lib/avr5/libc.a(snprintf.o)
ws2812_setleds                                    .build/obj_ergodox_ez_sfgabe_80_underglow/ws2812.o
                                                  .build/obj_ergodox_ez_sfgabe_80_underglow/quantum/rgblight.o
                                                  .build/obj_ergodox_ez_sfgabe_80_underglow/led_i2c.o
xfunc_out                                         .build/obj_ergodox_ez_sfgabe_80_underglow/common/avr/xprintf.o
xitoa                                             .build/obj_ergodox_ez_sfgabe_80_underglow/common/avr/xprintf.o
xputc                                             .build/obj_ergodox_ez_sfgabe_80_underglow/common/avr/xprintf.o
xputs                                             .build/obj_ergodox_ez_sfgabe_80_underglow/common/avr/xprintf.o
